

Microchip MPLAB XC8 Assembler V2.31 build 20201012212115 
                                                                                               Mon Mar 29 23:50:46 2021

Microchip MPLAB XC8 C Compiler v2.31 (Free license) build 20201012212115 Og1 
     1                           	processor	16F1509
     2                           	pagewidth 120
     3                           	opt	flic
     4                           	psect	stringtext1,global,class=STRCODE,delta=2,noexec
     5                           	psect	nvBANK0,global,class=BANK0,space=1,delta=1,noexec
     6                           	psect	stringtext2,global,class=STRCODE,delta=2,noexec
     7                           	psect	stringtext3,global,class=STRCODE,delta=2,noexec
     8                           	psect	cinit,global,class=CODE,merge=1,delta=2
     9                           	psect	bssBANK0,global,class=BANK0,space=1,delta=1,noexec
    10                           	psect	bssBANK1,global,class=BANK1,space=1,delta=1,noexec
    11                           	psect	clrtext,global,class=CODE,delta=2
    12                           	psect	cstackCOMMON,global,class=COMMON,space=1,delta=1,noexec
    13                           	psect	cstackBANK0,global,class=BANK0,space=1,delta=1,noexec
    14                           	psect	maintext,global,class=CODE,merge=1,split=1,delta=2
    15                           	psect	text1,local,class=CODE,merge=1,delta=2
    16                           	psect	text2,local,class=CODE,merge=1,delta=2
    17                           	psect	text3,local,class=CODE,merge=1,delta=2
    18                           	psect	text4,local,class=CODE,merge=1,delta=2
    19                           	psect	text5,local,class=CODE,merge=1,delta=2
    20                           	psect	text6,local,class=CODE,merge=1,delta=2
    21                           	psect	text7,local,class=CODE,merge=1,delta=2
    22                           	psect	text8,local,class=CODE,merge=1,delta=2
    23                           	psect	text9,local,class=CODE,merge=1,delta=2
    24                           	psect	text10,local,class=CODE,merge=1,delta=2
    25                           	psect	text11,local,class=CODE,merge=1,delta=2
    26                           	psect	text12,local,class=CODE,merge=1,delta=2
    27                           	psect	text13,local,class=CODE,merge=1,delta=2
    28                           	psect	text14,local,class=CODE,merge=1,delta=2
    29                           	psect	text15,local,class=CODE,merge=1,delta=2,group=1
    30                           	psect	text16,local,class=CODE,merge=1,delta=2
    31                           	psect	text17,local,class=CODE,merge=1,delta=2
    32                           	psect	text18,local,class=CODE,merge=1,delta=2
    33                           	psect	text19,local,class=CODE,merge=1,delta=2
    34                           	psect	text20,local,class=CODE,merge=1,delta=2
    35                           	psect	text21,local,class=CODE,merge=1,delta=2
    36                           	psect	text22,local,class=CODE,merge=1,delta=2
    37                           	psect	text23,local,class=CODE,merge=1,delta=2
    38                           	psect	text24,local,class=CODE,merge=1,delta=2
    39                           	psect	text25,local,class=CODE,merge=1,delta=2
    40                           	psect	text26,local,class=CODE,merge=1,delta=2
    41                           	psect	text27,local,class=CODE,merge=1,delta=2
    42                           	psect	text28,local,class=CODE,merge=1,delta=2
    43                           	psect	text29,local,class=CODE,merge=1,delta=2
    44                           	psect	text30,local,class=CODE,merge=1,delta=2
    45                           	psect	text31,local,class=CODE,merge=1,delta=2
    46                           	psect	text32,local,class=CODE,merge=1,delta=2
    47                           	psect	text33,local,class=CODE,merge=1,delta=2,group=1
    48                           	psect	text34,local,class=CODE,merge=1,delta=2
    49                           	psect	text35,local,class=CODE,merge=1,delta=2,group=1
    50                           	psect	text36,local,class=CODE,merge=1,delta=2,group=1
    51                           	psect	text37,local,class=CODE,merge=1,delta=2,group=1
    52                           	psect	text38,local,class=CODE,merge=1,delta=2,group=1
    53                           	psect	text39,local,class=CODE,merge=1,delta=2,group=1
    54                           	psect	text40,local,class=CODE,merge=1,delta=2
    55                           	psect	text41,local,class=CODE,merge=1,delta=2
    56                           	psect	intentry,global,class=CODE,delta=2
    57                           	psect	config,global,abs,ovrld,class=CONFIG,space=4,delta=2,noexec
    58                           	dabs	1,0x320,16
    59                           	dabs	1,0x2A0,80
    60                           	dabs	1,0x220,80
    61                           	dabs	1,0x1A0,80
    62                           	dabs	1,0x20F0,0,_CircularBuffer
    63                           	dabs	1,0x7E,2
    64  0000                     
    65                           ; Version 2.31
    66                           ; Generated 13/10/2020 GMT
    67                           ; 
    68                           ; Copyright © 2020, Microchip Technology Inc. and its subsidiaries ("Microchip")
    69                           ; All rights reserved.
    70                           ; 
    71                           ; This software is developed by Microchip Technology Inc. and its subsidiaries ("Microch
      +                          ip").
    72                           ; 
    73                           ; Redistribution and use in source and binary forms, with or without modification, are
    74                           ; permitted provided that the following conditions are met:
    75                           ; 
    76                           ;     1. Redistributions of source code must retain the above copyright notice, this lis
      +                          t of
    77                           ;        conditions and the following disclaimer.
    78                           ; 
    79                           ;     2. Redistributions in binary form must reproduce the above copyright notice, this 
      +                          list
    80                           ;        of conditions and the following disclaimer in the documentation and/or other
    81                           ;        materials provided with the distribution. Publication is not required when
    82                           ;        this file is used in an embedded application.
    83                           ; 
    84                           ;     3. Microchip's name may not be used to endorse or promote products derived from th
      +                          is
    85                           ;        software without specific prior written permission.
    86                           ; 
    87                           ; THIS SOFTWARE IS PROVIDED BY MICROCHIP "AS IS" AND ANY EXPRESS OR IMPLIED WARRANTIES,
    88                           ; INCLUDING, BUT NOT LIMITED TO, THE IMPLIED WARRANTIES OF MERCHANTABILITY AND FITNESS F
      +                          OR
    89                           ; PURPOSE ARE DISCLAIMED.  IN NO EVENT SHALL MICROCHIP BE LIABLE FOR ANY DIRECT, INDIREC
      +                          T,
    90                           ; INCIDENTAL, SPECIAL, EXEMPLARY, OR CONSEQUENTIAL DAMAGES (INCLUDING BUT NOT LIMITED TO
    91                           ; PROCUREMENT OF SUBSTITUTE GOODS OR SERVICES; LOSS OF USE, DATA OR PROFITS; OR BUSINESS
    92                           ; INTERRUPTION) HOWSOEVER CAUSED AND ON ANY THEORY OF LIABILITY, WHETHER IN CONTRACT, ST
      +                          RICT
    93                           ; LIABILITY, OR TORT (INCLUDING NEGLIGENCE OR OTHERWISE) ARISING IN ANY WAY OUT OF THE U
      +                          SE OF
    94                           ; THIS SOFTWARE, EVEN IF ADVISED OF THE POSSIBILITY OF SUCH DAMAGE.
    95                           ; 
    96                           ; 
    97                           ; Code-generator required, PIC16F1509 Definitions
    98                           ; 
    99                           ; SFR Addresses
   100  0000                     	;# 
   101  0001                     	;# 
   102  0002                     	;# 
   103  0003                     	;# 
   104  0004                     	;# 
   105  0005                     	;# 
   106  0006                     	;# 
   107  0007                     	;# 
   108  0008                     	;# 
   109  0009                     	;# 
   110  000A                     	;# 
   111  000B                     	;# 
   112  000C                     	;# 
   113  000D                     	;# 
   114  000E                     	;# 
   115  0011                     	;# 
   116  0012                     	;# 
   117  0013                     	;# 
   118  0015                     	;# 
   119  0016                     	;# 
   120  0016                     	;# 
   121  0017                     	;# 
   122  0018                     	;# 
   123  0019                     	;# 
   124  001A                     	;# 
   125  001B                     	;# 
   126  001C                     	;# 
   127  008C                     	;# 
   128  008D                     	;# 
   129  008E                     	;# 
   130  0091                     	;# 
   131  0092                     	;# 
   132  0093                     	;# 
   133  0095                     	;# 
   134  0096                     	;# 
   135  0097                     	;# 
   136  0099                     	;# 
   137  009A                     	;# 
   138  009B                     	;# 
   139  009B                     	;# 
   140  009C                     	;# 
   141  009D                     	;# 
   142  009E                     	;# 
   143  009F                     	;# 
   144  010C                     	;# 
   145  010D                     	;# 
   146  010E                     	;# 
   147  0111                     	;# 
   148  0112                     	;# 
   149  0113                     	;# 
   150  0114                     	;# 
   151  0115                     	;# 
   152  0116                     	;# 
   153  0117                     	;# 
   154  0118                     	;# 
   155  0119                     	;# 
   156  011D                     	;# 
   157  018C                     	;# 
   158  018D                     	;# 
   159  018E                     	;# 
   160  0191                     	;# 
   161  0191                     	;# 
   162  0192                     	;# 
   163  0193                     	;# 
   164  0193                     	;# 
   165  0194                     	;# 
   166  0195                     	;# 
   167  0196                     	;# 
   168  0197                     	;# 
   169  0199                     	;# 
   170  019A                     	;# 
   171  019B                     	;# 
   172  019B                     	;# 
   173  019C                     	;# 
   174  019D                     	;# 
   175  019E                     	;# 
   176  019F                     	;# 
   177  020C                     	;# 
   178  020D                     	;# 
   179  0211                     	;# 
   180  0211                     	;# 
   181  0212                     	;# 
   182  0212                     	;# 
   183  0213                     	;# 
   184  0213                     	;# 
   185  0214                     	;# 
   186  0214                     	;# 
   187  0215                     	;# 
   188  0215                     	;# 
   189  0215                     	;# 
   190  0216                     	;# 
   191  0216                     	;# 
   192  0217                     	;# 
   193  0217                     	;# 
   194  0391                     	;# 
   195  0392                     	;# 
   196  0393                     	;# 
   197  0394                     	;# 
   198  0395                     	;# 
   199  0396                     	;# 
   200  0498                     	;# 
   201  0498                     	;# 
   202  0499                     	;# 
   203  049A                     	;# 
   204  049B                     	;# 
   205  049B                     	;# 
   206  049C                     	;# 
   207  049D                     	;# 
   208  049E                     	;# 
   209  049F                     	;# 
   210  0611                     	;# 
   211  0612                     	;# 
   212  0613                     	;# 
   213  0613                     	;# 
   214  0614                     	;# 
   215  0615                     	;# 
   216  0616                     	;# 
   217  0616                     	;# 
   218  0617                     	;# 
   219  0618                     	;# 
   220  0619                     	;# 
   221  0619                     	;# 
   222  061A                     	;# 
   223  061B                     	;# 
   224  061C                     	;# 
   225  061C                     	;# 
   226  0691                     	;# 
   227  0692                     	;# 
   228  0693                     	;# 
   229  0694                     	;# 
   230  0695                     	;# 
   231  0F0F                     	;# 
   232  0F10                     	;# 
   233  0F11                     	;# 
   234  0F12                     	;# 
   235  0F13                     	;# 
   236  0F14                     	;# 
   237  0F15                     	;# 
   238  0F16                     	;# 
   239  0F17                     	;# 
   240  0F18                     	;# 
   241  0F19                     	;# 
   242  0F1A                     	;# 
   243  0F1B                     	;# 
   244  0F1C                     	;# 
   245  0F1D                     	;# 
   246  0F1E                     	;# 
   247  0F1F                     	;# 
   248  0F20                     	;# 
   249  0F21                     	;# 
   250  0F22                     	;# 
   251  0F23                     	;# 
   252  0F24                     	;# 
   253  0F25                     	;# 
   254  0F26                     	;# 
   255  0F27                     	;# 
   256  0F28                     	;# 
   257  0F29                     	;# 
   258  0F2A                     	;# 
   259  0F2B                     	;# 
   260  0F2C                     	;# 
   261  0F2D                     	;# 
   262  0F2E                     	;# 
   263  0F2F                     	;# 
   264  0F8C                     	;# 
   265  0F8D                     	;# 
   266  0F91                     	;# 
   267  0F95                     	;# 
   268  0F96                     	;# 
   269  0F97                     	;# 
   270  0F9C                     	;# 
   271  0F9D                     	;# 
   272  0F9E                     	;# 
   273  0FE3                     	;# 
   274  0FE4                     	;# 
   275  0FE5                     	;# 
   276  0FE6                     	;# 
   277  0FE7                     	;# 
   278  0FE8                     	;# 
   279  0FE9                     	;# 
   280  0FEA                     	;# 
   281  0FEB                     	;# 
   282  0FED                     	;# 
   283  0FEE                     	;# 
   284  0FEF                     	;# 
   285  0000                     	;# 
   286  0001                     	;# 
   287  0002                     	;# 
   288  0003                     	;# 
   289  0004                     	;# 
   290  0005                     	;# 
   291  0006                     	;# 
   292  0007                     	;# 
   293  0008                     	;# 
   294  0009                     	;# 
   295  000A                     	;# 
   296  000B                     	;# 
   297  000C                     	;# 
   298  000D                     	;# 
   299  000E                     	;# 
   300  0011                     	;# 
   301  0012                     	;# 
   302  0013                     	;# 
   303  0015                     	;# 
   304  0016                     	;# 
   305  0016                     	;# 
   306  0017                     	;# 
   307  0018                     	;# 
   308  0019                     	;# 
   309  001A                     	;# 
   310  001B                     	;# 
   311  001C                     	;# 
   312  008C                     	;# 
   313  008D                     	;# 
   314  008E                     	;# 
   315  0091                     	;# 
   316  0092                     	;# 
   317  0093                     	;# 
   318  0095                     	;# 
   319  0096                     	;# 
   320  0097                     	;# 
   321  0099                     	;# 
   322  009A                     	;# 
   323  009B                     	;# 
   324  009B                     	;# 
   325  009C                     	;# 
   326  009D                     	;# 
   327  009E                     	;# 
   328  009F                     	;# 
   329  010C                     	;# 
   330  010D                     	;# 
   331  010E                     	;# 
   332  0111                     	;# 
   333  0112                     	;# 
   334  0113                     	;# 
   335  0114                     	;# 
   336  0115                     	;# 
   337  0116                     	;# 
   338  0117                     	;# 
   339  0118                     	;# 
   340  0119                     	;# 
   341  011D                     	;# 
   342  018C                     	;# 
   343  018D                     	;# 
   344  018E                     	;# 
   345  0191                     	;# 
   346  0191                     	;# 
   347  0192                     	;# 
   348  0193                     	;# 
   349  0193                     	;# 
   350  0194                     	;# 
   351  0195                     	;# 
   352  0196                     	;# 
   353  0197                     	;# 
   354  0199                     	;# 
   355  019A                     	;# 
   356  019B                     	;# 
   357  019B                     	;# 
   358  019C                     	;# 
   359  019D                     	;# 
   360  019E                     	;# 
   361  019F                     	;# 
   362  020C                     	;# 
   363  020D                     	;# 
   364  0211                     	;# 
   365  0211                     	;# 
   366  0212                     	;# 
   367  0212                     	;# 
   368  0213                     	;# 
   369  0213                     	;# 
   370  0214                     	;# 
   371  0214                     	;# 
   372  0215                     	;# 
   373  0215                     	;# 
   374  0215                     	;# 
   375  0216                     	;# 
   376  0216                     	;# 
   377  0217                     	;# 
   378  0217                     	;# 
   379  0391                     	;# 
   380  0392                     	;# 
   381  0393                     	;# 
   382  0394                     	;# 
   383  0395                     	;# 
   384  0396                     	;# 
   385  0498                     	;# 
   386  0498                     	;# 
   387  0499                     	;# 
   388  049A                     	;# 
   389  049B                     	;# 
   390  049B                     	;# 
   391  049C                     	;# 
   392  049D                     	;# 
   393  049E                     	;# 
   394  049F                     	;# 
   395  0611                     	;# 
   396  0612                     	;# 
   397  0613                     	;# 
   398  0613                     	;# 
   399  0614                     	;# 
   400  0615                     	;# 
   401  0616                     	;# 
   402  0616                     	;# 
   403  0617                     	;# 
   404  0618                     	;# 
   405  0619                     	;# 
   406  0619                     	;# 
   407  061A                     	;# 
   408  061B                     	;# 
   409  061C                     	;# 
   410  061C                     	;# 
   411  0691                     	;# 
   412  0692                     	;# 
   413  0693                     	;# 
   414  0694                     	;# 
   415  0695                     	;# 
   416  0F0F                     	;# 
   417  0F10                     	;# 
   418  0F11                     	;# 
   419  0F12                     	;# 
   420  0F13                     	;# 
   421  0F14                     	;# 
   422  0F15                     	;# 
   423  0F16                     	;# 
   424  0F17                     	;# 
   425  0F18                     	;# 
   426  0F19                     	;# 
   427  0F1A                     	;# 
   428  0F1B                     	;# 
   429  0F1C                     	;# 
   430  0F1D                     	;# 
   431  0F1E                     	;# 
   432  0F1F                     	;# 
   433  0F20                     	;# 
   434  0F21                     	;# 
   435  0F22                     	;# 
   436  0F23                     	;# 
   437  0F24                     	;# 
   438  0F25                     	;# 
   439  0F26                     	;# 
   440  0F27                     	;# 
   441  0F28                     	;# 
   442  0F29                     	;# 
   443  0F2A                     	;# 
   444  0F2B                     	;# 
   445  0F2C                     	;# 
   446  0F2D                     	;# 
   447  0F2E                     	;# 
   448  0F2F                     	;# 
   449  0F8C                     	;# 
   450  0F8D                     	;# 
   451  0F91                     	;# 
   452  0F95                     	;# 
   453  0F96                     	;# 
   454  0F97                     	;# 
   455  0F9C                     	;# 
   456  0F9D                     	;# 
   457  0F9E                     	;# 
   458  0FE3                     	;# 
   459  0FE4                     	;# 
   460  0FE5                     	;# 
   461  0FE6                     	;# 
   462  0FE7                     	;# 
   463  0FE8                     	;# 
   464  0FE9                     	;# 
   465  0FEA                     	;# 
   466  0FEB                     	;# 
   467  0FED                     	;# 
   468  0FEE                     	;# 
   469  0FEF                     	;# 
   470  0000                     	;# 
   471  0001                     	;# 
   472  0002                     	;# 
   473  0003                     	;# 
   474  0004                     	;# 
   475  0005                     	;# 
   476  0006                     	;# 
   477  0007                     	;# 
   478  0008                     	;# 
   479  0009                     	;# 
   480  000A                     	;# 
   481  000B                     	;# 
   482  000C                     	;# 
   483  000D                     	;# 
   484  000E                     	;# 
   485  0011                     	;# 
   486  0012                     	;# 
   487  0013                     	;# 
   488  0015                     	;# 
   489  0016                     	;# 
   490  0016                     	;# 
   491  0017                     	;# 
   492  0018                     	;# 
   493  0019                     	;# 
   494  001A                     	;# 
   495  001B                     	;# 
   496  001C                     	;# 
   497  008C                     	;# 
   498  008D                     	;# 
   499  008E                     	;# 
   500  0091                     	;# 
   501  0092                     	;# 
   502  0093                     	;# 
   503  0095                     	;# 
   504  0096                     	;# 
   505  0097                     	;# 
   506  0099                     	;# 
   507  009A                     	;# 
   508  009B                     	;# 
   509  009B                     	;# 
   510  009C                     	;# 
   511  009D                     	;# 
   512  009E                     	;# 
   513  009F                     	;# 
   514  010C                     	;# 
   515  010D                     	;# 
   516  010E                     	;# 
   517  0111                     	;# 
   518  0112                     	;# 
   519  0113                     	;# 
   520  0114                     	;# 
   521  0115                     	;# 
   522  0116                     	;# 
   523  0117                     	;# 
   524  0118                     	;# 
   525  0119                     	;# 
   526  011D                     	;# 
   527  018C                     	;# 
   528  018D                     	;# 
   529  018E                     	;# 
   530  0191                     	;# 
   531  0191                     	;# 
   532  0192                     	;# 
   533  0193                     	;# 
   534  0193                     	;# 
   535  0194                     	;# 
   536  0195                     	;# 
   537  0196                     	;# 
   538  0197                     	;# 
   539  0199                     	;# 
   540  019A                     	;# 
   541  019B                     	;# 
   542  019B                     	;# 
   543  019C                     	;# 
   544  019D                     	;# 
   545  019E                     	;# 
   546  019F                     	;# 
   547  020C                     	;# 
   548  020D                     	;# 
   549  0211                     	;# 
   550  0211                     	;# 
   551  0212                     	;# 
   552  0212                     	;# 
   553  0213                     	;# 
   554  0213                     	;# 
   555  0214                     	;# 
   556  0214                     	;# 
   557  0215                     	;# 
   558  0215                     	;# 
   559  0215                     	;# 
   560  0216                     	;# 
   561  0216                     	;# 
   562  0217                     	;# 
   563  0217                     	;# 
   564  0391                     	;# 
   565  0392                     	;# 
   566  0393                     	;# 
   567  0394                     	;# 
   568  0395                     	;# 
   569  0396                     	;# 
   570  0498                     	;# 
   571  0498                     	;# 
   572  0499                     	;# 
   573  049A                     	;# 
   574  049B                     	;# 
   575  049B                     	;# 
   576  049C                     	;# 
   577  049D                     	;# 
   578  049E                     	;# 
   579  049F                     	;# 
   580  0611                     	;# 
   581  0612                     	;# 
   582  0613                     	;# 
   583  0613                     	;# 
   584  0614                     	;# 
   585  0615                     	;# 
   586  0616                     	;# 
   587  0616                     	;# 
   588  0617                     	;# 
   589  0618                     	;# 
   590  0619                     	;# 
   591  0619                     	;# 
   592  061A                     	;# 
   593  061B                     	;# 
   594  061C                     	;# 
   595  061C                     	;# 
   596  0691                     	;# 
   597  0692                     	;# 
   598  0693                     	;# 
   599  0694                     	;# 
   600  0695                     	;# 
   601  0F0F                     	;# 
   602  0F10                     	;# 
   603  0F11                     	;# 
   604  0F12                     	;# 
   605  0F13                     	;# 
   606  0F14                     	;# 
   607  0F15                     	;# 
   608  0F16                     	;# 
   609  0F17                     	;# 
   610  0F18                     	;# 
   611  0F19                     	;# 
   612  0F1A                     	;# 
   613  0F1B                     	;# 
   614  0F1C                     	;# 
   615  0F1D                     	;# 
   616  0F1E                     	;# 
   617  0F1F                     	;# 
   618  0F20                     	;# 
   619  0F21                     	;# 
   620  0F22                     	;# 
   621  0F23                     	;# 
   622  0F24                     	;# 
   623  0F25                     	;# 
   624  0F26                     	;# 
   625  0F27                     	;# 
   626  0F28                     	;# 
   627  0F29                     	;# 
   628  0F2A                     	;# 
   629  0F2B                     	;# 
   630  0F2C                     	;# 
   631  0F2D                     	;# 
   632  0F2E                     	;# 
   633  0F2F                     	;# 
   634  0F8C                     	;# 
   635  0F8D                     	;# 
   636  0F91                     	;# 
   637  0F95                     	;# 
   638  0F96                     	;# 
   639  0F97                     	;# 
   640  0F9C                     	;# 
   641  0F9D                     	;# 
   642  0F9E                     	;# 
   643  0FE3                     	;# 
   644  0FE4                     	;# 
   645  0FE5                     	;# 
   646  0FE6                     	;# 
   647  0FE7                     	;# 
   648  0FE8                     	;# 
   649  0FE9                     	;# 
   650  0FEA                     	;# 
   651  0FEB                     	;# 
   652  0FED                     	;# 
   653  0FEE                     	;# 
   654  0FEF                     	;# 
   655  0000                     	;# 
   656  0001                     	;# 
   657  0002                     	;# 
   658  0003                     	;# 
   659  0004                     	;# 
   660  0005                     	;# 
   661  0006                     	;# 
   662  0007                     	;# 
   663  0008                     	;# 
   664  0009                     	;# 
   665  000A                     	;# 
   666  000B                     	;# 
   667  000C                     	;# 
   668  000D                     	;# 
   669  000E                     	;# 
   670  0011                     	;# 
   671  0012                     	;# 
   672  0013                     	;# 
   673  0015                     	;# 
   674  0016                     	;# 
   675  0016                     	;# 
   676  0017                     	;# 
   677  0018                     	;# 
   678  0019                     	;# 
   679  001A                     	;# 
   680  001B                     	;# 
   681  001C                     	;# 
   682  008C                     	;# 
   683  008D                     	;# 
   684  008E                     	;# 
   685  0091                     	;# 
   686  0092                     	;# 
   687  0093                     	;# 
   688  0095                     	;# 
   689  0096                     	;# 
   690  0097                     	;# 
   691  0099                     	;# 
   692  009A                     	;# 
   693  009B                     	;# 
   694  009B                     	;# 
   695  009C                     	;# 
   696  009D                     	;# 
   697  009E                     	;# 
   698  009F                     	;# 
   699  010C                     	;# 
   700  010D                     	;# 
   701  010E                     	;# 
   702  0111                     	;# 
   703  0112                     	;# 
   704  0113                     	;# 
   705  0114                     	;# 
   706  0115                     	;# 
   707  0116                     	;# 
   708  0117                     	;# 
   709  0118                     	;# 
   710  0119                     	;# 
   711  011D                     	;# 
   712  018C                     	;# 
   713  018D                     	;# 
   714  018E                     	;# 
   715  0191                     	;# 
   716  0191                     	;# 
   717  0192                     	;# 
   718  0193                     	;# 
   719  0193                     	;# 
   720  0194                     	;# 
   721  0195                     	;# 
   722  0196                     	;# 
   723  0197                     	;# 
   724  0199                     	;# 
   725  019A                     	;# 
   726  019B                     	;# 
   727  019B                     	;# 
   728  019C                     	;# 
   729  019D                     	;# 
   730  019E                     	;# 
   731  019F                     	;# 
   732  020C                     	;# 
   733  020D                     	;# 
   734  0211                     	;# 
   735  0211                     	;# 
   736  0212                     	;# 
   737  0212                     	;# 
   738  0213                     	;# 
   739  0213                     	;# 
   740  0214                     	;# 
   741  0214                     	;# 
   742  0215                     	;# 
   743  0215                     	;# 
   744  0215                     	;# 
   745  0216                     	;# 
   746  0216                     	;# 
   747  0217                     	;# 
   748  0217                     	;# 
   749  0391                     	;# 
   750  0392                     	;# 
   751  0393                     	;# 
   752  0394                     	;# 
   753  0395                     	;# 
   754  0396                     	;# 
   755  0498                     	;# 
   756  0498                     	;# 
   757  0499                     	;# 
   758  049A                     	;# 
   759  049B                     	;# 
   760  049B                     	;# 
   761  049C                     	;# 
   762  049D                     	;# 
   763  049E                     	;# 
   764  049F                     	;# 
   765  0611                     	;# 
   766  0612                     	;# 
   767  0613                     	;# 
   768  0613                     	;# 
   769  0614                     	;# 
   770  0615                     	;# 
   771  0616                     	;# 
   772  0616                     	;# 
   773  0617                     	;# 
   774  0618                     	;# 
   775  0619                     	;# 
   776  0619                     	;# 
   777  061A                     	;# 
   778  061B                     	;# 
   779  061C                     	;# 
   780  061C                     	;# 
   781  0691                     	;# 
   782  0692                     	;# 
   783  0693                     	;# 
   784  0694                     	;# 
   785  0695                     	;# 
   786  0F0F                     	;# 
   787  0F10                     	;# 
   788  0F11                     	;# 
   789  0F12                     	;# 
   790  0F13                     	;# 
   791  0F14                     	;# 
   792  0F15                     	;# 
   793  0F16                     	;# 
   794  0F17                     	;# 
   795  0F18                     	;# 
   796  0F19                     	;# 
   797  0F1A                     	;# 
   798  0F1B                     	;# 
   799  0F1C                     	;# 
   800  0F1D                     	;# 
   801  0F1E                     	;# 
   802  0F1F                     	;# 
   803  0F20                     	;# 
   804  0F21                     	;# 
   805  0F22                     	;# 
   806  0F23                     	;# 
   807  0F24                     	;# 
   808  0F25                     	;# 
   809  0F26                     	;# 
   810  0F27                     	;# 
   811  0F28                     	;# 
   812  0F29                     	;# 
   813  0F2A                     	;# 
   814  0F2B                     	;# 
   815  0F2C                     	;# 
   816  0F2D                     	;# 
   817  0F2E                     	;# 
   818  0F2F                     	;# 
   819  0F8C                     	;# 
   820  0F8D                     	;# 
   821  0F91                     	;# 
   822  0F95                     	;# 
   823  0F96                     	;# 
   824  0F97                     	;# 
   825  0F9C                     	;# 
   826  0F9D                     	;# 
   827  0F9E                     	;# 
   828  0FE3                     	;# 
   829  0FE4                     	;# 
   830  0FE5                     	;# 
   831  0FE6                     	;# 
   832  0FE7                     	;# 
   833  0FE8                     	;# 
   834  0FE9                     	;# 
   835  0FEA                     	;# 
   836  0FEB                     	;# 
   837  0FED                     	;# 
   838  0FEE                     	;# 
   839  0FEF                     	;_CircularBuffer
   840                           
   841                           	psect	stringtext1
   842  0292                     __pstringtext1:
   843  0292                     _gamma:
   844  0292  3400               	retlw	0
   845  0293  3400               	retlw	0
   846  0294  3400               	retlw	0
   847  0295  3400               	retlw	0
   848  0296  3400               	retlw	0
   849  0297  3400               	retlw	0
   850  0298  3400               	retlw	0
   851  0299  3400               	retlw	0
   852  029A  3400               	retlw	0
   853  029B  3400               	retlw	0
   854  029C  3400               	retlw	0
   855  029D  3400               	retlw	0
   856  029E  3401               	retlw	1
   857  029F  3400               	retlw	0
   858  02A0  3401               	retlw	1
   859  02A1  3400               	retlw	0
   860  02A2  3401               	retlw	1
   861  02A3  3400               	retlw	0
   862  02A4  3401               	retlw	1
   863  02A5  3400               	retlw	0
   864  02A6  3402               	retlw	2
   865  02A7  3400               	retlw	0
   866  02A8  3402               	retlw	2
   867  02A9  3400               	retlw	0
   868  02AA  3402               	retlw	2
   869  02AB  3400               	retlw	0
   870  02AC  3403               	retlw	3
   871  02AD  3400               	retlw	0
   872  02AE  3403               	retlw	3
   873  02AF  3400               	retlw	0
   874  02B0  3404               	retlw	4
   875  02B1  3400               	retlw	0
   876  02B2  3404               	retlw	4
   877  02B3  3400               	retlw	0
   878  02B4  3405               	retlw	5
   879  02B5  3400               	retlw	0
   880  02B6  3405               	retlw	5
   881  02B7  3400               	retlw	0
   882  02B8  3406               	retlw	6
   883  02B9  3400               	retlw	0
   884  02BA  3406               	retlw	6
   885  02BB  3400               	retlw	0
   886  02BC  3407               	retlw	7
   887  02BD  3400               	retlw	0
   888  02BE  3408               	retlw	8
   889  02BF  3400               	retlw	0
   890  02C0  3408               	retlw	8
   891  02C1  3400               	retlw	0
   892  02C2  3409               	retlw	9
   893  02C3  3400               	retlw	0
   894  02C4  340A               	retlw	10
   895  02C5  3400               	retlw	0
   896  02C6  340B               	retlw	11
   897  02C7  3400               	retlw	0
   898  02C8  340B               	retlw	11
   899  02C9  3400               	retlw	0
   900  02CA  340C               	retlw	12
   901  02CB  3400               	retlw	0
   902  02CC  340D               	retlw	13
   903  02CD  3400               	retlw	0
   904  02CE  340E               	retlw	14
   905  02CF  3400               	retlw	0
   906  02D0  340F               	retlw	15
   907  02D1  3400               	retlw	0
   908  02D2  3410               	retlw	16
   909  02D3  3400               	retlw	0
   910  02D4  3411               	retlw	17
   911  02D5  3400               	retlw	0
   912  02D6  3412               	retlw	18
   913  02D7  3400               	retlw	0
   914  02D8  3413               	retlw	19
   915  02D9  3400               	retlw	0
   916  02DA  3414               	retlw	20
   917  02DB  3400               	retlw	0
   918  02DC  3416               	retlw	22
   919  02DD  3400               	retlw	0
   920  02DE  3417               	retlw	23
   921  02DF  3400               	retlw	0
   922  02E0  3418               	retlw	24
   923  02E1  3400               	retlw	0
   924  02E2  3419               	retlw	25
   925  02E3  3400               	retlw	0
   926  02E4  341A               	retlw	26
   927  02E5  3400               	retlw	0
   928  02E6  341C               	retlw	28
   929  02E7  3400               	retlw	0
   930  02E8  341D               	retlw	29
   931  02E9  3400               	retlw	0
   932  02EA  341E               	retlw	30
   933  02EB  3400               	retlw	0
   934  02EC  3420               	retlw	32
   935  02ED  3400               	retlw	0
   936  02EE  3421               	retlw	33
   937  02EF  3400               	retlw	0
   938  02F0  3423               	retlw	35
   939  02F1  3400               	retlw	0
   940  02F2  3424               	retlw	36
   941  02F3  3400               	retlw	0
   942  02F4  3426               	retlw	38
   943  02F5  3400               	retlw	0
   944  02F6  3427               	retlw	39
   945  02F7  3400               	retlw	0
   946  02F8  3429               	retlw	41
   947  02F9  3400               	retlw	0
   948  02FA  342B               	retlw	43
   949  02FB  3400               	retlw	0
   950  02FC  342C               	retlw	44
   951  02FD  3400               	retlw	0
   952  02FE  342E               	retlw	46
   953  02FF  3400               	retlw	0
   954  0300  3430               	retlw	48
   955  0301  3400               	retlw	0
   956  0302  3431               	retlw	49
   957  0303  3400               	retlw	0
   958  0304  3433               	retlw	51
   959  0305  3400               	retlw	0
   960  0306  3435               	retlw	53
   961  0307  3400               	retlw	0
   962  0308  3437               	retlw	55
   963  0309  3400               	retlw	0
   964  030A  3439               	retlw	57
   965  030B  3400               	retlw	0
   966  030C  343B               	retlw	59
   967  030D  3400               	retlw	0
   968  030E  343C               	retlw	60
   969  030F  3400               	retlw	0
   970  0310  343E               	retlw	62
   971  0311  3400               	retlw	0
   972  0312  3440               	retlw	64
   973  0313  3400               	retlw	0
   974  0314  3442               	retlw	66
   975  0315  3400               	retlw	0
   976  0316  3445               	retlw	69
   977  0317  3400               	retlw	0
   978  0318  3447               	retlw	71
   979  0319  3400               	retlw	0
   980  031A  3449               	retlw	73
   981  031B  3400               	retlw	0
   982  031C  344B               	retlw	75
   983  031D  3400               	retlw	0
   984  031E  344D               	retlw	77
   985  031F  3400               	retlw	0
   986  0320  344F               	retlw	79
   987  0321  3400               	retlw	0
   988  0322  3452               	retlw	82
   989  0323  3400               	retlw	0
   990  0324  3454               	retlw	84
   991  0325  3400               	retlw	0
   992  0326  3456               	retlw	86
   993  0327  3400               	retlw	0
   994  0328  3458               	retlw	88
   995  0329  3400               	retlw	0
   996  032A  345B               	retlw	91
   997  032B  3400               	retlw	0
   998  032C  345D               	retlw	93
   999  032D  3400               	retlw	0
  1000  032E  3460               	retlw	96
  1001  032F  3400               	retlw	0
  1002  0330  3462               	retlw	98
  1003  0331  3400               	retlw	0
  1004  0332  3465               	retlw	101
  1005  0333  3400               	retlw	0
  1006  0334  3467               	retlw	103
  1007  0335  3400               	retlw	0
  1008  0336  346A               	retlw	106
  1009  0337  3400               	retlw	0
  1010  0338  346C               	retlw	108
  1011  0339  3400               	retlw	0
  1012  033A  346F               	retlw	111
  1013  033B  3400               	retlw	0
  1014  033C  3472               	retlw	114
  1015  033D  3400               	retlw	0
  1016  033E  3474               	retlw	116
  1017  033F  3400               	retlw	0
  1018  0340  3477               	retlw	119
  1019  0341  3400               	retlw	0
  1020  0342  347A               	retlw	122
  1021  0343  3400               	retlw	0
  1022  0344  347D               	retlw	125
  1023  0345  3400               	retlw	0
  1024  0346  347F               	retlw	127
  1025  0347  3400               	retlw	0
  1026  0348  3482               	retlw	130
  1027  0349  3400               	retlw	0
  1028  034A  3485               	retlw	133
  1029  034B  3400               	retlw	0
  1030  034C  3488               	retlw	136
  1031  034D  3400               	retlw	0
  1032  034E  348B               	retlw	139
  1033  034F  3400               	retlw	0
  1034  0350  348E               	retlw	142
  1035  0351  3400               	retlw	0
  1036  0352  3491               	retlw	145
  1037  0353  3400               	retlw	0
  1038  0354  3494               	retlw	148
  1039  0355  3400               	retlw	0
  1040  0356  3497               	retlw	151
  1041  0357  3400               	retlw	0
  1042  0358  349A               	retlw	154
  1043  0359  3400               	retlw	0
  1044  035A  349D               	retlw	157
  1045  035B  3400               	retlw	0
  1046  035C  34A0               	retlw	160
  1047  035D  3400               	retlw	0
  1048  035E  34A4               	retlw	164
  1049  035F  3400               	retlw	0
  1050  0360  34A7               	retlw	167
  1051  0361  3400               	retlw	0
  1052  0362  34AA               	retlw	170
  1053  0363  3400               	retlw	0
  1054  0364  34AD               	retlw	173
  1055  0365  3400               	retlw	0
  1056  0366  34B1               	retlw	177
  1057  0367  3400               	retlw	0
  1058  0368  34B4               	retlw	180
  1059  0369  3400               	retlw	0
  1060  036A  34B8               	retlw	184
  1061  036B  3400               	retlw	0
  1062  036C  34BB               	retlw	187
  1063  036D  3400               	retlw	0
  1064  036E  34BE               	retlw	190
  1065  036F  3400               	retlw	0
  1066  0370  34C2               	retlw	194
  1067  0371  3400               	retlw	0
  1068  0372  34C5               	retlw	197
  1069  0373  3400               	retlw	0
  1070  0374  34C9               	retlw	201
  1071  0375  3400               	retlw	0
  1072  0376  34CC               	retlw	204
  1073  0377  3400               	retlw	0
  1074  0378  34D0               	retlw	208
  1075  0379  3400               	retlw	0
  1076  037A  34D4               	retlw	212
  1077  037B  3400               	retlw	0
  1078  037C  34D7               	retlw	215
  1079  037D  3400               	retlw	0
  1080  037E  34DB               	retlw	219
  1081  037F  3400               	retlw	0
  1082  0380  34DF               	retlw	223
  1083  0381  3400               	retlw	0
  1084  0382  34E3               	retlw	227
  1085  0383  3400               	retlw	0
  1086  0384  34E6               	retlw	230
  1087  0385  3400               	retlw	0
  1088  0386  34EA               	retlw	234
  1089  0387  3400               	retlw	0
  1090  0388  34EE               	retlw	238
  1091  0389  3400               	retlw	0
  1092  038A  34F2               	retlw	242
  1093  038B  3400               	retlw	0
  1094  038C  34F6               	retlw	246
  1095  038D  3400               	retlw	0
  1096  038E  34FA               	retlw	250
  1097  038F  3400               	retlw	0
  1098  0390  34FE               	retlw	254
  1099  0391  3400               	retlw	0
  1100  0392  3402               	retlw	2
  1101  0393  3401               	retlw	1
  1102  0394  3406               	retlw	6
  1103  0395  3401               	retlw	1
  1104  0396  340A               	retlw	10
  1105  0397  3401               	retlw	1
  1106  0398  340E               	retlw	14
  1107  0399  3401               	retlw	1
  1108  039A  3412               	retlw	18
  1109  039B  3401               	retlw	1
  1110  039C  3416               	retlw	22
  1111  039D  3401               	retlw	1
  1112  039E  341A               	retlw	26
  1113  039F  3401               	retlw	1
  1114  03A0  341F               	retlw	31
  1115  03A1  3401               	retlw	1
  1116  03A2  3423               	retlw	35
  1117  03A3  3401               	retlw	1
  1118  03A4  3427               	retlw	39
  1119  03A5  3401               	retlw	1
  1120  03A6  342C               	retlw	44
  1121  03A7  3401               	retlw	1
  1122  03A8  3430               	retlw	48
  1123  03A9  3401               	retlw	1
  1124  03AA  3434               	retlw	52
  1125  03AB  3401               	retlw	1
  1126  03AC  3439               	retlw	57
  1127  03AD  3401               	retlw	1
  1128  03AE  343D               	retlw	61
  1129  03AF  3401               	retlw	1
  1130  03B0  3442               	retlw	66
  1131  03B1  3401               	retlw	1
  1132  03B2  3446               	retlw	70
  1133  03B3  3401               	retlw	1
  1134  03B4  344B               	retlw	75
  1135  03B5  3401               	retlw	1
  1136  03B6  344F               	retlw	79
  1137  03B7  3401               	retlw	1
  1138  03B8  3454               	retlw	84
  1139  03B9  3401               	retlw	1
  1140  03BA  3459               	retlw	89
  1141  03BB  3401               	retlw	1
  1142  03BC  345D               	retlw	93
  1143  03BD  3401               	retlw	1
  1144  03BE  3462               	retlw	98
  1145  03BF  3401               	retlw	1
  1146  03C0  3467               	retlw	103
  1147  03C1  3401               	retlw	1
  1148  03C2  346B               	retlw	107
  1149  03C3  3401               	retlw	1
  1150  03C4  3470               	retlw	112
  1151  03C5  3401               	retlw	1
  1152  03C6  3475               	retlw	117
  1153  03C7  3401               	retlw	1
  1154  03C8  347A               	retlw	122
  1155  03C9  3401               	retlw	1
  1156  03CA  347F               	retlw	127
  1157  03CB  3401               	retlw	1
  1158  03CC  3484               	retlw	132
  1159  03CD  3401               	retlw	1
  1160  03CE  3489               	retlw	137
  1161  03CF  3401               	retlw	1
  1162  03D0  348E               	retlw	142
  1163  03D1  3401               	retlw	1
  1164  03D2  3493               	retlw	147
  1165  03D3  3401               	retlw	1
  1166  03D4  3498               	retlw	152
  1167  03D5  3401               	retlw	1
  1168  03D6  349D               	retlw	157
  1169  03D7  3401               	retlw	1
  1170  03D8  34A2               	retlw	162
  1171  03D9  3401               	retlw	1
  1172  03DA  34A7               	retlw	167
  1173  03DB  3401               	retlw	1
  1174  03DC  34AC               	retlw	172
  1175  03DD  3401               	retlw	1
  1176  03DE  34B2               	retlw	178
  1177  03DF  3401               	retlw	1
  1178  03E0  34B7               	retlw	183
  1179  03E1  3401               	retlw	1
  1180  03E2  34BC               	retlw	188
  1181  03E3  3401               	retlw	1
  1182  03E4  34C1               	retlw	193
  1183  03E5  3401               	retlw	1
  1184  03E6  34C7               	retlw	199
  1185  03E7  3401               	retlw	1
  1186  03E8  34CC               	retlw	204
  1187  03E9  3401               	retlw	1
  1188  03EA  34D1               	retlw	209
  1189  03EB  3401               	retlw	1
  1190  03EC  34D7               	retlw	215
  1191  03ED  3401               	retlw	1
  1192  03EE  34DC               	retlw	220
  1193  03EF  3401               	retlw	1
  1194  03F0  34E2               	retlw	226
  1195  03F1  3401               	retlw	1
  1196  03F2  34E7               	retlw	231
  1197  03F3  3401               	retlw	1
  1198  03F4  34ED               	retlw	237
  1199  03F5  3401               	retlw	1
  1200  03F6  34F2               	retlw	242
  1201  03F7  3401               	retlw	1
  1202  03F8  34F8               	retlw	248
  1203  03F9  3401               	retlw	1
  1204  03FA  34FE               	retlw	254
  1205  03FB  3401               	retlw	1
  1206  03FC  3403               	retlw	3
  1207  03FD  3402               	retlw	2
  1208  03FE  3409               	retlw	9
  1209  03FF  3402               	retlw	2
  1210  0400  340F               	retlw	15
  1211  0401  3402               	retlw	2
  1212  0402  3415               	retlw	21
  1213  0403  3402               	retlw	2
  1214  0404  341A               	retlw	26
  1215  0405  3402               	retlw	2
  1216  0406  3420               	retlw	32
  1217  0407  3402               	retlw	2
  1218  0408  3426               	retlw	38
  1219  0409  3402               	retlw	2
  1220  040A  342C               	retlw	44
  1221  040B  3402               	retlw	2
  1222  040C  3432               	retlw	50
  1223  040D  3402               	retlw	2
  1224  040E  3438               	retlw	56
  1225  040F  3402               	retlw	2
  1226  0410  343E               	retlw	62
  1227  0411  3402               	retlw	2
  1228  0412  3444               	retlw	68
  1229  0413  3402               	retlw	2
  1230  0414  344A               	retlw	74
  1231  0415  3402               	retlw	2
  1232  0416  3450               	retlw	80
  1233  0417  3402               	retlw	2
  1234  0418  3456               	retlw	86
  1235  0419  3402               	retlw	2
  1236  041A  345C               	retlw	92
  1237  041B  3402               	retlw	2
  1238  041C  3463               	retlw	99
  1239  041D  3402               	retlw	2
  1240  041E  3469               	retlw	105
  1241  041F  3402               	retlw	2
  1242  0420  346F               	retlw	111
  1243  0421  3402               	retlw	2
  1244  0422  3475               	retlw	117
  1245  0423  3402               	retlw	2
  1246  0424  347C               	retlw	124
  1247  0425  3402               	retlw	2
  1248  0426  3482               	retlw	130
  1249  0427  3402               	retlw	2
  1250  0428  3488               	retlw	136
  1251  0429  3402               	retlw	2
  1252  042A  348F               	retlw	143
  1253  042B  3402               	retlw	2
  1254  042C  3495               	retlw	149
  1255  042D  3402               	retlw	2
  1256  042E  349C               	retlw	156
  1257  042F  3402               	retlw	2
  1258  0430  34A2               	retlw	162
  1259  0431  3402               	retlw	2
  1260  0432  34A9               	retlw	169
  1261  0433  3402               	retlw	2
  1262  0434  34AF               	retlw	175
  1263  0435  3402               	retlw	2
  1264  0436  34B6               	retlw	182
  1265  0437  3402               	retlw	2
  1266  0438  34BC               	retlw	188
  1267  0439  3402               	retlw	2
  1268  043A  34C3               	retlw	195
  1269  043B  3402               	retlw	2
  1270  043C  34CA               	retlw	202
  1271  043D  3402               	retlw	2
  1272  043E  34D0               	retlw	208
  1273  043F  3402               	retlw	2
  1274  0440  34D7               	retlw	215
  1275  0441  3402               	retlw	2
  1276  0442  34DE               	retlw	222
  1277  0443  3402               	retlw	2
  1278  0444  34E5               	retlw	229
  1279  0445  3402               	retlw	2
  1280  0446  34EC               	retlw	236
  1281  0447  3402               	retlw	2
  1282  0448  34F3               	retlw	243
  1283  0449  3402               	retlw	2
  1284  044A  34F9               	retlw	249
  1285  044B  3402               	retlw	2
  1286  044C  3400               	retlw	0
  1287  044D  3403               	retlw	3
  1288  044E  3407               	retlw	7
  1289  044F  3403               	retlw	3
  1290  0450  340E               	retlw	14
  1291  0451  3403               	retlw	3
  1292  0452  3415               	retlw	21
  1293  0453  3403               	retlw	3
  1294  0454  341C               	retlw	28
  1295  0455  3403               	retlw	3
  1296  0456  3424               	retlw	36
  1297  0457  3403               	retlw	3
  1298  0458  342B               	retlw	43
  1299  0459  3403               	retlw	3
  1300  045A  3432               	retlw	50
  1301  045B  3403               	retlw	3
  1302  045C  3439               	retlw	57
  1303  045D  3403               	retlw	3
  1304  045E  3440               	retlw	64
  1305  045F  3403               	retlw	3
  1306  0460  3447               	retlw	71
  1307  0461  3403               	retlw	3
  1308  0462  344F               	retlw	79
  1309  0463  3403               	retlw	3
  1310  0464  3456               	retlw	86
  1311  0465  3403               	retlw	3
  1312  0466  345D               	retlw	93
  1313  0467  3403               	retlw	3
  1314  0468  3465               	retlw	101
  1315  0469  3403               	retlw	3
  1316  046A  346C               	retlw	108
  1317  046B  3403               	retlw	3
  1318  046C  3474               	retlw	116
  1319  046D  3403               	retlw	3
  1320  046E  347B               	retlw	123
  1321  046F  3403               	retlw	3
  1322  0470  3483               	retlw	131
  1323  0471  3403               	retlw	3
  1324  0472  348A               	retlw	138
  1325  0473  3403               	retlw	3
  1326  0474  3492               	retlw	146
  1327  0475  3403               	retlw	3
  1328  0476  3499               	retlw	153
  1329  0477  3403               	retlw	3
  1330  0478  34A1               	retlw	161
  1331  0479  3403               	retlw	3
  1332  047A  34A9               	retlw	169
  1333  047B  3403               	retlw	3
  1334  047C  34B0               	retlw	176
  1335  047D  3403               	retlw	3
  1336  047E  34B8               	retlw	184
  1337  047F  3403               	retlw	3
  1338  0480  34C0               	retlw	192
  1339  0481  3403               	retlw	3
  1340  0482  34C8               	retlw	200
  1341  0483  3403               	retlw	3
  1342  0484  34CF               	retlw	207
  1343  0485  3403               	retlw	3
  1344  0486  34D7               	retlw	215
  1345  0487  3403               	retlw	3
  1346  0488  34DF               	retlw	223
  1347  0489  3403               	retlw	3
  1348  048A  34E7               	retlw	231
  1349  048B  3403               	retlw	3
  1350  048C  34EF               	retlw	239
  1351  048D  3403               	retlw	3
  1352  048E  34F7               	retlw	247
  1353  048F  3403               	retlw	3
  1354  0490  34FF               	retlw	255
  1355  0491  3403               	retlw	3
  1356  0492                     __end_of_gamma:
  1357                           
  1358                           	psect	nvBANK0
  1359  006B                     __pnvBANK0:
  1360  006B                     _p_NRF_SPI_Exchange:
  1361  006B                     	ds	2
  1362  000B                     _INTCONbits	set	11
  1363  001C                     _T2CON	set	28
  1364  001B                     _PR2	set	27
  1365  0015                     _TMR0	set	21
  1366  005A                     _TMR0IF	set	90
  1367  0095                     _OPTION_REG	set	149
  1368  008C                     _TRISA	set	140
  1369  008D                     _TRISB	set	141
  1370  008E                     _TRISC	set	142
  1371  0099                     _OSCCON	set	153
  1372  010E                     _LATCbits	set	270
  1373  018E                     _ANSELC	set	398
  1374  018D                     _ANSELB	set	397
  1375  018C                     _ANSELA	set	396
  1376  0214                     _SSP1STATbits	set	532
  1377  0211                     _SSP1BUF	set	529
  1378  0215                     _SSP1CON1	set	533
  1379  0214                     _SSP1STAT	set	532
  1380  0615                     _PWM2DCH	set	1557
  1381  0614                     _PWM2DCL	set	1556
  1382  0612                     _PWM1DCH	set	1554
  1383  0611                     _PWM1DCL	set	1553
  1384  0616                     _PWM2CON	set	1558
  1385  0613                     _PWM1CON	set	1555
  1386                           
  1387                           	psect	stringtext2
  1388  1000                     __pstringtext2:
  1389  1000                     STR_1:
  1390  1000  344E               	retlw	78	;'N'
  1391  1001  346F               	retlw	111	;'o'
  1392  1002  3464               	retlw	100	;'d'
  1393  1003  3465               	retlw	101	;'e'
  1394  1004  3430               	retlw	48	;'0'
  1395  1005  3400               	retlw	0
  1396                           
  1397                           	psect	stringtext3
  1398  0000                     __pstringtext3:
  1399                           
  1400                           	psect	cinit
  1401  0016                     start_initialization:	
  1402                           ; #config settings
  1403                           
  1404  0016                     __initialization:	;BIGRAM
  1405                           
  1406                           ; Clear objects allocated to BIGRAM
  1407  0016  30F0               	movlw	low (0+8432)
  1408  0017  0084               	movwf	4
  1409  0018  3020               	movlw	high (0+8432)
  1410  0019  0085               	movwf	5
  1411  001A  3000               	movlw	0
  1412  001B  00FE               	movwf	btemp
  1413  001C  3001               	movlw	1
  1414  001D  00FF               	movwf	btemp+1
  1415  001E  3189  2191  3180   	fcall	clear_ram0
  1416                           
  1417                           ; Clear objects allocated to BANK0
  1418  0021  305D               	movlw	low __pbssBANK0
  1419  0022  0084               	movwf	4
  1420  0023  3000               	movlw	high __pbssBANK0
  1421  0024  0085               	movwf	5
  1422  0025  300E               	movlw	14
  1423  0026  00FE               	movwf	btemp
  1424  0027  3000               	movlw	0
  1425  0028  00FF               	movwf	btemp+1
  1426  0029  3189  2191  3180   	fcall	clear_ram0
  1427                           
  1428                           ; Clear objects allocated to BANK1
  1429  002C  30A0               	movlw	low __pbssBANK1
  1430  002D  0084               	movwf	4
  1431  002E  3000               	movlw	high __pbssBANK1
  1432  002F  0085               	movwf	5
  1433  0030  303A               	movlw	58
  1434  0031  00FE               	movwf	btemp
  1435  0032  3000               	movlw	0
  1436  0033  00FF               	movwf	btemp+1
  1437  0034  3189  2191  3180   	fcall	clear_ram0
  1438  0037                     end_of_initialization:	
  1439                           ;End of C runtime variable initialization code
  1440                           
  1441  0037                     __end_of__initialization:
  1442  0037  107E               	bcf	int$flags,0	;clear compiler interrupt flag (level 1)
  1443  0038  0020               	movlb	0
  1444  0039  318E  2E11         	ljmp	_main	;jump to C main() function
  1445                           
  1446                           	psect	bssBANK0
  1447  005D                     __pbssBANK0:
  1448  005D                     _MyQueue:
  1449  005D                     	ds	6
  1450  0063                     Task_LedManager@Timeout:
  1451  0063                     	ds	2
  1452  0065                     _Click_Duration:
  1453  0065                     	ds	2
  1454  0067                     _Tick_1ms:
  1455  0067                     	ds	2
  1456  0069                     APPL_TASK_10MS@OldValue:
  1457  0069                     	ds	1
  1458  006A                     _Click:
  1459  006A                     	ds	1
  1460                           
  1461                           	psect	bssBANK1
  1462  00A0                     __pbssBANK1:
  1463  00A0                     _NFR_RxPipes:
  1464  00A0                     	ds	36
  1465  00C4                     _NRFChip:
  1466  00C4                     	ds	14
  1467  00D2                     _NRF_Payload:
  1468  00D2                     	ds	8
  1469                           
  1470                           	psect	clrtext
  1471  0991                     clear_ram0:	
  1472                           ;	Called with FSR0 containing the base address, and
  1473                           ;	btemp/btemp+1 has the size to clear
  1474                           
  1475  0991  0064               	clrwdt	;clear the watchdog before getting into this loop
  1476  0992                     clrloop0:
  1477  0992  0180               	clrf	0	;clear RAM location pointed to by FSR
  1478  0993  3101               	addfsr 0,1
  1479  0994  3001               	movlw	1
  1480  0995  02FE               	subwf	btemp,f
  1481  0996  3000               	movlw	0
  1482  0997  3BFF               	subwfb	btemp+1,f
  1483  0998  087F               	movf	btemp+1,w
  1484  0999  047E               	iorwf	btemp,w
  1485  099A  1D03               	skipz
  1486  099B  2992               	goto	clrloop0	;have we reached the end yet?
  1487  099C  3400               	retlw	0	;all done for this memory range, return
  1488                           
  1489                           	psect	cstackCOMMON
  1490  0070                     __pcstackCOMMON:
  1491  0070                     ?_MCU_Init:
  1492  0070                     ??_MCU_Init:	
  1493                           ; 1 bytes @ 0x0
  1494                           
  1495  0070                     ?_Appl_Init:	
  1496                           ; 1 bytes @ 0x0
  1497                           
  1498  0070                     ?_Task_LedManager:	
  1499                           ; 1 bytes @ 0x0
  1500                           
  1501  0070                     ??_Task_LedManager:	
  1502                           ; 1 bytes @ 0x0
  1503                           
  1504  0070                     ?_APPL_TASK_10MS:	
  1505                           ; 1 bytes @ 0x0
  1506                           
  1507  0070                     ?_NRF_Set_SPI_Handler:	
  1508                           ; 1 bytes @ 0x0
  1509                           
  1510  0070                     ?_NRF_PipeEnable:	
  1511                           ; 1 bytes @ 0x0
  1512                           
  1513  0070                     ?_NRF_PipeEnableAA:	
  1514                           ; 1 bytes @ 0x0
  1515                           
  1516  0070                     ?_NRF_GetStatus:	
  1517                           ; 1 bytes @ 0x0
  1518                           
  1519  0070                     ?_QueueInit:	
  1520                           ; 1 bytes @ 0x0
  1521                           
  1522  0070                     ??_QueueInit:	
  1523                           ; 1 bytes @ 0x0
  1524                           
  1525  0070                     ?_main:	
  1526                           ; 1 bytes @ 0x0
  1527                           
  1528  0070                     ?_NRF_SetCRCLen:	
  1529                           ; 1 bytes @ 0x0
  1530                           
  1531  0070                     ?_NRF_SetRFChannel:	
  1532                           ; 1 bytes @ 0x0
  1533                           
  1534  0070                     ?_NRF_SetRFPower:	
  1535                           ; 1 bytes @ 0x0
  1536                           
  1537  0070                     ?_NRF_SetRFDataRate:	
  1538                           ; 1 bytes @ 0x0
  1539                           
  1540  0070                     ?_NRF_SetAddrWidth:	
  1541                           ; 1 bytes @ 0x0
  1542                           
  1543  0070                     ?_NRF_StartListening:	
  1544                           ; 1 bytes @ 0x0
  1545                           
  1546  0070                     ?_NRF_Available:	
  1547                           ; 1 bytes @ 0x0
  1548                           
  1549  0070                     ?_NRF_SetMaskIRQ:	
  1550                           ; 1 bytes @ 0x0
  1551                           
  1552  0070                     ?_NRF_StatusHandler:	
  1553                           ; 1 bytes @ 0x0
  1554                           
  1555  0070                     ?_SetPWM2:	
  1556                           ; 1 bytes @ 0x0
  1557                           
  1558  0070                     ?_ISR:	
  1559                           ; 1 bytes @ 0x0
  1560                           
  1561  0070                     ??_ISR:	
  1562                           ; 1 bytes @ 0x0
  1563                           
  1564  0070                     ?_SPI_Exchange:	
  1565                           ; 1 bytes @ 0x0
  1566                           
  1567  0070                     ?_IsFull:	
  1568                           ; 1 bytes @ 0x0
  1569                           
  1570  0070                     ??_IsFull:	
  1571                           ; 1 bytes @ 0x0
  1572                           
  1573  0070                     ?_IsEmpty:	
  1574                           ; 1 bytes @ 0x0
  1575                           
  1576  0070                     ??_IsEmpty:	
  1577                           ; 1 bytes @ 0x0
  1578                           
  1579  0070                     ?_KeepDistance:	
  1580                           ; 1 bytes @ 0x0
  1581                           
  1582  0070                     ??_KeepDistance:	
  1583                           ; 1 bytes @ 0x0
  1584                           
  1585  0070                     ?_enQueue:	
  1586                           ; 1 bytes @ 0x0
  1587                           
  1588  0070                     ?_deQueue:	
  1589                           ; 1 bytes @ 0x0
  1590                           
  1591  0070                     ?_ClickLed:	
  1592                           ; 1 bytes @ 0x0
  1593                           
  1594  0070                     ?___bmul:	
  1595                           ; 1 bytes @ 0x0
  1596                           
  1597  0070                     ?__Umul8_16:	
  1598                           ; 1 bytes @ 0x0
  1599                           
  1600  0070                     ?___lwmod:	
  1601                           ; 2 bytes @ 0x0
  1602                           
  1603  0070                     ?___xxtofl:	
  1604                           ; 2 bytes @ 0x0
  1605                           
  1606  0070                     SPI_Exchange@Data:	
  1607                           ; 4 bytes @ 0x0
  1608                           
  1609  0070                     ___bmul@multiplicand:	
  1610                           ; 1 bytes @ 0x0
  1611                           
  1612  0070                     __Umul8_16@multiplicand:	
  1613                           ; 1 bytes @ 0x0
  1614                           
  1615  0070                     NRF_Set_SPI_Handler@SPI_Handler:	
  1616                           ; 1 bytes @ 0x0
  1617                           
  1618  0070                     SetPWM2@DutyCycle:	
  1619                           ; 2 bytes @ 0x0
  1620                           
  1621  0070                     ClickLed@DurationMs:	
  1622                           ; 2 bytes @ 0x0
  1623                           
  1624  0070                     ___lwmod@divisor:	
  1625                           ; 2 bytes @ 0x0
  1626                           
  1627  0070                     ___xxtofl@val:	
  1628                           ; 2 bytes @ 0x0
  1629                           
  1630                           
  1631                           ; 4 bytes @ 0x0
  1632  0070                     	ds	1
  1633  0071                     ?_NRF_Read_Register:
  1634  0071                     ??_NRF_GetStatus:	
  1635                           ; 1 bytes @ 0x1
  1636                           
  1637  0071                     ??_SPI_Exchange:	
  1638                           ; 1 bytes @ 0x1
  1639                           
  1640  0071                     ??___bmul:	
  1641                           ; 1 bytes @ 0x1
  1642                           
  1643  0071                     NRF_Read_Register@Bytes:	
  1644                           ; 1 bytes @ 0x1
  1645                           
  1646  0071                     KeepDistance@diff:	
  1647                           ; 1 bytes @ 0x1
  1648                           
  1649                           
  1650                           ; 2 bytes @ 0x1
  1651  0071                     	ds	1
  1652  0072                     ??_NRF_Set_SPI_Handler:
  1653  0072                     ??__Umul8_16:	
  1654                           ; 1 bytes @ 0x2
  1655                           
  1656  0072                     ?_NRF24L01_Init:	
  1657                           ; 1 bytes @ 0x2
  1658                           
  1659  0072                     ??_SetPWM2:	
  1660                           ; 1 bytes @ 0x2
  1661                           
  1662  0072                     ??_ClickLed:	
  1663                           ; 1 bytes @ 0x2
  1664                           
  1665  0072                     NRF_Read_Register@Length:	
  1666                           ; 1 bytes @ 0x2
  1667                           
  1668  0072                     _IsFull$564:	
  1669                           ; 1 bytes @ 0x2
  1670                           
  1671  0072                     ___bmul@product:	
  1672                           ; 1 bytes @ 0x2
  1673                           
  1674  0072                     NRF24L01_Init@SPI_Exchange:	
  1675                           ; 1 bytes @ 0x2
  1676                           
  1677  0072                     ___lwmod@dividend:	
  1678                           ; 2 bytes @ 0x2
  1679                           
  1680                           
  1681                           ; 2 bytes @ 0x2
  1682  0072                     	ds	1
  1683  0073                     ??_NRF_Read_Register:
  1684  0073                     ??_NRF_Available:	
  1685                           ; 1 bytes @ 0x3
  1686                           
  1687  0073                     NRF_Available@PipeNo:	
  1688                           ; 1 bytes @ 0x3
  1689                           
  1690  0073                     KeepDistance@amount:	
  1691                           ; 1 bytes @ 0x3
  1692                           
  1693  0073                     ___bmul@multiplier:	
  1694                           ; 1 bytes @ 0x3
  1695                           
  1696                           
  1697                           ; 1 bytes @ 0x3
  1698  0073                     	ds	1
  1699  0074                     ?_NRF_Write_Register:
  1700  0074                     ??_NRF24L01_Init:	
  1701                           ; 1 bytes @ 0x4
  1702                           
  1703  0074                     ??___lwmod:	
  1704                           ; 1 bytes @ 0x4
  1705                           
  1706  0074                     ??___xxtofl:	
  1707                           ; 1 bytes @ 0x4
  1708                           
  1709  0074                     NRF_Available@IsAvailable:	
  1710                           ; 1 bytes @ 0x4
  1711                           
  1712  0074                     NRF_Write_Register@Bytes:	
  1713                           ; 1 bytes @ 0x4
  1714                           
  1715  0074                     KeepDistance@retVal:	
  1716                           ; 1 bytes @ 0x4
  1717                           
  1718  0074                     __Umul8_16@product:	
  1719                           ; 1 bytes @ 0x4
  1720                           
  1721                           
  1722                           ; 2 bytes @ 0x4
  1723  0074                     	ds	1
  1724  0075                     NRF_Write_Register@Length:
  1725  0075                     NRF_Read_Register@Register:	
  1726                           ; 1 bytes @ 0x5
  1727                           
  1728  0075                     ___lwmod@counter:	
  1729                           ; 1 bytes @ 0x5
  1730                           
  1731                           
  1732                           ; 1 bytes @ 0x5
  1733  0075                     	ds	1
  1734  0076                     ??_NRF_Write_Register:
  1735  0076                     ??_enQueue:	
  1736                           ; 1 bytes @ 0x6
  1737                           
  1738  0076                     ??_deQueue:	
  1739                           ; 1 bytes @ 0x6
  1740                           
  1741  0076                     NRF_Read_Register@Status:	
  1742                           ; 1 bytes @ 0x6
  1743                           
  1744  0076                     __Umul8_16@word_mpld:	
  1745                           ; 1 bytes @ 0x6
  1746                           
  1747                           
  1748                           ; 2 bytes @ 0x6
  1749  0076                     	ds	1
  1750  0077                     ??_NRF_StatusHandler:
  1751                           
  1752                           ; 1 bytes @ 0x7
  1753  0077                     	ds	1
  1754  0078                     NRF_Write_Register@Register:
  1755  0078                     __Umul8_16@multiplier:	
  1756                           ; 1 bytes @ 0x8
  1757                           
  1758  0078                     ___xxtofl@sign:	
  1759                           ; 1 bytes @ 0x8
  1760                           
  1761                           
  1762                           ; 1 bytes @ 0x8
  1763  0078                     	ds	1
  1764  0079                     NRF_Write_Register@Status:
  1765  0079                     deQueue@element:	
  1766                           ; 1 bytes @ 0x9
  1767                           
  1768  0079                     ___xxtofl@exp:	
  1769                           ; 1 bytes @ 0x9
  1770                           
  1771                           
  1772                           ; 1 bytes @ 0x9
  1773  0079                     	ds	1
  1774  007A                     ??_NRF_PipeEnable:
  1775  007A                     ??_NRF_PipeEnableAA:	
  1776                           ; 1 bytes @ 0xA
  1777                           
  1778  007A                     ??_NRF_SetCRCLen:	
  1779                           ; 1 bytes @ 0xA
  1780                           
  1781  007A                     ??_NRF_SetRFChannel:	
  1782                           ; 1 bytes @ 0xA
  1783                           
  1784  007A                     ??_NRF_SetRFPower:	
  1785                           ; 1 bytes @ 0xA
  1786                           
  1787  007A                     ??_NRF_SetRFDataRate:	
  1788                           ; 1 bytes @ 0xA
  1789                           
  1790  007A                     ??_NRF_SetAddrWidth:	
  1791                           ; 1 bytes @ 0xA
  1792                           
  1793  007A                     ?_NRF_SetART:	
  1794                           ; 1 bytes @ 0xA
  1795                           
  1796  007A                     ??_NRF_StartListening:	
  1797                           ; 1 bytes @ 0xA
  1798                           
  1799  007A                     ??_NRF_SetMaskIRQ:	
  1800                           ; 1 bytes @ 0xA
  1801                           
  1802  007A                     ?_NRF_ReadPayload:	
  1803                           ; 1 bytes @ 0xA
  1804                           
  1805  007A                     ?_SetPWM1:	
  1806                           ; 1 bytes @ 0xA
  1807                           
  1808  007A                     NRF_SetART@delay:	
  1809                           ; 1 bytes @ 0xA
  1810                           
  1811  007A                     NRF_ReadPayload@PayloadLength:	
  1812                           ; 1 bytes @ 0xA
  1813                           
  1814  007A                     NRF_StatusHandler@StatusReg:	
  1815                           ; 1 bytes @ 0xA
  1816                           
  1817  007A                     enQueue@element:	
  1818                           ; 1 bytes @ 0xA
  1819                           
  1820  007A                     SetPWM1@DutyCycle:	
  1821                           ; 1 bytes @ 0xA
  1822                           
  1823  007A                     ___xxtofl@arg:	
  1824                           ; 2 bytes @ 0xA
  1825                           
  1826                           
  1827                           ; 4 bytes @ 0xA
  1828  007A                     	ds	1
  1829  007B                     ??_NRF_SetART:
  1830  007B                     ??_NRF_ReadPayload:	
  1831                           ; 1 bytes @ 0xB
  1832                           
  1833  007B                     NRF_StatusHandler@NRF_Fifo:	
  1834                           ; 1 bytes @ 0xB
  1835                           
  1836                           
  1837                           ; 1 bytes @ 0xB
  1838  007B                     	ds	1
  1839  007C                     ??_SetPWM1:
  1840  007C                     NRF_PipeEnable@PipeNo:	
  1841                           ; 1 bytes @ 0xC
  1842                           
  1843  007C                     NRF_PipeEnableAA@PipeNo:	
  1844                           ; 1 bytes @ 0xC
  1845                           
  1846  007C                     NRF_SetCRCLen@Len:	
  1847                           ; 1 bytes @ 0xC
  1848                           
  1849  007C                     NRF_SetRFDataRate@Datarate:	
  1850                           ; 1 bytes @ 0xC
  1851                           
  1852  007C                     NRF_SetMaskIRQ@IRQMask:	
  1853                           ; 1 bytes @ 0xC
  1854                           
  1855                           
  1856                           ; 1 bytes @ 0xC
  1857  007C                     	ds	1
  1858  007D                     NRF_PipeEnable@EN:
  1859  007D                     NRF_PipeEnableAA@AA:	
  1860                           ; 1 bytes @ 0xD
  1861                           
  1862  007D                     NRF_SetART@count:	
  1863                           ; 1 bytes @ 0xD
  1864                           
  1865                           
  1866                           ; 1 bytes @ 0xD
  1867  007D                     	ds	1
  1868  007E                     ??_main:
  1869                           
  1870                           	psect	cstackBANK0
  1871  0020                     __pcstackBANK0:	
  1872                           ; 1 bytes @ 0xE
  1873                           
  1874  0020                     ?_NRF_OpenReadingPipe:
  1875  0020                     ?___fldiv:	
  1876                           ; 1 bytes @ 0x0
  1877                           
  1878  0020                     ?___flmul:	
  1879                           ; 4 bytes @ 0x0
  1880                           
  1881  0020                     NRF_ReadPayload@Payload:	
  1882                           ; 4 bytes @ 0x0
  1883                           
  1884  0020                     NRF_OpenReadingPipe@PipeAddr:	
  1885                           ; 1 bytes @ 0x0
  1886                           
  1887  0020                     _NRF_SetRFChannel$313:	
  1888                           ; 2 bytes @ 0x0
  1889                           
  1890  0020                     _NRF_SetRFPower$320:	
  1891                           ; 2 bytes @ 0x0
  1892                           
  1893  0020                     _NRF_SetAddrWidth$325:	
  1894                           ; 2 bytes @ 0x0
  1895                           
  1896  0020                     ___fldiv@a:	
  1897                           ; 2 bytes @ 0x0
  1898                           
  1899  0020                     ___flmul@b:	
  1900                           ; 4 bytes @ 0x0
  1901                           
  1902                           
  1903                           ; 4 bytes @ 0x0
  1904  0020                     	ds	1
  1905  0021                     NRF_ReadPayload@i:
  1906                           
  1907                           ; 1 bytes @ 0x1
  1908  0021                     	ds	1
  1909  0022                     NRF_OpenReadingPipe@PayloadLength:
  1910  0022                     NRF_SetRFChannel@RF_Channel:	
  1911                           ; 1 bytes @ 0x2
  1912                           
  1913  0022                     NRF_SetRFPower@RF_Pow:	
  1914                           ; 1 bytes @ 0x2
  1915                           
  1916  0022                     NRF_SetAddrWidth@AddressWidth:	
  1917                           ; 1 bytes @ 0x2
  1918                           
  1919                           
  1920                           ; 1 bytes @ 0x2
  1921  0022                     	ds	1
  1922  0023                     NRF_OpenReadingPipe@AutoAck:
  1923                           
  1924                           ; 1 bytes @ 0x3
  1925  0023                     	ds	1
  1926  0024                     NRF_OpenReadingPipe@Enable:
  1927  0024                     ___fldiv@b:	
  1928                           ; 1 bytes @ 0x4
  1929                           
  1930  0024                     ___flmul@a:	
  1931                           ; 4 bytes @ 0x4
  1932                           
  1933                           
  1934                           ; 4 bytes @ 0x4
  1935  0024                     	ds	1
  1936  0025                     ??_NRF_OpenReadingPipe:
  1937                           
  1938                           ; 1 bytes @ 0x5
  1939  0025                     	ds	3
  1940  0028                     ??___fldiv:
  1941  0028                     ??___flmul:	
  1942                           ; 1 bytes @ 0x8
  1943                           
  1944                           
  1945                           ; 1 bytes @ 0x8
  1946  0028                     	ds	2
  1947  002A                     _NRF_OpenReadingPipe$285:
  1948                           
  1949                           ; 2 bytes @ 0xA
  1950  002A                     	ds	2
  1951  002C                     NRF_OpenReadingPipe@AW:
  1952                           
  1953                           ; 1 bytes @ 0xC
  1954  002C                     	ds	1
  1955  002D                     NRF_OpenReadingPipe@i:
  1956  002D                     ___flmul@sign:	
  1957                           ; 1 bytes @ 0xD
  1958                           
  1959  002D                     ___fldiv@rem:	
  1960                           ; 1 bytes @ 0xD
  1961                           
  1962                           
  1963                           ; 4 bytes @ 0xD
  1964  002D                     	ds	1
  1965  002E                     NRF_OpenReadingPipe@PipeNo:
  1966  002E                     ___flmul@grs:	
  1967                           ; 1 bytes @ 0xE
  1968                           
  1969                           
  1970                           ; 4 bytes @ 0xE
  1971  002E                     	ds	1
  1972  002F                     ??_Appl_Init:
  1973                           
  1974                           ; 1 bytes @ 0xF
  1975  002F                     	ds	2
  1976  0031                     ___fldiv@sign:
  1977                           
  1978                           ; 1 bytes @ 0x11
  1979  0031                     	ds	1
  1980  0032                     ___flmul@aexp:
  1981  0032                     ___fldiv@new_exp:	
  1982                           ; 1 bytes @ 0x12
  1983                           
  1984                           
  1985                           ; 2 bytes @ 0x12
  1986  0032                     	ds	1
  1987  0033                     ___flmul@bexp:
  1988                           
  1989                           ; 1 bytes @ 0x13
  1990  0033                     	ds	1
  1991  0034                     ___fldiv@grs:
  1992  0034                     ___flmul@prod:	
  1993                           ; 4 bytes @ 0x14
  1994                           
  1995                           
  1996                           ; 4 bytes @ 0x14
  1997  0034                     	ds	4
  1998  0038                     ___fldiv@bexp:
  1999  0038                     ___flmul@temp:	
  2000                           ; 1 bytes @ 0x18
  2001                           
  2002                           
  2003                           ; 2 bytes @ 0x18
  2004  0038                     	ds	1
  2005  0039                     ___fldiv@aexp:
  2006                           
  2007                           ; 1 bytes @ 0x19
  2008  0039                     	ds	1
  2009  003A                     ?___fltol:
  2010  003A                     ___fltol@f1:	
  2011                           ; 4 bytes @ 0x1A
  2012                           
  2013                           
  2014                           ; 4 bytes @ 0x1A
  2015  003A                     	ds	4
  2016  003E                     ??___fltol:
  2017                           
  2018                           ; 1 bytes @ 0x1E
  2019  003E                     	ds	5
  2020  0043                     ___fltol@sign1:
  2021                           
  2022                           ; 1 bytes @ 0x23
  2023  0043                     	ds	1
  2024  0044                     ___fltol@exp1:
  2025                           
  2026                           ; 1 bytes @ 0x24
  2027  0044                     	ds	1
  2028  0045                     ?_LinearTransiant:
  2029  0045                     LinearTransiant@OldValue:	
  2030                           ; 1 bytes @ 0x25
  2031                           
  2032                           
  2033                           ; 1 bytes @ 0x25
  2034  0045                     	ds	1
  2035  0046                     LinearTransiant@Duration10ms:
  2036                           
  2037                           ; 1 bytes @ 0x26
  2038  0046                     	ds	1
  2039  0047                     ??_LinearTransiant:
  2040                           
  2041                           ; 1 bytes @ 0x27
  2042  0047                     	ds	5
  2043  004C                     LinearTransiant@Slope:
  2044                           
  2045                           ; 4 bytes @ 0x2C
  2046  004C                     	ds	4
  2047  0050                     LinearTransiant@diff:
  2048                           
  2049                           ; 2 bytes @ 0x30
  2050  0050                     	ds	2
  2051  0052                     LinearTransiant@a:
  2052                           
  2053                           ; 1 bytes @ 0x32
  2054  0052                     	ds	1
  2055  0053                     LinearTransiant@i:
  2056                           
  2057                           ; 1 bytes @ 0x33
  2058  0053                     	ds	1
  2059  0054                     LinearTransiant@NewValue:
  2060                           
  2061                           ; 1 bytes @ 0x34
  2062  0054                     	ds	1
  2063  0055                     ??_APPL_TASK_10MS:
  2064                           
  2065                           ; 1 bytes @ 0x35
  2066  0055                     	ds	2
  2067  0057                     main@Task10ms:
  2068                           
  2069                           ; 2 bytes @ 0x37
  2070  0057                     	ds	2
  2071  0059                     main@Task100ms:
  2072                           
  2073                           ; 2 bytes @ 0x39
  2074  0059                     	ds	2
  2075  005B                     main@Task1000ms:
  2076                           
  2077                           ; 2 bytes @ 0x3B
  2078  005B                     	ds	2
  2079                           
  2080                           	psect	maintext
  2081  0E11                     __pmaintext:	
  2082 ;;
  2083 ;;Main: autosize = 0, tempsize = 0, incstack = 0, save=0
  2084 ;;
  2085 ;; *************** function _main *****************
  2086 ;; Defined at:
  2087 ;;		line 10 in file "02-SRC/02-APPLICATION/main.c"
  2088 ;; Parameters:    Size  Location     Type
  2089 ;;		None
  2090 ;; Auto vars:     Size  Location     Type
  2091 ;;  Task1000ms      2   59[BANK0 ] unsigned short 
  2092 ;;  Task100ms       2   57[BANK0 ] unsigned short 
  2093 ;;  Task10ms        2   55[BANK0 ] unsigned short 
  2094 ;; Return value:  Size  Location     Type
  2095 ;;                  1    wreg      void 
  2096 ;; Registers used:
  2097 ;;		wreg, fsr0l, fsr0h, fsr1l, fsr1h, status,2, status,0, pclath, cstack
  2098 ;; Tracked objects:
  2099 ;;		On entry : B1F/0
  2100 ;;		On exit  : 0/0
  2101 ;;		Unchanged: 0/0
  2102 ;; Data sizes:     COMMON   BANK0   BANK1   BANK2   BANK3   BANK4   BANK5   BANK6
  2103 ;;      Params:         0       0       0       0       0       0       0       0
  2104 ;;      Locals:         0       6       0       0       0       0       0       0
  2105 ;;      Temps:          0       0       0       0       0       0       0       0
  2106 ;;      Totals:         0       6       0       0       0       0       0       0
  2107 ;;Total ram usage:        6 bytes
  2108 ;; Hardware stack levels required when called:    6
  2109 ;; This function calls:
  2110 ;;		_APPL_TASK_10MS
  2111 ;;		_Appl_Init
  2112 ;;		_MCU_Init
  2113 ;;		_Task_LedManager
  2114 ;; This function is called by:
  2115 ;;		Startup code after reset
  2116 ;; This function uses a non-reentrant model
  2117 ;;
  2118                           
  2119                           
  2120                           ;psect for function _main
  2121  0E11                     _main:
  2122  0E11                     l2580:	
  2123                           ;incstack = 0
  2124                           ; Regs used in _main: [wreg-fsr1h+status,2+status,0+pclath+cstack]
  2125                           
  2126  0E11  300A               	movlw	10
  2127  0E12  0020               	movlb	0	; select bank0
  2128  0E13  00D7               	movwf	main@Task10ms
  2129  0E14  3000               	movlw	0
  2130  0E15  00D8               	movwf	main@Task10ms+1
  2131  0E16  3064               	movlw	100
  2132  0E17  00D9               	movwf	main@Task100ms
  2133  0E18  3000               	movlw	0
  2134  0E19  00DA               	movwf	main@Task100ms+1
  2135  0E1A  30E8               	movlw	232
  2136  0E1B  00DB               	movwf	main@Task1000ms
  2137  0E1C  3003               	movlw	3
  2138  0E1D  00DC               	movwf	main@Task1000ms+1
  2139  0E1E                     l2582:
  2140  0E1E  318B  237A  318E   	fcall	_MCU_Init
  2141  0E21                     l2584:
  2142  0E21  318D  25C3  318E   	fcall	_Appl_Init
  2143  0E24                     l2586:
  2144  0E24  318A  229B  318E   	fcall	_Task_LedManager
  2145  0E27                     l2588:
  2146  0E27  0020               	movlb	0	; select bank0
  2147  0E28  0858               	movf	main@Task10ms+1,w
  2148  0E29  0268               	subwf	_Tick_1ms+1,w
  2149  0E2A  1D03               	skipz
  2150  0E2B  2E2E               	goto	u2705
  2151  0E2C  0857               	movf	main@Task10ms,w
  2152  0E2D  0267               	subwf	_Tick_1ms,w
  2153  0E2E                     u2705:
  2154  0E2E  1C03               	skipc
  2155  0E2F  2E31               	goto	u2701
  2156  0E30  2E32               	goto	u2700
  2157  0E31                     u2701:
  2158  0E31  2E3B               	goto	l2594
  2159  0E32                     u2700:
  2160  0E32                     l2590:
  2161  0E32  0867               	movf	_Tick_1ms,w
  2162  0E33  3E0A               	addlw	10
  2163  0E34  00D7               	movwf	main@Task10ms
  2164  0E35  3000               	movlw	0
  2165  0E36  3D68               	addwfc	_Tick_1ms+1,w
  2166  0E37  00D8               	movwf	main@Task10ms+1
  2167  0E38                     l2592:
  2168  0E38  318E  265F  318E   	fcall	_APPL_TASK_10MS
  2169  0E3B                     l2594:
  2170  0E3B  0020               	movlb	0	; select bank0
  2171  0E3C  085A               	movf	main@Task100ms+1,w
  2172  0E3D  0268               	subwf	_Tick_1ms+1,w
  2173  0E3E  1D03               	skipz
  2174  0E3F  2E42               	goto	u2715
  2175  0E40  0859               	movf	main@Task100ms,w
  2176  0E41  0267               	subwf	_Tick_1ms,w
  2177  0E42                     u2715:
  2178  0E42  1C03               	skipc
  2179  0E43  2E45               	goto	u2711
  2180  0E44  2E46               	goto	u2710
  2181  0E45                     u2711:
  2182  0E45  2E4C               	goto	l2598
  2183  0E46                     u2710:
  2184  0E46                     l2596:
  2185  0E46  0867               	movf	_Tick_1ms,w
  2186  0E47  3E64               	addlw	100
  2187  0E48  00D9               	movwf	main@Task100ms
  2188  0E49  3000               	movlw	0
  2189  0E4A  3D68               	addwfc	_Tick_1ms+1,w
  2190  0E4B  00DA               	movwf	main@Task100ms+1
  2191  0E4C                     l2598:
  2192  0E4C  085C               	movf	main@Task1000ms+1,w
  2193  0E4D  0268               	subwf	_Tick_1ms+1,w
  2194  0E4E  1D03               	skipz
  2195  0E4F  2E52               	goto	u2725
  2196  0E50  085B               	movf	main@Task1000ms,w
  2197  0E51  0267               	subwf	_Tick_1ms,w
  2198  0E52                     u2725:
  2199  0E52  1C03               	skipc
  2200  0E53  2E55               	goto	u2721
  2201  0E54  2E56               	goto	u2720
  2202  0E55                     u2721:
  2203  0E55  2E24               	goto	l2586
  2204  0E56                     u2720:
  2205  0E56                     l2600:
  2206  0E56  0867               	movf	_Tick_1ms,w
  2207  0E57  3EE8               	addlw	232
  2208  0E58  00DB               	movwf	main@Task1000ms
  2209  0E59  3003               	movlw	3
  2210  0E5A  3D68               	addwfc	_Tick_1ms+1,w
  2211  0E5B  00DC               	movwf	main@Task1000ms+1
  2212  0E5C  2E24               	goto	l2586
  2213  0E5D  3180  2814         	ljmp	start
  2214  0E5F                     __end_of_main:
  2215                           
  2216                           	psect	text1
  2217  0A9B                     __ptext1:	
  2218 ;; *************** function _Task_LedManager *****************
  2219 ;; Defined at:
  2220 ;;		line 177 in file "02-SRC/02-APPLICATION/Appl.c"
  2221 ;; Parameters:    Size  Location     Type
  2222 ;;		None
  2223 ;; Auto vars:     Size  Location     Type
  2224 ;;		None
  2225 ;; Return value:  Size  Location     Type
  2226 ;;                  1    wreg      void 
  2227 ;; Registers used:
  2228 ;;		wreg, status,2, status,0
  2229 ;; Tracked objects:
  2230 ;;		On entry : 0/0
  2231 ;;		On exit  : 0/0
  2232 ;;		Unchanged: 0/0
  2233 ;; Data sizes:     COMMON   BANK0   BANK1   BANK2   BANK3   BANK4   BANK5   BANK6
  2234 ;;      Params:         0       0       0       0       0       0       0       0
  2235 ;;      Locals:         0       0       0       0       0       0       0       0
  2236 ;;      Temps:          0       0       0       0       0       0       0       0
  2237 ;;      Totals:         0       0       0       0       0       0       0       0
  2238 ;;Total ram usage:        0 bytes
  2239 ;; Hardware stack levels used:    1
  2240 ;; Hardware stack levels required when called:    1
  2241 ;; This function calls:
  2242 ;;		Nothing
  2243 ;; This function is called by:
  2244 ;;		_main
  2245 ;; This function uses a non-reentrant model
  2246 ;;
  2247                           
  2248                           
  2249                           ;psect for function _Task_LedManager
  2250  0A9B                     _Task_LedManager:
  2251  0A9B                     l2546:	
  2252                           ;incstack = 0
  2253                           ; Regs used in _Task_LedManager: [wreg+status,2+status,0]
  2254                           
  2255  0A9B  0020               	movlb	0	; select bank0
  2256  0A9C  086A               	movf	_Click,w
  2257  0A9D  1903               	btfsc	3,2
  2258  0A9E  2AA0               	goto	u2641
  2259  0A9F  2AA1               	goto	u2640
  2260  0AA0                     u2641:
  2261  0AA0  2AAC               	goto	l2554
  2262  0AA1                     u2640:
  2263  0AA1                     l2548:
  2264  0AA1  01EA               	clrf	_Click
  2265  0AA2                     l2550:
  2266  0AA2  0022               	movlb	2	; select bank2
  2267  0AA3  160E               	bsf	14,4	;volatile
  2268  0AA4                     l2552:
  2269  0AA4  0020               	movlb	0	; select bank0
  2270  0AA5  0865               	movf	_Click_Duration,w
  2271  0AA6  0767               	addwf	_Tick_1ms,w
  2272  0AA7  00E3               	movwf	Task_LedManager@Timeout
  2273  0AA8  0866               	movf	_Click_Duration+1,w
  2274  0AA9  3D68               	addwfc	_Tick_1ms+1,w
  2275  0AAA  00E4               	movwf	Task_LedManager@Timeout+1
  2276  0AAB  2ABC               	goto	l344
  2277  0AAC                     l2554:
  2278  0AAC  0864               	movf	Task_LedManager@Timeout+1,w
  2279  0AAD  0268               	subwf	_Tick_1ms+1,w
  2280  0AAE  1D03               	skipz
  2281  0AAF  2AB2               	goto	u2655
  2282  0AB0  0863               	movf	Task_LedManager@Timeout,w
  2283  0AB1  0267               	subwf	_Tick_1ms,w
  2284  0AB2                     u2655:
  2285  0AB2  1C03               	skipc
  2286  0AB3  2AB5               	goto	u2651
  2287  0AB4  2AB6               	goto	u2650
  2288  0AB5                     u2651:
  2289  0AB5  2ABC               	goto	l344
  2290  0AB6                     u2650:
  2291  0AB6                     l2556:
  2292  0AB6  0022               	movlb	2	; select bank2
  2293  0AB7  1E0E               	btfss	14,4	;volatile
  2294  0AB8  2ABA               	goto	u2661
  2295  0AB9  2ABB               	goto	u2660
  2296  0ABA                     u2661:
  2297  0ABA  2ABC               	goto	l344
  2298  0ABB                     u2660:
  2299  0ABB                     l2558:
  2300  0ABB  120E               	bcf	14,4	;volatile
  2301  0ABC                     l344:
  2302  0ABC  0008               	return
  2303  0ABD                     __end_of_Task_LedManager:
  2304                           
  2305                           	psect	text2
  2306  0B7A                     __ptext2:	
  2307 ;; *************** function _MCU_Init *****************
  2308 ;; Defined at:
  2309 ;;		line 7 in file "02-SRC/04-DRIVER/target.c"
  2310 ;; Parameters:    Size  Location     Type
  2311 ;;		None
  2312 ;; Auto vars:     Size  Location     Type
  2313 ;;		None
  2314 ;; Return value:  Size  Location     Type
  2315 ;;                  1    wreg      void 
  2316 ;; Registers used:
  2317 ;;		wreg, status,2
  2318 ;; Tracked objects:
  2319 ;;		On entry : 0/0
  2320 ;;		On exit  : 0/0
  2321 ;;		Unchanged: 0/0
  2322 ;; Data sizes:     COMMON   BANK0   BANK1   BANK2   BANK3   BANK4   BANK5   BANK6
  2323 ;;      Params:         0       0       0       0       0       0       0       0
  2324 ;;      Locals:         0       0       0       0       0       0       0       0
  2325 ;;      Temps:          0       0       0       0       0       0       0       0
  2326 ;;      Totals:         0       0       0       0       0       0       0       0
  2327 ;;Total ram usage:        0 bytes
  2328 ;; Hardware stack levels used:    1
  2329 ;; Hardware stack levels required when called:    1
  2330 ;; This function calls:
  2331 ;;		Nothing
  2332 ;; This function is called by:
  2333 ;;		_main
  2334 ;; This function uses a non-reentrant model
  2335 ;;
  2336                           
  2337                           
  2338                           ;psect for function _MCU_Init
  2339  0B7A                     _MCU_Init:
  2340  0B7A                     l2484:	
  2341                           ;incstack = 0
  2342                           ; Regs used in _MCU_Init: [wreg+status,2]
  2343                           
  2344  0B7A  0020               	movlb	0	; select bank0
  2345  0B7B  01E7               	clrf	_Tick_1ms
  2346  0B7C  01E8               	clrf	_Tick_1ms+1
  2347  0B7D                     l2486:
  2348  0B7D  3078               	movlw	120
  2349  0B7E  0021               	movlb	1	; select bank1
  2350  0B7F  0099               	movwf	25	;volatile
  2351  0B80                     l2488:
  2352  0B80  0023               	movlb	3	; select bank3
  2353  0B81  018C               	clrf	12	;volatile
  2354  0B82                     l2490:
  2355  0B82  018D               	clrf	13	;volatile
  2356  0B83                     l2492:
  2357  0B83  3044               	movlw	68
  2358  0B84  008E               	movwf	14	;volatile
  2359  0B85                     l2494:
  2360  0B85  3044               	movlw	68
  2361  0B86  0021               	movlb	1	; select bank1
  2362  0B87  008E               	movwf	14	;volatile
  2363  0B88                     l2496:
  2364  0B88  303F               	movlw	63
  2365  0B89  008D               	movwf	13	;volatile
  2366  0B8A                     l2498:
  2367  0B8A  30FF               	movlw	255
  2368  0B8B  008C               	movwf	12	;volatile
  2369  0B8C                     l2500:
  2370  0B8C  3040               	movlw	64
  2371  0B8D  0024               	movlb	4	; select bank4
  2372  0B8E  0094               	movwf	20	;volatile
  2373  0B8F                     l2502:
  2374  0B8F  3022               	movlw	34
  2375  0B90  0095               	movwf	21	;volatile
  2376  0B91                     l2504:
  2377  0B91  3083               	movlw	131
  2378  0B92  0021               	movlb	1	; select bank1
  2379  0B93  0095               	movwf	21	;volatile
  2380  0B94                     l2506:
  2381  0B94  3005               	movlw	5
  2382  0B95  0020               	movlb	0	; select bank0
  2383  0B96  0095               	movwf	21	;volatile
  2384  0B97                     l2508:
  2385  0B97  30FF               	movlw	255
  2386  0B98  009B               	movwf	27	;volatile
  2387  0B99                     l2510:
  2388  0B99  3004               	movlw	4
  2389  0B9A  009C               	movwf	28	;volatile
  2390  0B9B                     l2512:
  2391  0B9B  30C0               	movlw	192
  2392  0B9C  002C               	movlb	12	; select bank12
  2393  0B9D  0093               	movwf	19	;volatile
  2394  0B9E                     l2514:
  2395  0B9E  30C0               	movlw	192
  2396  0B9F  0096               	movwf	22	;volatile
  2397  0BA0                     l2516:
  2398  0BA0  168B               	bsf	11,5	;volatile
  2399  0BA1                     l2518:
  2400  0BA1  120B               	bcf	11,4	;volatile
  2401  0BA2                     l2520:
  2402  0BA2  170B               	bsf	11,6	;volatile
  2403  0BA3                     l2522:
  2404  0BA3  178B               	bsf	11,7	;volatile
  2405  0BA4                     l219:
  2406  0BA4  0008               	return
  2407  0BA5                     __end_of_MCU_Init:
  2408                           
  2409                           	psect	text3
  2410  0DC3                     __ptext3:	
  2411 ;; *************** function _Appl_Init *****************
  2412 ;; Defined at:
  2413 ;;		line 59 in file "02-SRC/02-APPLICATION/Appl.c"
  2414 ;; Parameters:    Size  Location     Type
  2415 ;;		None
  2416 ;; Auto vars:     Size  Location     Type
  2417 ;;		None
  2418 ;; Return value:  Size  Location     Type
  2419 ;;                  1    wreg      void 
  2420 ;; Registers used:
  2421 ;;		wreg, fsr0l, fsr0h, fsr1l, fsr1h, status,2, status,0, pclath, cstack
  2422 ;; Tracked objects:
  2423 ;;		On entry : 0/0
  2424 ;;		On exit  : 0/0
  2425 ;;		Unchanged: 0/0
  2426 ;; Data sizes:     COMMON   BANK0   BANK1   BANK2   BANK3   BANK4   BANK5   BANK6
  2427 ;;      Params:         0       0       0       0       0       0       0       0
  2428 ;;      Locals:         0       0       0       0       0       0       0       0
  2429 ;;      Temps:          0       1       0       0       0       0       0       0
  2430 ;;      Totals:         0       1       0       0       0       0       0       0
  2431 ;;Total ram usage:        1 bytes
  2432 ;; Hardware stack levels used:    1
  2433 ;; Hardware stack levels required when called:    5
  2434 ;; This function calls:
  2435 ;;		_NRF24L01_Init
  2436 ;;		_NRF_OpenReadingPipe
  2437 ;;		_NRF_SetART
  2438 ;;		_NRF_SetAddrWidth
  2439 ;;		_NRF_SetCRCLen
  2440 ;;		_NRF_SetMaskIRQ
  2441 ;;		_NRF_SetRFChannel
  2442 ;;		_NRF_SetRFDataRate
  2443 ;;		_NRF_SetRFPower
  2444 ;;		_NRF_StartListening
  2445 ;;		_QueueInit
  2446 ;;		_SetPWM1
  2447 ;;		_SetPWM2
  2448 ;; This function is called by:
  2449 ;;		_main
  2450 ;; This function uses a non-reentrant model
  2451 ;;
  2452                           
  2453                           
  2454                           ;psect for function _Appl_Init
  2455  0DC3                     _Appl_Init:
  2456  0DC3                     l2524:	
  2457                           ;incstack = 0
  2458                           ; Regs used in _Appl_Init: [wreg-fsr1h+status,2+status,0+pclath+cstack]
  2459                           
  2460  0DC3  0022               	movlb	2	; select bank2
  2461  0DC4  120E               	bcf	14,4	;volatile
  2462  0DC5                     l2526:
  2463  0DC5  3000               	movlw	0
  2464  0DC6  00FA               	movwf	SetPWM1@DutyCycle
  2465  0DC7  00FB               	movwf	SetPWM1@DutyCycle+1
  2466  0DC8  3189  21D3  318D   	fcall	_SetPWM1
  2467  0DCB  3000               	movlw	0
  2468  0DCC  00F0               	movwf	SetPWM2@DutyCycle
  2469  0DCD  00F1               	movwf	SetPWM2@DutyCycle+1
  2470  0DCE  3187  27E3  318D   	fcall	_SetPWM2
  2471  0DD1  3189  219D  318D   	fcall	_QueueInit
  2472  0DD4  3071               	movlw	low _SPI_Exchange
  2473  0DD5  00F2               	movwf	NRF24L01_Init@SPI_Exchange
  2474  0DD6  3009               	movlw	high _SPI_Exchange
  2475  0DD7  00F3               	movwf	NRF24L01_Init@SPI_Exchange+1
  2476  0DD8  3189  217A  318D   	fcall	_NRF24L01_Init
  2477  0DDB                     l2528:
  2478  0DDB  3001               	movlw	1
  2479  0DDC  318A  2239  318D   	fcall	_NRF_SetCRCLen
  2480  0DDF                     l2530:
  2481  0DDF  3005               	movlw	5
  2482  0DE0  318C  242F  318D   	fcall	_NRF_SetAddrWidth
  2483  0DE3                     l2532:
  2484  0DE3  3000               	movlw	0
  2485  0DE4  318B  2305  318D   	fcall	_NRF_SetRFDataRate
  2486  0DE7                     l2534:
  2487  0DE7  3003               	movlw	3
  2488  0DE8  318C  24CB  318D   	fcall	_NRF_SetRFPower
  2489  0DEB                     l2536:
  2490  0DEB  3064               	movlw	100
  2491  0DEC  318B  2352  318D   	fcall	_NRF_SetRFChannel
  2492  0DEF                     l2538:
  2493  0DEF  3000               	movlw	low (STR_1| (0+32768))
  2494  0DF0  0020               	movlb	0	; select bank0
  2495  0DF1  00A0               	movwf	NRF_OpenReadingPipe@PipeAddr
  2496  0DF2  3090               	movlw	high (STR_1| (0+32768))
  2497  0DF3  00A1               	movwf	NRF_OpenReadingPipe@PipeAddr+1
  2498  0DF4  3008               	movlw	8
  2499  0DF5  00AF               	movwf	??_Appl_Init
  2500  0DF6  082F               	movf	??_Appl_Init,w
  2501  0DF7  00A2               	movwf	NRF_OpenReadingPipe@PayloadLength
  2502  0DF8  01A3               	clrf	NRF_OpenReadingPipe@AutoAck
  2503  0DF9  0AA3               	incf	NRF_OpenReadingPipe@AutoAck,f
  2504  0DFA  01A4               	clrf	NRF_OpenReadingPipe@Enable
  2505  0DFB  0AA4               	incf	NRF_OpenReadingPipe@Enable,f
  2506  0DFC  3000               	movlw	0
  2507  0DFD  318E  26BA  318D   	fcall	_NRF_OpenReadingPipe
  2508  0E00                     l2540:
  2509  0E00  3004               	movlw	4
  2510  0E01  0020               	movlb	0	; select bank0
  2511  0E02  00AF               	movwf	??_Appl_Init
  2512  0E03  082F               	movf	??_Appl_Init,w
  2513  0E04  00FA               	movwf	NRF_SetART@delay
  2514  0E05  300A               	movlw	10
  2515  0E06  3189  21FD  318D   	fcall	_NRF_SetART
  2516  0E09                     l2542:
  2517  0E09  3040               	movlw	64
  2518  0E0A  318A  22E0  318D   	fcall	_NRF_SetMaskIRQ
  2519  0E0D                     l2544:
  2520  0E0D  318A  221B  318D   	fcall	_NRF_StartListening
  2521  0E10                     l293:
  2522  0E10  0008               	return
  2523  0E11                     __end_of_Appl_Init:
  2524                           
  2525                           	psect	text4
  2526  07E3                     __ptext4:	
  2527 ;; *************** function _SetPWM2 *****************
  2528 ;; Defined at:
  2529 ;;		line 50 in file "02-SRC/04-DRIVER/target.c"
  2530 ;; Parameters:    Size  Location     Type
  2531 ;;  DutyCycle       2    0[COMMON] unsigned short 
  2532 ;; Auto vars:     Size  Location     Type
  2533 ;;		None
  2534 ;; Return value:  Size  Location     Type
  2535 ;;                  1    wreg      void 
  2536 ;; Registers used:
  2537 ;;		wreg, status,2, status,0
  2538 ;; Tracked objects:
  2539 ;;		On entry : 0/0
  2540 ;;		On exit  : 0/0
  2541 ;;		Unchanged: 0/0
  2542 ;; Data sizes:     COMMON   BANK0   BANK1   BANK2   BANK3   BANK4   BANK5   BANK6
  2543 ;;      Params:         2       0       0       0       0       0       0       0
  2544 ;;      Locals:         0       0       0       0       0       0       0       0
  2545 ;;      Temps:          2       0       0       0       0       0       0       0
  2546 ;;      Totals:         4       0       0       0       0       0       0       0
  2547 ;;Total ram usage:        4 bytes
  2548 ;; Hardware stack levels used:    1
  2549 ;; Hardware stack levels required when called:    1
  2550 ;; This function calls:
  2551 ;;		Nothing
  2552 ;; This function is called by:
  2553 ;;		_Appl_Init
  2554 ;; This function uses a non-reentrant model
  2555 ;;
  2556                           
  2557                           
  2558                           ;psect for function _SetPWM2
  2559  07E3                     _SetPWM2:
  2560  07E3                     l2410:	
  2561                           ;incstack = 0
  2562                           ; Regs used in _SetPWM2: [wreg+status,2+status,0]
  2563                           
  2564  07E3  0870               	movf	SetPWM2@DutyCycle,w
  2565  07E4  00F2               	movwf	??_SetPWM2
  2566  07E5  3005               	movlw	5
  2567  07E6                     u2555:
  2568  07E6  35F2               	lslf	??_SetPWM2,f
  2569  07E7  3EFF               	addlw	-1
  2570  07E8  1D03               	skipz
  2571  07E9  2FE6               	goto	u2555
  2572  07EA  3572               	lslf	??_SetPWM2,w
  2573  07EB  002C               	movlb	12	; select bank12
  2574  07EC  0094               	movwf	20	;volatile
  2575  07ED  0871               	movf	SetPWM2@DutyCycle+1,w
  2576  07EE  00F3               	movwf	??_SetPWM2+1
  2577  07EF  0870               	movf	SetPWM2@DutyCycle,w
  2578  07F0  00F2               	movwf	??_SetPWM2
  2579  07F1  36F3               	lsrf	??_SetPWM2+1,f
  2580  07F2  0CF2               	rrf	??_SetPWM2,f
  2581  07F3  36F3               	lsrf	??_SetPWM2+1,f
  2582  07F4  0CF2               	rrf	??_SetPWM2,f
  2583  07F5  0872               	movf	??_SetPWM2,w
  2584  07F6  0095               	movwf	21	;volatile
  2585  07F7                     l228:
  2586  07F7  0008               	return
  2587  07F8                     __end_of_SetPWM2:
  2588                           
  2589                           	psect	text5
  2590  099D                     __ptext5:	
  2591 ;; *************** function _QueueInit *****************
  2592 ;; Defined at:
  2593 ;;		line 76 in file "02-SRC/02-APPLICATION/Appl.c"
  2594 ;; Parameters:    Size  Location     Type
  2595 ;;		None
  2596 ;; Auto vars:     Size  Location     Type
  2597 ;;		None
  2598 ;; Return value:  Size  Location     Type
  2599 ;;                  1    wreg      void 
  2600 ;; Registers used:
  2601 ;;		wreg
  2602 ;; Tracked objects:
  2603 ;;		On entry : 0/0
  2604 ;;		On exit  : 0/0
  2605 ;;		Unchanged: 0/0
  2606 ;; Data sizes:     COMMON   BANK0   BANK1   BANK2   BANK3   BANK4   BANK5   BANK6
  2607 ;;      Params:         0       0       0       0       0       0       0       0
  2608 ;;      Locals:         0       0       0       0       0       0       0       0
  2609 ;;      Temps:          0       0       0       0       0       0       0       0
  2610 ;;      Totals:         0       0       0       0       0       0       0       0
  2611 ;;Total ram usage:        0 bytes
  2612 ;; Hardware stack levels used:    1
  2613 ;; Hardware stack levels required when called:    1
  2614 ;; This function calls:
  2615 ;;		Nothing
  2616 ;; This function is called by:
  2617 ;;		_Appl_Init
  2618 ;; This function uses a non-reentrant model
  2619 ;;
  2620                           
  2621                           
  2622                           ;psect for function _QueueInit
  2623  099D                     _QueueInit:
  2624  099D                     l2412:	
  2625                           ;incstack = 0
  2626                           ; Regs used in _QueueInit: [wreg]
  2627                           
  2628  099D  30FF               	movlw	255
  2629  099E  0020               	movlb	0	; select bank0
  2630  099F  00E1               	movwf	_MyQueue+4
  2631  09A0  3000               	movlw	0
  2632  09A1  00E2               	movwf	_MyQueue+5
  2633  09A2  30FF               	movlw	255
  2634  09A3  00DD               	movwf	_MyQueue
  2635  09A4  30FF               	movlw	255
  2636  09A5  00DE               	movwf	_MyQueue+1
  2637  09A6  30FF               	movlw	255
  2638  09A7  00DF               	movwf	_MyQueue+2
  2639  09A8  30FF               	movlw	255
  2640  09A9  00E0               	movwf	_MyQueue+3
  2641  09AA                     l296:
  2642  09AA  0008               	return
  2643  09AB                     __end_of_QueueInit:
  2644                           
  2645                           	psect	text6
  2646  0A1B                     __ptext6:	
  2647 ;; *************** function _NRF_StartListening *****************
  2648 ;; Defined at:
  2649 ;;		line 129 in file "02-SRC/04-DRIVER/NRF24L01/NRF24L01.c"
  2650 ;; Parameters:    Size  Location     Type
  2651 ;;		None
  2652 ;; Auto vars:     Size  Location     Type
  2653 ;;		None
  2654 ;; Return value:  Size  Location     Type
  2655 ;;                  1    wreg      void 
  2656 ;; Registers used:
  2657 ;;		wreg, fsr1l, fsr1h, status,2, status,0, pclath, cstack
  2658 ;; Tracked objects:
  2659 ;;		On entry : 0/0
  2660 ;;		On exit  : 0/0
  2661 ;;		Unchanged: 0/0
  2662 ;; Data sizes:     COMMON   BANK0   BANK1   BANK2   BANK3   BANK4   BANK5   BANK6
  2663 ;;      Params:         0       0       0       0       0       0       0       0
  2664 ;;      Locals:         0       0       0       0       0       0       0       0
  2665 ;;      Temps:          2       0       0       0       0       0       0       0
  2666 ;;      Totals:         2       0       0       0       0       0       0       0
  2667 ;;Total ram usage:        2 bytes
  2668 ;; Hardware stack levels used:    1
  2669 ;; Hardware stack levels required when called:    3
  2670 ;; This function calls:
  2671 ;;		_NRF_Read_Register
  2672 ;;		_NRF_Write_Register
  2673 ;; This function is called by:
  2674 ;;		_Appl_Init
  2675 ;; This function uses a non-reentrant model
  2676 ;;
  2677                           
  2678                           
  2679                           ;psect for function _NRF_StartListening
  2680  0A1B                     _NRF_StartListening:
  2681  0A1B                     l2354:	
  2682                           ;incstack = 0
  2683                           ; Regs used in _NRF_StartListening: [wreg+fsr1l+fsr1h+status,2+status,0+pclath+cstack]
  2684                           
  2685  0A1B  30C4               	movlw	(low (_NRFChip| 0))& (0+255)
  2686  0A1C  00FA               	movwf	??_NRF_StartListening
  2687  0A1D  087A               	movf	??_NRF_StartListening,w
  2688  0A1E  00F1               	movwf	NRF_Read_Register@Bytes
  2689  0A1F  01F2               	clrf	NRF_Read_Register@Length
  2690  0A20  0AF2               	incf	NRF_Read_Register@Length,f
  2691  0A21  3000               	movlw	0
  2692  0A22  318B  23FF  318A   	fcall	_NRF_Read_Register
  2693  0A25                     l2356:
  2694  0A25  0021               	movlb	1	; select bank1
  2695  0A26  1444               	bsf	_NRFChip^(0+128),0
  2696  0A27                     l2358:
  2697  0A27  14C4               	bsf	_NRFChip^(0+128),1
  2698  0A28  30C4               	movlw	(low (_NRFChip| 0))& (0+255)
  2699  0A29  00FA               	movwf	??_NRF_StartListening
  2700  0A2A  087A               	movf	??_NRF_StartListening,w
  2701  0A2B  00F4               	movwf	NRF_Write_Register@Bytes
  2702  0A2C  01F5               	clrf	NRF_Write_Register@Length
  2703  0A2D  0AF5               	incf	NRF_Write_Register@Length,f
  2704  0A2E  3000               	movlw	0
  2705  0A2F  318B  23D1  318A   	fcall	_NRF_Write_Register
  2706  0A32  00FB               	movwf	??_NRF_StartListening+1
  2707  0A33  087B               	movf	??_NRF_StartListening+1,w
  2708  0A34  0021               	movlb	1	; select bank1
  2709  0A35  00C9               	movwf	(_NRFChip^(0+128)+5)
  2710  0A36                     l2360:
  2711  0A36  0022               	movlb	2	; select bank2
  2712  0A37  140E               	bsf	14,0	;volatile
  2713  0A38                     l114:
  2714  0A38  0008               	return
  2715  0A39                     __end_of_NRF_StartListening:
  2716                           
  2717                           	psect	text7
  2718  0CCB                     __ptext7:	
  2719 ;; *************** function _NRF_SetRFPower *****************
  2720 ;; Defined at:
  2721 ;;		line 100 in file "02-SRC/04-DRIVER/NRF24L01/NRF24L01.c"
  2722 ;; Parameters:    Size  Location     Type
  2723 ;;  RF_Pow          1    wreg     unsigned char 
  2724 ;; Auto vars:     Size  Location     Type
  2725 ;;  RF_Pow          1    2[BANK0 ] unsigned char 
  2726 ;; Return value:  Size  Location     Type
  2727 ;;                  1    wreg      void 
  2728 ;; Registers used:
  2729 ;;		wreg, fsr1l, fsr1h, status,2, status,0, pclath, cstack
  2730 ;; Tracked objects:
  2731 ;;		On entry : 0/0
  2732 ;;		On exit  : 0/0
  2733 ;;		Unchanged: 0/0
  2734 ;; Data sizes:     COMMON   BANK0   BANK1   BANK2   BANK3   BANK4   BANK5   BANK6
  2735 ;;      Params:         0       0       0       0       0       0       0       0
  2736 ;;      Locals:         0       3       0       0       0       0       0       0
  2737 ;;      Temps:          2       0       0       0       0       0       0       0
  2738 ;;      Totals:         2       3       0       0       0       0       0       0
  2739 ;;Total ram usage:        5 bytes
  2740 ;; Hardware stack levels used:    1
  2741 ;; Hardware stack levels required when called:    3
  2742 ;; This function calls:
  2743 ;;		_NRF_Read_Register
  2744 ;;		_NRF_Write_Register
  2745 ;; This function is called by:
  2746 ;;		_Appl_Init
  2747 ;; This function uses a non-reentrant model
  2748 ;;
  2749                           
  2750                           
  2751                           ;psect for function _NRF_SetRFPower
  2752  0CCB                     _NRF_SetRFPower:
  2753                           
  2754                           ;incstack = 0
  2755                           ; Regs used in _NRF_SetRFPower: [wreg+fsr1l+fsr1h+status,2+status,0+pclath+cstack]
  2756                           ;NRF_SetRFPower@RF_Pow stored from wreg
  2757  0CCB  0020               	movlb	0	; select bank0
  2758  0CCC  00A2               	movwf	NRF_SetRFPower@RF_Pow
  2759  0CCD                     l2322:
  2760  0CCD  30C8               	movlw	(low ((_NRFChip| 0+4)))& (0+255)
  2761  0CCE  00FA               	movwf	??_NRF_SetRFPower
  2762  0CCF  087A               	movf	??_NRF_SetRFPower,w
  2763  0CD0  00F1               	movwf	NRF_Read_Register@Bytes
  2764  0CD1  01F2               	clrf	NRF_Read_Register@Length
  2765  0CD2  0AF2               	incf	NRF_Read_Register@Length,f
  2766  0CD3  3006               	movlw	6
  2767  0CD4  318B  23FF  318C   	fcall	_NRF_Read_Register
  2768  0CD7                     l2324:
  2769  0CD7  3004               	movlw	4
  2770  0CD8  0020               	movlb	0	; select bank0
  2771  0CD9  0222               	subwf	NRF_SetRFPower@RF_Pow,w
  2772  0CDA  1803               	skipnc
  2773  0CDB  2CDD               	goto	u2451
  2774  0CDC  2CDE               	goto	u2450
  2775  0CDD                     u2451:
  2776  0CDD  2CE6               	goto	l2328
  2777  0CDE                     u2450:
  2778  0CDE                     l2326:
  2779  0CDE  0822               	movf	NRF_SetRFPower@RF_Pow,w
  2780  0CDF  00FA               	movwf	??_NRF_SetRFPower
  2781  0CE0  01FB               	clrf	??_NRF_SetRFPower+1
  2782  0CE1  087A               	movf	??_NRF_SetRFPower,w
  2783  0CE2  00A0               	movwf	_NRF_SetRFPower$320
  2784  0CE3  087B               	movf	??_NRF_SetRFPower+1,w
  2785  0CE4  00A1               	movwf	_NRF_SetRFPower$320+1
  2786  0CE5  2CEA               	goto	l2330
  2787  0CE6                     l2328:
  2788  0CE6  3003               	movlw	3
  2789  0CE7  00A0               	movwf	_NRF_SetRFPower$320
  2790  0CE8  3000               	movlw	0
  2791  0CE9  00A1               	movwf	_NRF_SetRFPower$320+1
  2792  0CEA                     l2330:
  2793  0CEA  0820               	movf	_NRF_SetRFPower$320,w
  2794  0CEB  00FA               	movwf	??_NRF_SetRFPower
  2795  0CEC  0DFA               	rlf	??_NRF_SetRFPower,f
  2796  0CED  0021               	movlb	1	; select bank1
  2797  0CEE  0848               	movf	(_NRFChip^(0+128)+4),w
  2798  0CEF  067A               	xorwf	??_NRF_SetRFPower,w
  2799  0CF0  39F9               	andlw	-7
  2800  0CF1  067A               	xorwf	??_NRF_SetRFPower,w
  2801  0CF2  00C8               	movwf	(_NRFChip^(0+128)+4)
  2802  0CF3                     l2332:
  2803  0CF3  30C8               	movlw	(low ((_NRFChip| 0+4)))& (0+255)
  2804  0CF4  00FA               	movwf	??_NRF_SetRFPower
  2805  0CF5  087A               	movf	??_NRF_SetRFPower,w
  2806  0CF6  00F4               	movwf	NRF_Write_Register@Bytes
  2807  0CF7  01F5               	clrf	NRF_Write_Register@Length
  2808  0CF8  0AF5               	incf	NRF_Write_Register@Length,f
  2809  0CF9  3006               	movlw	6
  2810  0CFA  318B  23D1  318C   	fcall	_NRF_Write_Register
  2811  0CFD  00FB               	movwf	??_NRF_SetRFPower+1
  2812  0CFE  087B               	movf	??_NRF_SetRFPower+1,w
  2813  0CFF  0021               	movlb	1	; select bank1
  2814  0D00  00C9               	movwf	(_NRFChip^(0+128)+5)
  2815  0D01                     l98:
  2816  0D01  0008               	return
  2817  0D02                     __end_of_NRF_SetRFPower:
  2818                           
  2819                           	psect	text8
  2820  0B05                     __ptext8:	
  2821 ;; *************** function _NRF_SetRFDataRate *****************
  2822 ;; Defined at:
  2823 ;;		line 107 in file "02-SRC/04-DRIVER/NRF24L01/NRF24L01.c"
  2824 ;; Parameters:    Size  Location     Type
  2825 ;;  Datarate        1    wreg     unsigned char 
  2826 ;; Auto vars:     Size  Location     Type
  2827 ;;  Datarate        1   12[COMMON] unsigned char 
  2828 ;; Return value:  Size  Location     Type
  2829 ;;                  1    wreg      void 
  2830 ;; Registers used:
  2831 ;;		wreg, fsr1l, fsr1h, status,2, status,0, pclath, cstack
  2832 ;; Tracked objects:
  2833 ;;		On entry : 0/0
  2834 ;;		On exit  : 0/0
  2835 ;;		Unchanged: 0/0
  2836 ;; Data sizes:     COMMON   BANK0   BANK1   BANK2   BANK3   BANK4   BANK5   BANK6
  2837 ;;      Params:         0       0       0       0       0       0       0       0
  2838 ;;      Locals:         1       0       0       0       0       0       0       0
  2839 ;;      Temps:          2       0       0       0       0       0       0       0
  2840 ;;      Totals:         3       0       0       0       0       0       0       0
  2841 ;;Total ram usage:        3 bytes
  2842 ;; Hardware stack levels used:    1
  2843 ;; Hardware stack levels required when called:    3
  2844 ;; This function calls:
  2845 ;;		_NRF_Read_Register
  2846 ;;		_NRF_Write_Register
  2847 ;; This function is called by:
  2848 ;;		_Appl_Init
  2849 ;; This function uses a non-reentrant model
  2850 ;;
  2851                           
  2852                           
  2853                           ;psect for function _NRF_SetRFDataRate
  2854  0B05                     _NRF_SetRFDataRate:
  2855                           
  2856                           ;incstack = 0
  2857                           ; Regs used in _NRF_SetRFDataRate: [wreg+fsr1l+fsr1h+status,2+status,0+pclath+cstack]
  2858                           ;NRF_SetRFDataRate@Datarate stored from wreg
  2859  0B05  00FC               	movwf	NRF_SetRFDataRate@Datarate
  2860  0B06                     l2334:
  2861  0B06  30C8               	movlw	(low ((_NRFChip| 0+4)))& (0+255)
  2862  0B07  00FA               	movwf	??_NRF_SetRFDataRate
  2863  0B08  087A               	movf	??_NRF_SetRFDataRate,w
  2864  0B09  00F1               	movwf	NRF_Read_Register@Bytes
  2865  0B0A  01F2               	clrf	NRF_Read_Register@Length
  2866  0B0B  0AF2               	incf	NRF_Read_Register@Length,f
  2867  0B0C  3006               	movlw	6
  2868  0B0D  318B  23FF  318B   	fcall	_NRF_Read_Register
  2869  0B10                     l2336:
  2870  0B10  087C               	movf	NRF_SetRFDataRate@Datarate,w
  2871  0B11  3901               	andlw	1
  2872  0B12  00FA               	movwf	??_NRF_SetRFDataRate
  2873  0B13  0DFA               	rlf	??_NRF_SetRFDataRate,f
  2874  0B14  0DFA               	rlf	??_NRF_SetRFDataRate,f
  2875  0B15  0DFA               	rlf	??_NRF_SetRFDataRate,f
  2876  0B16  0021               	movlb	1	; select bank1
  2877  0B17  0848               	movf	(_NRFChip^(0+128)+4),w
  2878  0B18  067A               	xorwf	??_NRF_SetRFDataRate,w
  2879  0B19  39F7               	andlw	-9
  2880  0B1A  067A               	xorwf	??_NRF_SetRFDataRate,w
  2881  0B1B  00C8               	movwf	(_NRFChip^(0+128)+4)
  2882  0B1C                     l2338:
  2883  0B1C  30C8               	movlw	(low ((_NRFChip| 0+4)))& (0+255)
  2884  0B1D  00FA               	movwf	??_NRF_SetRFDataRate
  2885  0B1E  087A               	movf	??_NRF_SetRFDataRate,w
  2886  0B1F  00F4               	movwf	NRF_Write_Register@Bytes
  2887  0B20  01F5               	clrf	NRF_Write_Register@Length
  2888  0B21  0AF5               	incf	NRF_Write_Register@Length,f
  2889  0B22  3006               	movlw	6
  2890  0B23  318B  23D1  318B   	fcall	_NRF_Write_Register
  2891  0B26  00FB               	movwf	??_NRF_SetRFDataRate+1
  2892  0B27  087B               	movf	??_NRF_SetRFDataRate+1,w
  2893  0B28  0021               	movlb	1	; select bank1
  2894  0B29  00C9               	movwf	(_NRFChip^(0+128)+5)
  2895  0B2A                     l101:
  2896  0B2A  0008               	return
  2897  0B2B                     __end_of_NRF_SetRFDataRate:
  2898                           
  2899                           	psect	text9
  2900  0B52                     __ptext9:	
  2901 ;; *************** function _NRF_SetRFChannel *****************
  2902 ;; Defined at:
  2903 ;;		line 94 in file "02-SRC/04-DRIVER/NRF24L01/NRF24L01.c"
  2904 ;; Parameters:    Size  Location     Type
  2905 ;;  RF_Channel      1    wreg     unsigned char 
  2906 ;; Auto vars:     Size  Location     Type
  2907 ;;  RF_Channel      1    2[BANK0 ] unsigned char 
  2908 ;; Return value:  Size  Location     Type
  2909 ;;                  1    wreg      void 
  2910 ;; Registers used:
  2911 ;;		wreg, fsr1l, fsr1h, status,2, status,0, pclath, cstack
  2912 ;; Tracked objects:
  2913 ;;		On entry : 0/0
  2914 ;;		On exit  : 0/0
  2915 ;;		Unchanged: 0/0
  2916 ;; Data sizes:     COMMON   BANK0   BANK1   BANK2   BANK3   BANK4   BANK5   BANK6
  2917 ;;      Params:         0       0       0       0       0       0       0       0
  2918 ;;      Locals:         0       3       0       0       0       0       0       0
  2919 ;;      Temps:          2       0       0       0       0       0       0       0
  2920 ;;      Totals:         2       3       0       0       0       0       0       0
  2921 ;;Total ram usage:        5 bytes
  2922 ;; Hardware stack levels used:    1
  2923 ;; Hardware stack levels required when called:    3
  2924 ;; This function calls:
  2925 ;;		_NRF_Write_Register
  2926 ;; This function is called by:
  2927 ;;		_Appl_Init
  2928 ;; This function uses a non-reentrant model
  2929 ;;
  2930                           
  2931                           
  2932                           ;psect for function _NRF_SetRFChannel
  2933  0B52                     _NRF_SetRFChannel:
  2934                           
  2935                           ;incstack = 0
  2936                           ; Regs used in _NRF_SetRFChannel: [wreg+fsr1l+fsr1h+status,2+status,0+pclath+cstack]
  2937                           ;NRF_SetRFChannel@RF_Channel stored from wreg
  2938  0B52  0020               	movlb	0	; select bank0
  2939  0B53  00A2               	movwf	NRF_SetRFChannel@RF_Channel
  2940  0B54                     l2314:
  2941  0B54  307E               	movlw	126
  2942  0B55  0222               	subwf	NRF_SetRFChannel@RF_Channel,w
  2943  0B56  1803               	skipnc
  2944  0B57  2B59               	goto	u2441
  2945  0B58  2B5A               	goto	u2440
  2946  0B59                     u2441:
  2947  0B59  2B62               	goto	l2318
  2948  0B5A                     u2440:
  2949  0B5A                     l2316:
  2950  0B5A  0822               	movf	NRF_SetRFChannel@RF_Channel,w
  2951  0B5B  00FA               	movwf	??_NRF_SetRFChannel
  2952  0B5C  01FB               	clrf	??_NRF_SetRFChannel+1
  2953  0B5D  087A               	movf	??_NRF_SetRFChannel,w
  2954  0B5E  00A0               	movwf	_NRF_SetRFChannel$313
  2955  0B5F  087B               	movf	??_NRF_SetRFChannel+1,w
  2956  0B60  00A1               	movwf	_NRF_SetRFChannel$313+1
  2957  0B61  2B66               	goto	l90
  2958  0B62                     l2318:
  2959  0B62  307D               	movlw	125
  2960  0B63  00A0               	movwf	_NRF_SetRFChannel$313
  2961  0B64  3000               	movlw	0
  2962  0B65  00A1               	movwf	_NRF_SetRFChannel$313+1
  2963  0B66                     l90:
  2964  0B66  0820               	movf	_NRF_SetRFChannel$313,w
  2965  0B67  00FA               	movwf	??_NRF_SetRFChannel
  2966  0B68  087A               	movf	??_NRF_SetRFChannel,w
  2967  0B69  0021               	movlb	1	; select bank1
  2968  0B6A  00C7               	movwf	(_NRFChip^(0+128)+3)
  2969  0B6B                     l2320:
  2970  0B6B  30C7               	movlw	(low ((_NRFChip| 0+3)))& (0+255)
  2971  0B6C  00FA               	movwf	??_NRF_SetRFChannel
  2972  0B6D  087A               	movf	??_NRF_SetRFChannel,w
  2973  0B6E  00F4               	movwf	NRF_Write_Register@Bytes
  2974  0B6F  01F5               	clrf	NRF_Write_Register@Length
  2975  0B70  0AF5               	incf	NRF_Write_Register@Length,f
  2976  0B71  3005               	movlw	5
  2977  0B72  318B  23D1  318B   	fcall	_NRF_Write_Register
  2978  0B75  00FB               	movwf	??_NRF_SetRFChannel+1
  2979  0B76  087B               	movf	??_NRF_SetRFChannel+1,w
  2980  0B77  0021               	movlb	1	; select bank1
  2981  0B78  00C9               	movwf	(_NRFChip^(0+128)+5)
  2982  0B79                     l91:
  2983  0B79  0008               	return
  2984  0B7A                     __end_of_NRF_SetRFChannel:
  2985                           
  2986                           	psect	text10
  2987  0AE0                     __ptext10:	
  2988 ;; *************** function _NRF_SetMaskIRQ *****************
  2989 ;; Defined at:
  2990 ;;		line 165 in file "02-SRC/04-DRIVER/NRF24L01/NRF24L01.c"
  2991 ;; Parameters:    Size  Location     Type
  2992 ;;  IRQMask         1    wreg     unsigned char 
  2993 ;; Auto vars:     Size  Location     Type
  2994 ;;  IRQMask         1   12[COMMON] unsigned char 
  2995 ;; Return value:  Size  Location     Type
  2996 ;;                  1    wreg      void 
  2997 ;; Registers used:
  2998 ;;		wreg, fsr1l, fsr1h, status,2, status,0, pclath, cstack
  2999 ;; Tracked objects:
  3000 ;;		On entry : 0/0
  3001 ;;		On exit  : 0/0
  3002 ;;		Unchanged: 0/0
  3003 ;; Data sizes:     COMMON   BANK0   BANK1   BANK2   BANK3   BANK4   BANK5   BANK6
  3004 ;;      Params:         0       0       0       0       0       0       0       0
  3005 ;;      Locals:         1       0       0       0       0       0       0       0
  3006 ;;      Temps:          2       0       0       0       0       0       0       0
  3007 ;;      Totals:         3       0       0       0       0       0       0       0
  3008 ;;Total ram usage:        3 bytes
  3009 ;; Hardware stack levels used:    1
  3010 ;; Hardware stack levels required when called:    3
  3011 ;; This function calls:
  3012 ;;		_NRF_Read_Register
  3013 ;;		_NRF_Write_Register
  3014 ;; This function is called by:
  3015 ;;		_Appl_Init
  3016 ;; This function uses a non-reentrant model
  3017 ;;
  3018                           
  3019                           
  3020                           ;psect for function _NRF_SetMaskIRQ
  3021  0AE0                     _NRF_SetMaskIRQ:
  3022                           
  3023                           ;incstack = 0
  3024                           ; Regs used in _NRF_SetMaskIRQ: [wreg+fsr1l+fsr1h+status,2+status,0+pclath+cstack]
  3025                           ;NRF_SetMaskIRQ@IRQMask stored from wreg
  3026  0AE0  00FC               	movwf	NRF_SetMaskIRQ@IRQMask
  3027  0AE1                     l2376:
  3028  0AE1  30C4               	movlw	(low (_NRFChip| 0))& (0+255)
  3029  0AE2  00FA               	movwf	??_NRF_SetMaskIRQ
  3030  0AE3  087A               	movf	??_NRF_SetMaskIRQ,w
  3031  0AE4  00F1               	movwf	NRF_Read_Register@Bytes
  3032  0AE5  01F2               	clrf	NRF_Read_Register@Length
  3033  0AE6  0AF2               	incf	NRF_Read_Register@Length,f
  3034  0AE7  3000               	movlw	0
  3035  0AE8  318B  23FF  318A   	fcall	_NRF_Read_Register
  3036  0AEB                     l2378:
  3037  0AEB  087C               	movf	NRF_SetMaskIRQ@IRQMask,w
  3038  0AEC  39F0               	andlw	240
  3039  0AED  00FA               	movwf	??_NRF_SetMaskIRQ
  3040  0AEE  087A               	movf	??_NRF_SetMaskIRQ,w
  3041  0AEF  0021               	movlb	1	; select bank1
  3042  0AF0  04C4               	iorwf	_NRFChip^(0+128),f
  3043  0AF1                     l2380:
  3044  0AF1  087C               	movf	NRF_SetMaskIRQ@IRQMask,w
  3045  0AF2  380F               	iorlw	15
  3046  0AF3  00FA               	movwf	??_NRF_SetMaskIRQ
  3047  0AF4  087A               	movf	??_NRF_SetMaskIRQ,w
  3048  0AF5  05C4               	andwf	_NRFChip^(0+128),f
  3049  0AF6  30C4               	movlw	(low (_NRFChip| 0))& (0+255)
  3050  0AF7  00FA               	movwf	??_NRF_SetMaskIRQ
  3051  0AF8  087A               	movf	??_NRF_SetMaskIRQ,w
  3052  0AF9  00F4               	movwf	NRF_Write_Register@Bytes
  3053  0AFA  01F5               	clrf	NRF_Write_Register@Length
  3054  0AFB  0AF5               	incf	NRF_Write_Register@Length,f
  3055  0AFC  3000               	movlw	0
  3056  0AFD  318B  23D1  318A   	fcall	_NRF_Write_Register
  3057  0B00  00FB               	movwf	??_NRF_SetMaskIRQ+1
  3058  0B01  087B               	movf	??_NRF_SetMaskIRQ+1,w
  3059  0B02  0021               	movlb	1	; select bank1
  3060  0B03  00C9               	movwf	(_NRFChip^(0+128)+5)
  3061  0B04                     l127:
  3062  0B04  0008               	return
  3063  0B05                     __end_of_NRF_SetMaskIRQ:
  3064                           
  3065                           	psect	text11
  3066  0A39                     __ptext11:	
  3067 ;; *************** function _NRF_SetCRCLen *****************
  3068 ;; Defined at:
  3069 ;;		line 87 in file "02-SRC/04-DRIVER/NRF24L01/NRF24L01.c"
  3070 ;; Parameters:    Size  Location     Type
  3071 ;;  Len             1    wreg     unsigned char 
  3072 ;; Auto vars:     Size  Location     Type
  3073 ;;  Len             1   12[COMMON] unsigned char 
  3074 ;; Return value:  Size  Location     Type
  3075 ;;                  1    wreg      void 
  3076 ;; Registers used:
  3077 ;;		wreg, fsr1l, fsr1h, status,2, status,0, pclath, cstack
  3078 ;; Tracked objects:
  3079 ;;		On entry : 0/0
  3080 ;;		On exit  : 0/0
  3081 ;;		Unchanged: 0/0
  3082 ;; Data sizes:     COMMON   BANK0   BANK1   BANK2   BANK3   BANK4   BANK5   BANK6
  3083 ;;      Params:         0       0       0       0       0       0       0       0
  3084 ;;      Locals:         1       0       0       0       0       0       0       0
  3085 ;;      Temps:          2       0       0       0       0       0       0       0
  3086 ;;      Totals:         3       0       0       0       0       0       0       0
  3087 ;;Total ram usage:        3 bytes
  3088 ;; Hardware stack levels used:    1
  3089 ;; Hardware stack levels required when called:    3
  3090 ;; This function calls:
  3091 ;;		_NRF_Read_Register
  3092 ;;		_NRF_Write_Register
  3093 ;; This function is called by:
  3094 ;;		_Appl_Init
  3095 ;; This function uses a non-reentrant model
  3096 ;;
  3097                           
  3098                           
  3099                           ;psect for function _NRF_SetCRCLen
  3100  0A39                     _NRF_SetCRCLen:
  3101                           
  3102                           ;incstack = 0
  3103                           ; Regs used in _NRF_SetCRCLen: [wreg+fsr1l+fsr1h+status,2+status,0+pclath+cstack]
  3104                           ;NRF_SetCRCLen@Len stored from wreg
  3105  0A39  00FC               	movwf	NRF_SetCRCLen@Len
  3106  0A3A                     l2308:
  3107  0A3A  30C4               	movlw	(low (_NRFChip| 0))& (0+255)
  3108  0A3B  00FA               	movwf	??_NRF_SetCRCLen
  3109  0A3C  087A               	movf	??_NRF_SetCRCLen,w
  3110  0A3D  00F1               	movwf	NRF_Read_Register@Bytes
  3111  0A3E  01F2               	clrf	NRF_Read_Register@Length
  3112  0A3F  0AF2               	incf	NRF_Read_Register@Length,f
  3113  0A40  3000               	movlw	0
  3114  0A41  318B  23FF  318A   	fcall	_NRF_Read_Register
  3115  0A44                     l2310:
  3116  0A44  087C               	movf	NRF_SetCRCLen@Len,w
  3117  0A45  3901               	andlw	1
  3118  0A46  0021               	movlb	1	; select bank1
  3119  0A47  1144               	bcf	_NRFChip^(0+128),2
  3120  0A48  1D03               	skipz
  3121  0A49  1544               	bsf	_NRFChip^(0+128),2
  3122  0A4A                     l2312:
  3123  0A4A  30C4               	movlw	(low (_NRFChip| 0))& (0+255)
  3124  0A4B  00FA               	movwf	??_NRF_SetCRCLen
  3125  0A4C  087A               	movf	??_NRF_SetCRCLen,w
  3126  0A4D  00F4               	movwf	NRF_Write_Register@Bytes
  3127  0A4E  01F5               	clrf	NRF_Write_Register@Length
  3128  0A4F  0AF5               	incf	NRF_Write_Register@Length,f
  3129  0A50  3000               	movlw	0
  3130  0A51  318B  23D1  318A   	fcall	_NRF_Write_Register
  3131  0A54  00FB               	movwf	??_NRF_SetCRCLen+1
  3132  0A55  087B               	movf	??_NRF_SetCRCLen+1,w
  3133  0A56  0021               	movlb	1	; select bank1
  3134  0A57  00C9               	movwf	(_NRFChip^(0+128)+5)
  3135  0A58                     l84:
  3136  0A58  0008               	return
  3137  0A59                     __end_of_NRF_SetCRCLen:
  3138                           
  3139                           	psect	text12
  3140  0C2F                     __ptext12:	
  3141 ;; *************** function _NRF_SetAddrWidth *****************
  3142 ;; Defined at:
  3143 ;;		line 114 in file "02-SRC/04-DRIVER/NRF24L01/NRF24L01.c"
  3144 ;; Parameters:    Size  Location     Type
  3145 ;;  AddressWidth    1    wreg     unsigned char 
  3146 ;; Auto vars:     Size  Location     Type
  3147 ;;  AddressWidth    1    2[BANK0 ] unsigned char 
  3148 ;; Return value:  Size  Location     Type
  3149 ;;                  1    wreg      void 
  3150 ;; Registers used:
  3151 ;;		wreg, fsr1l, fsr1h, status,2, status,0, pclath, cstack
  3152 ;; Tracked objects:
  3153 ;;		On entry : 0/0
  3154 ;;		On exit  : 0/0
  3155 ;;		Unchanged: 0/0
  3156 ;; Data sizes:     COMMON   BANK0   BANK1   BANK2   BANK3   BANK4   BANK5   BANK6
  3157 ;;      Params:         0       0       0       0       0       0       0       0
  3158 ;;      Locals:         0       3       0       0       0       0       0       0
  3159 ;;      Temps:          2       0       0       0       0       0       0       0
  3160 ;;      Totals:         2       3       0       0       0       0       0       0
  3161 ;;Total ram usage:        5 bytes
  3162 ;; Hardware stack levels used:    1
  3163 ;; Hardware stack levels required when called:    3
  3164 ;; This function calls:
  3165 ;;		_NRF_Write_Register
  3166 ;; This function is called by:
  3167 ;;		_Appl_Init
  3168 ;; This function uses a non-reentrant model
  3169 ;;
  3170                           
  3171                           
  3172                           ;psect for function _NRF_SetAddrWidth
  3173  0C2F                     _NRF_SetAddrWidth:
  3174                           
  3175                           ;incstack = 0
  3176                           ; Regs used in _NRF_SetAddrWidth: [wreg+fsr1l+fsr1h+status,2+status,0+pclath+cstack]
  3177                           ;NRF_SetAddrWidth@AddressWidth stored from wreg
  3178  0C2F  0020               	movlb	0	; select bank0
  3179  0C30  00A2               	movwf	NRF_SetAddrWidth@AddressWidth
  3180  0C31                     l2340:
  3181  0C31  0822               	movf	NRF_SetAddrWidth@AddressWidth,w
  3182  0C32  1903               	btfsc	3,2
  3183  0C33  2C35               	goto	u2461
  3184  0C34  2C37               	goto	u2460
  3185  0C35                     u2461:
  3186  0C35  3001               	movlw	1
  3187  0C36  2C38               	goto	u2470
  3188  0C37                     u2460:
  3189  0C37  3000               	movlw	0
  3190  0C38                     u2470:
  3191  0C38  00FA               	movwf	??_NRF_SetAddrWidth
  3192  0C39  087A               	movf	??_NRF_SetAddrWidth,w
  3193  0C3A  07A2               	addwf	NRF_SetAddrWidth@AddressWidth,f
  3194  0C3B                     l2342:
  3195  0C3B  3004               	movlw	4
  3196  0C3C  0222               	subwf	NRF_SetAddrWidth@AddressWidth,w
  3197  0C3D  1803               	skipnc
  3198  0C3E  2C40               	goto	u2481
  3199  0C3F  2C41               	goto	u2480
  3200  0C40                     u2481:
  3201  0C40  2C44               	goto	l2346
  3202  0C41                     u2480:
  3203  0C41                     l2344:
  3204  0C41  01A0               	clrf	_NRF_SetAddrWidth$325
  3205  0C42  01A1               	clrf	_NRF_SetAddrWidth$325+1
  3206  0C43  2C48               	goto	l107
  3207  0C44                     l2346:
  3208  0C44  3003               	movlw	3
  3209  0C45  00A0               	movwf	_NRF_SetAddrWidth$325
  3210  0C46  3000               	movlw	0
  3211  0C47  00A1               	movwf	_NRF_SetAddrWidth$325+1
  3212  0C48                     l107:
  3213  0C48  0820               	movf	_NRF_SetAddrWidth$325,w
  3214  0C49  00FA               	movwf	??_NRF_SetAddrWidth
  3215  0C4A  087A               	movf	??_NRF_SetAddrWidth,w
  3216  0C4B  00A2               	movwf	NRF_SetAddrWidth@AddressWidth
  3217  0C4C  0822               	movf	NRF_SetAddrWidth@AddressWidth,w
  3218  0C4D  00FA               	movwf	??_NRF_SetAddrWidth
  3219  0C4E  087A               	movf	??_NRF_SetAddrWidth,w
  3220  0C4F  0021               	movlb	1	; select bank1
  3221  0C50  00C5               	movwf	(_NRFChip^(0+128)+1)
  3222  0C51                     l2348:
  3223  0C51  30C5               	movlw	(low ((_NRFChip| 0+1)))& (0+255)
  3224  0C52  00FA               	movwf	??_NRF_SetAddrWidth
  3225  0C53  087A               	movf	??_NRF_SetAddrWidth,w
  3226  0C54  00F4               	movwf	NRF_Write_Register@Bytes
  3227  0C55  01F5               	clrf	NRF_Write_Register@Length
  3228  0C56  0AF5               	incf	NRF_Write_Register@Length,f
  3229  0C57  3003               	movlw	3
  3230  0C58  318B  23D1  318C   	fcall	_NRF_Write_Register
  3231  0C5B  00FB               	movwf	??_NRF_SetAddrWidth+1
  3232  0C5C  087B               	movf	??_NRF_SetAddrWidth+1,w
  3233  0C5D  0021               	movlb	1	; select bank1
  3234  0C5E  00C9               	movwf	(_NRFChip^(0+128)+5)
  3235  0C5F                     l108:
  3236  0C5F  0008               	return
  3237  0C60                     __end_of_NRF_SetAddrWidth:
  3238                           
  3239                           	psect	text13
  3240  09FD                     __ptext13:	
  3241 ;; *************** function _NRF_SetART *****************
  3242 ;; Defined at:
  3243 ;;		line 122 in file "02-SRC/04-DRIVER/NRF24L01/NRF24L01.c"
  3244 ;; Parameters:    Size  Location     Type
  3245 ;;  count           1    wreg     unsigned char 
  3246 ;;  delay           1   10[COMMON] unsigned char 
  3247 ;; Auto vars:     Size  Location     Type
  3248 ;;  count           1   13[COMMON] unsigned char 
  3249 ;; Return value:  Size  Location     Type
  3250 ;;                  1    wreg      void 
  3251 ;; Registers used:
  3252 ;;		wreg, fsr1l, fsr1h, status,2, status,0, pclath, cstack
  3253 ;; Tracked objects:
  3254 ;;		On entry : 0/0
  3255 ;;		On exit  : 0/0
  3256 ;;		Unchanged: 0/0
  3257 ;; Data sizes:     COMMON   BANK0   BANK1   BANK2   BANK3   BANK4   BANK5   BANK6
  3258 ;;      Params:         1       0       0       0       0       0       0       0
  3259 ;;      Locals:         1       0       0       0       0       0       0       0
  3260 ;;      Temps:          2       0       0       0       0       0       0       0
  3261 ;;      Totals:         4       0       0       0       0       0       0       0
  3262 ;;Total ram usage:        4 bytes
  3263 ;; Hardware stack levels used:    1
  3264 ;; Hardware stack levels required when called:    3
  3265 ;; This function calls:
  3266 ;;		_NRF_Write_Register
  3267 ;; This function is called by:
  3268 ;;		_Appl_Init
  3269 ;; This function uses a non-reentrant model
  3270 ;;
  3271                           
  3272                           
  3273                           ;psect for function _NRF_SetART
  3274  09FD                     _NRF_SetART:
  3275                           
  3276                           ;incstack = 0
  3277                           ; Regs used in _NRF_SetART: [wreg+fsr1l+fsr1h+status,2+status,0+pclath+cstack]
  3278                           ;NRF_SetART@count stored from wreg
  3279  09FD  00FD               	movwf	NRF_SetART@count
  3280  09FE                     l2350:
  3281  09FE  0021               	movlb	1	; select bank1
  3282  09FF  0846               	movf	(_NRFChip^(0+128)+2),w
  3283  0A00  067D               	xorwf	NRF_SetART@count,w
  3284  0A01  39F0               	andlw	-16
  3285  0A02  067D               	xorwf	NRF_SetART@count,w
  3286  0A03  00C6               	movwf	(_NRFChip^(0+128)+2)
  3287  0A04  087A               	movf	NRF_SetART@delay,w
  3288  0A05  00FB               	movwf	??_NRF_SetART
  3289  0A06  0EFB               	swapf	??_NRF_SetART,f
  3290  0A07  0846               	movf	(_NRFChip^(0+128)+2),w
  3291  0A08  067B               	xorwf	??_NRF_SetART,w
  3292  0A09  390F               	andlw	-241
  3293  0A0A  067B               	xorwf	??_NRF_SetART,w
  3294  0A0B  00C6               	movwf	(_NRFChip^(0+128)+2)
  3295  0A0C                     l2352:
  3296  0A0C  30C6               	movlw	(low ((_NRFChip| 0+2)))& (0+255)
  3297  0A0D  00FB               	movwf	??_NRF_SetART
  3298  0A0E  087B               	movf	??_NRF_SetART,w
  3299  0A0F  00F4               	movwf	NRF_Write_Register@Bytes
  3300  0A10  01F5               	clrf	NRF_Write_Register@Length
  3301  0A11  0AF5               	incf	NRF_Write_Register@Length,f
  3302  0A12  3004               	movlw	4
  3303  0A13  318B  23D1  3189   	fcall	_NRF_Write_Register
  3304  0A16  00FC               	movwf	??_NRF_SetART+1
  3305  0A17  087C               	movf	??_NRF_SetART+1,w
  3306  0A18  0021               	movlb	1	; select bank1
  3307  0A19  00C9               	movwf	(_NRFChip^(0+128)+5)
  3308  0A1A                     l111:
  3309  0A1A  0008               	return
  3310  0A1B                     __end_of_NRF_SetART:
  3311                           
  3312                           	psect	text14
  3313  0EBA                     __ptext14:	
  3314 ;; *************** function _NRF_OpenReadingPipe *****************
  3315 ;; Defined at:
  3316 ;;		line 16 in file "02-SRC/04-DRIVER/NRF24L01/NRF24L01.c"
  3317 ;; Parameters:    Size  Location     Type
  3318 ;;  PipeNo          1    wreg     unsigned char 
  3319 ;;  PipeAddr        2    0[BANK0 ] PTR unsigned char 
  3320 ;;		 -> STR_1(6), 
  3321 ;;  PayloadLengt    1    2[BANK0 ] unsigned char 
  3322 ;;  AutoAck         1    3[BANK0 ] unsigned char 
  3323 ;;  Enable          1    4[BANK0 ] unsigned char 
  3324 ;; Auto vars:     Size  Location     Type
  3325 ;;  PipeNo          1   14[BANK0 ] unsigned char 
  3326 ;;  i               1   13[BANK0 ] unsigned char 
  3327 ;;  AW              1   12[BANK0 ] unsigned char 
  3328 ;; Return value:  Size  Location     Type
  3329 ;;                  1    wreg      void 
  3330 ;; Registers used:
  3331 ;;		wreg, fsr0l, fsr0h, fsr1l, fsr1h, status,2, status,0, pclath, cstack
  3332 ;; Tracked objects:
  3333 ;;		On entry : 0/0
  3334 ;;		On exit  : 0/0
  3335 ;;		Unchanged: 0/0
  3336 ;; Data sizes:     COMMON   BANK0   BANK1   BANK2   BANK3   BANK4   BANK5   BANK6
  3337 ;;      Params:         0       5       0       0       0       0       0       0
  3338 ;;      Locals:         0       5       0       0       0       0       0       0
  3339 ;;      Temps:          0       5       0       0       0       0       0       0
  3340 ;;      Totals:         0      15       0       0       0       0       0       0
  3341 ;;Total ram usage:       15 bytes
  3342 ;; Hardware stack levels used:    1
  3343 ;; Hardware stack levels required when called:    4
  3344 ;; This function calls:
  3345 ;;		_NRF_PipeEnable
  3346 ;;		_NRF_PipeEnableAA
  3347 ;;		_NRF_Write_Register
  3348 ;;		___bmul
  3349 ;; This function is called by:
  3350 ;;		_Appl_Init
  3351 ;; This function uses a non-reentrant model
  3352 ;;
  3353                           
  3354                           
  3355                           ;psect for function _NRF_OpenReadingPipe
  3356  0EBA                     _NRF_OpenReadingPipe:
  3357                           
  3358                           ;incstack = 0
  3359                           ; Regs used in _NRF_OpenReadingPipe: [wreg-fsr1h+status,2+status,0+pclath+cstack]
  3360                           ;NRF_OpenReadingPipe@PipeNo stored from wreg
  3361  0EBA  0020               	movlb	0	; select bank0
  3362  0EBB  00AE               	movwf	NRF_OpenReadingPipe@PipeNo
  3363  0EBC                     l2278:
  3364  0EBC  0021               	movlb	1	; select bank1
  3365  0EBD  0845               	movf	(_NRFChip^(0+128)+1),w
  3366  0EBE  3E02               	addlw	2
  3367  0EBF  0020               	movlb	0	; select bank0
  3368  0EC0  00A5               	movwf	??_NRF_OpenReadingPipe
  3369  0EC1  0825               	movf	??_NRF_OpenReadingPipe,w
  3370  0EC2  00AC               	movwf	NRF_OpenReadingPipe@AW
  3371  0EC3                     l2280:
  3372  0EC3  0822               	movf	NRF_OpenReadingPipe@PayloadLength,w
  3373  0EC4  00A5               	movwf	??_NRF_OpenReadingPipe
  3374  0EC5  3006               	movlw	6
  3375  0EC6  00A6               	movwf	??_NRF_OpenReadingPipe+1
  3376  0EC7  0826               	movf	??_NRF_OpenReadingPipe+1,w
  3377  0EC8  00F0               	movwf	___bmul@multiplicand
  3378  0EC9  082E               	movf	NRF_OpenReadingPipe@PipeNo,w
  3379  0ECA  3189  21E8  318E   	fcall	___bmul
  3380  0ECD  3EA0               	addlw	(low (_NFR_RxPipes| 0))& (0+255)
  3381  0ECE  0086               	movwf	6
  3382  0ECF  0187               	clrf	7
  3383  0ED0  0020               	movlb	0	; select bank0
  3384  0ED1  0825               	movf	??_NRF_OpenReadingPipe,w
  3385  0ED2  0081               	movwf	1
  3386  0ED3                     l2282:
  3387  0ED3  01AD               	clrf	NRF_OpenReadingPipe@i
  3388  0ED4  2EF7               	goto	l2288
  3389  0ED5                     l2284:
  3390  0ED5  0821               	movf	NRF_OpenReadingPipe@PipeAddr+1,w
  3391  0ED6  00A6               	movwf	??_NRF_OpenReadingPipe+1
  3392  0ED7  0820               	movf	NRF_OpenReadingPipe@PipeAddr,w
  3393  0ED8  00A5               	movwf	??_NRF_OpenReadingPipe
  3394  0ED9  082D               	movf	NRF_OpenReadingPipe@i,w
  3395  0EDA  0725               	addwf	??_NRF_OpenReadingPipe,w
  3396  0EDB  0084               	movwf	4
  3397  0EDC  0826               	movf	??_NRF_OpenReadingPipe+1,w
  3398  0EDD  1803               	skipnc
  3399  0EDE  0A26               	incf	??_NRF_OpenReadingPipe+1,w
  3400  0EDF  0085               	movwf	5
  3401  0EE0  0800               	movf	0,w	;code access
  3402  0EE1  00A7               	movwf	??_NRF_OpenReadingPipe+2
  3403  0EE2  3006               	movlw	6
  3404  0EE3  00A8               	movwf	??_NRF_OpenReadingPipe+3
  3405  0EE4  0828               	movf	??_NRF_OpenReadingPipe+3,w
  3406  0EE5  00F0               	movwf	___bmul@multiplicand
  3407  0EE6  082E               	movf	NRF_OpenReadingPipe@PipeNo,w
  3408  0EE7  3189  21E8  318E   	fcall	___bmul
  3409  0EEA  3EA1               	addlw	(low ((_NFR_RxPipes| 0+1)))& (0+255)
  3410  0EEB  0020               	movlb	0	; select bank0
  3411  0EEC  072D               	addwf	NRF_OpenReadingPipe@i,w
  3412  0EED  00A9               	movwf	??_NRF_OpenReadingPipe+4
  3413  0EEE  0829               	movf	??_NRF_OpenReadingPipe+4,w
  3414  0EEF  0086               	movwf	6
  3415  0EF0  0187               	clrf	7
  3416  0EF1  0827               	movf	??_NRF_OpenReadingPipe+2,w
  3417  0EF2  0081               	movwf	1
  3418  0EF3                     l2286:
  3419  0EF3  3001               	movlw	1
  3420  0EF4  00A5               	movwf	??_NRF_OpenReadingPipe
  3421  0EF5  0825               	movf	??_NRF_OpenReadingPipe,w
  3422  0EF6  07AD               	addwf	NRF_OpenReadingPipe@i,f
  3423  0EF7                     l2288:
  3424  0EF7  082C               	movf	NRF_OpenReadingPipe@AW,w
  3425  0EF8  022D               	subwf	NRF_OpenReadingPipe@i,w
  3426  0EF9  1C03               	skipc
  3427  0EFA  2EFC               	goto	u2401
  3428  0EFB  2EFD               	goto	u2400
  3429  0EFC                     u2401:
  3430  0EFC  2ED5               	goto	l2284
  3431  0EFD                     u2400:
  3432  0EFD                     l2290:
  3433  0EFD  0824               	movf	NRF_OpenReadingPipe@Enable,w
  3434  0EFE  1903               	btfsc	3,2
  3435  0EFF  2F01               	goto	u2411
  3436  0F00  2F02               	goto	u2410
  3437  0F01                     u2411:
  3438  0F01  2F06               	goto	l2294
  3439  0F02                     u2410:
  3440  0F02                     l2292:
  3441  0F02  082E               	movf	NRF_OpenReadingPipe@PipeNo,w
  3442  0F03  318A  2259  318E   	fcall	_NRF_PipeEnable
  3443  0F06                     l2294:
  3444  0F06  0020               	movlb	0	; select bank0
  3445  0F07  0823               	movf	NRF_OpenReadingPipe@AutoAck,w
  3446  0F08  1903               	btfsc	3,2
  3447  0F09  2F0B               	goto	u2421
  3448  0F0A  2F0C               	goto	u2420
  3449  0F0B                     u2421:
  3450  0F0B  2F10               	goto	l2298
  3451  0F0C                     u2420:
  3452  0F0C                     l2296:
  3453  0F0C  082E               	movf	NRF_OpenReadingPipe@PipeNo,w
  3454  0F0D  318A  227A  318E   	fcall	_NRF_PipeEnableAA
  3455  0F10                     l2298:
  3456  0F10  3002               	movlw	2
  3457  0F11  0020               	movlb	0	; select bank0
  3458  0F12  022E               	subwf	NRF_OpenReadingPipe@PipeNo,w
  3459  0F13  1803               	skipnc
  3460  0F14  2F16               	goto	u2431
  3461  0F15  2F17               	goto	u2430
  3462  0F16                     u2431:
  3463  0F16  2F1F               	goto	l2302
  3464  0F17                     u2430:
  3465  0F17                     l2300:
  3466  0F17  082C               	movf	NRF_OpenReadingPipe@AW,w
  3467  0F18  00A5               	movwf	??_NRF_OpenReadingPipe
  3468  0F19  01A6               	clrf	??_NRF_OpenReadingPipe+1
  3469  0F1A  0825               	movf	??_NRF_OpenReadingPipe,w
  3470  0F1B  00AA               	movwf	_NRF_OpenReadingPipe$285
  3471  0F1C  0826               	movf	??_NRF_OpenReadingPipe+1,w
  3472  0F1D  00AB               	movwf	_NRF_OpenReadingPipe$285+1
  3473  0F1E  2F23               	goto	l2304
  3474  0F1F                     l2302:
  3475  0F1F  3001               	movlw	1
  3476  0F20  00AA               	movwf	_NRF_OpenReadingPipe$285
  3477  0F21  3000               	movlw	0
  3478  0F22  00AB               	movwf	_NRF_OpenReadingPipe$285+1
  3479  0F23                     l2304:
  3480  0F23  3006               	movlw	6
  3481  0F24  00A5               	movwf	??_NRF_OpenReadingPipe
  3482  0F25  0825               	movf	??_NRF_OpenReadingPipe,w
  3483  0F26  00F0               	movwf	___bmul@multiplicand
  3484  0F27  082E               	movf	NRF_OpenReadingPipe@PipeNo,w
  3485  0F28  3189  21E8  318E   	fcall	___bmul
  3486  0F2B  3EA1               	addlw	(low ((_NFR_RxPipes| 0+1)))& (0+255)
  3487  0F2C  0020               	movlb	0	; select bank0
  3488  0F2D  00A6               	movwf	??_NRF_OpenReadingPipe+1
  3489  0F2E  0826               	movf	??_NRF_OpenReadingPipe+1,w
  3490  0F2F  00F4               	movwf	NRF_Write_Register@Bytes
  3491  0F30  082A               	movf	_NRF_OpenReadingPipe$285,w
  3492  0F31  00A7               	movwf	??_NRF_OpenReadingPipe+2
  3493  0F32  0827               	movf	??_NRF_OpenReadingPipe+2,w
  3494  0F33  00F5               	movwf	NRF_Write_Register@Length
  3495  0F34  082E               	movf	NRF_OpenReadingPipe@PipeNo,w
  3496  0F35  3E0A               	addlw	10
  3497  0F36  318B  23D1  318E   	fcall	_NRF_Write_Register
  3498  0F39                     l2306:
  3499  0F39  3006               	movlw	6
  3500  0F3A  0020               	movlb	0	; select bank0
  3501  0F3B  00A5               	movwf	??_NRF_OpenReadingPipe
  3502  0F3C  0825               	movf	??_NRF_OpenReadingPipe,w
  3503  0F3D  00F0               	movwf	___bmul@multiplicand
  3504  0F3E  082E               	movf	NRF_OpenReadingPipe@PipeNo,w
  3505  0F3F  3189  21E8  318E   	fcall	___bmul
  3506  0F42  3EA0               	addlw	(low (_NFR_RxPipes| 0))& (0+255)
  3507  0F43  0020               	movlb	0	; select bank0
  3508  0F44  00A6               	movwf	??_NRF_OpenReadingPipe+1
  3509  0F45  0826               	movf	??_NRF_OpenReadingPipe+1,w
  3510  0F46  00F4               	movwf	NRF_Write_Register@Bytes
  3511  0F47  01F5               	clrf	NRF_Write_Register@Length
  3512  0F48  0AF5               	incf	NRF_Write_Register@Length,f
  3513  0F49  082E               	movf	NRF_OpenReadingPipe@PipeNo,w
  3514  0F4A  3E11               	addlw	17
  3515  0F4B  318B  23D1  318E   	fcall	_NRF_Write_Register
  3516  0F4E  0020               	movlb	0	; select bank0
  3517  0F4F  00A7               	movwf	??_NRF_OpenReadingPipe+2
  3518  0F50  0827               	movf	??_NRF_OpenReadingPipe+2,w
  3519  0F51  0021               	movlb	1	; select bank1
  3520  0F52  00C9               	movwf	(_NRFChip^(0+128)+5)
  3521  0F53                     l63:
  3522  0F53  0008               	return
  3523  0F54                     __end_of_NRF_OpenReadingPipe:
  3524                           
  3525                           	psect	text15
  3526  09E8                     __ptext15:	
  3527 ;; *************** function ___bmul *****************
  3528 ;; Defined at:
  3529 ;;		line 4 in file "C:\Program Files (x86)\Microchip\xc8\pic\sources\c99\common\Umul8.c"
  3530 ;; Parameters:    Size  Location     Type
  3531 ;;  multiplier      1    wreg     unsigned char 
  3532 ;;  multiplicand    1    0[COMMON] unsigned char 
  3533 ;; Auto vars:     Size  Location     Type
  3534 ;;  multiplier      1    3[COMMON] unsigned char 
  3535 ;;  product         1    2[COMMON] unsigned char 
  3536 ;; Return value:  Size  Location     Type
  3537 ;;                  1    wreg      unsigned char 
  3538 ;; Registers used:
  3539 ;;		wreg, status,2, status,0
  3540 ;; Tracked objects:
  3541 ;;		On entry : 0/0
  3542 ;;		On exit  : 0/0
  3543 ;;		Unchanged: 0/0
  3544 ;; Data sizes:     COMMON   BANK0   BANK1   BANK2   BANK3   BANK4   BANK5   BANK6
  3545 ;;      Params:         1       0       0       0       0       0       0       0
  3546 ;;      Locals:         2       0       0       0       0       0       0       0
  3547 ;;      Temps:          1       0       0       0       0       0       0       0
  3548 ;;      Totals:         4       0       0       0       0       0       0       0
  3549 ;;Total ram usage:        4 bytes
  3550 ;; Hardware stack levels used:    1
  3551 ;; Hardware stack levels required when called:    1
  3552 ;; This function calls:
  3553 ;;		Nothing
  3554 ;; This function is called by:
  3555 ;;		_NRF_OpenReadingPipe
  3556 ;; This function uses a non-reentrant model
  3557 ;;
  3558                           
  3559                           
  3560                           ;psect for function ___bmul
  3561  09E8                     ___bmul:
  3562                           
  3563                           ;incstack = 0
  3564                           ; Regs used in ___bmul: [wreg+status,2+status,0]
  3565                           ;___bmul@multiplier stored from wreg
  3566  09E8  00F3               	movwf	___bmul@multiplier
  3567  09E9                     l1898:
  3568  09E9  01F2               	clrf	___bmul@product
  3569  09EA                     l1900:
  3570  09EA  1C73               	btfss	___bmul@multiplier,0
  3571  09EB  29ED               	goto	u1591
  3572  09EC  29EE               	goto	u1590
  3573  09ED                     u1591:
  3574  09ED  29F2               	goto	l1904
  3575  09EE                     u1590:
  3576  09EE                     l1902:
  3577  09EE  0870               	movf	___bmul@multiplicand,w
  3578  09EF  00F1               	movwf	??___bmul
  3579  09F0  0871               	movf	??___bmul,w
  3580  09F1  07F2               	addwf	___bmul@product,f
  3581  09F2                     l1904:
  3582  09F2  1003               	clrc
  3583  09F3  0DF0               	rlf	___bmul@multiplicand,f
  3584  09F4                     l1906:
  3585  09F4  1003               	clrc
  3586  09F5  0CF3               	rrf	___bmul@multiplier,f
  3587  09F6  0873               	movf	___bmul@multiplier,w
  3588  09F7  1D03               	btfss	3,2
  3589  09F8  29FA               	goto	u1601
  3590  09F9  29FB               	goto	u1600
  3591  09FA                     u1601:
  3592  09FA  29EA               	goto	l1900
  3593  09FB                     u1600:
  3594  09FB                     l1908:
  3595  09FB  0872               	movf	___bmul@product,w
  3596  09FC                     l452:
  3597  09FC  0008               	return
  3598  09FD                     __end_of___bmul:
  3599                           
  3600                           	psect	text16
  3601  0A7A                     __ptext16:	
  3602 ;; *************** function _NRF_PipeEnableAA *****************
  3603 ;; Defined at:
  3604 ;;		line 64 in file "02-SRC/04-DRIVER/NRF24L01/NRF24L01.c"
  3605 ;; Parameters:    Size  Location     Type
  3606 ;;  PipeNo          1    wreg     unsigned char 
  3607 ;; Auto vars:     Size  Location     Type
  3608 ;;  PipeNo          1   12[COMMON] unsigned char 
  3609 ;;  AA              1   13[COMMON] unsigned char 
  3610 ;; Return value:  Size  Location     Type
  3611 ;;                  1    wreg      void 
  3612 ;; Registers used:
  3613 ;;		wreg, fsr1l, fsr1h, status,2, status,0, pclath, cstack
  3614 ;; Tracked objects:
  3615 ;;		On entry : 0/0
  3616 ;;		On exit  : 0/0
  3617 ;;		Unchanged: 0/0
  3618 ;; Data sizes:     COMMON   BANK0   BANK1   BANK2   BANK3   BANK4   BANK5   BANK6
  3619 ;;      Params:         0       0       0       0       0       0       0       0
  3620 ;;      Locals:         2       0       0       0       0       0       0       0
  3621 ;;      Temps:          2       0       0       0       0       0       0       0
  3622 ;;      Totals:         4       0       0       0       0       0       0       0
  3623 ;;Total ram usage:        4 bytes
  3624 ;; Hardware stack levels used:    1
  3625 ;; Hardware stack levels required when called:    3
  3626 ;; This function calls:
  3627 ;;		_NRF_Read_Register
  3628 ;;		_NRF_Write_Register
  3629 ;; This function is called by:
  3630 ;;		_NRF_OpenReadingPipe
  3631 ;; This function uses a non-reentrant model
  3632 ;;
  3633                           
  3634                           
  3635                           ;psect for function _NRF_PipeEnableAA
  3636  0A7A                     _NRF_PipeEnableAA:
  3637                           
  3638                           ;incstack = 0
  3639                           ; Regs used in _NRF_PipeEnableAA: [wreg+fsr1l+fsr1h+status,2+status,0+pclath+cstack]
  3640                           ;NRF_PipeEnableAA@PipeNo stored from wreg
  3641  0A7A  00FC               	movwf	NRF_PipeEnableAA@PipeNo
  3642  0A7B                     l1872:
  3643  0A7B  307D               	movlw	(low (NRF_PipeEnableAA@AA| 0))& (0+255)
  3644  0A7C  00FA               	movwf	??_NRF_PipeEnableAA
  3645  0A7D  087A               	movf	??_NRF_PipeEnableAA,w
  3646  0A7E  00F1               	movwf	NRF_Read_Register@Bytes
  3647  0A7F  01F2               	clrf	NRF_Read_Register@Length
  3648  0A80  0AF2               	incf	NRF_Read_Register@Length,f
  3649  0A81  3001               	movlw	1
  3650  0A82  318B  23FF  318A   	fcall	_NRF_Read_Register
  3651  0A85                     l1874:
  3652  0A85  3001               	movlw	1
  3653  0A86  00FA               	movwf	??_NRF_PipeEnableAA
  3654  0A87  0A7C               	incf	NRF_PipeEnableAA@PipeNo,w
  3655  0A88  2A8A               	goto	u1534
  3656  0A89                     u1535:
  3657  0A89  35FA               	lslf	??_NRF_PipeEnableAA,f
  3658  0A8A                     u1534:
  3659  0A8A  0B89               	decfsz	9,f
  3660  0A8B  2A89               	goto	u1535
  3661  0A8C  087A               	movf	??_NRF_PipeEnableAA,w
  3662  0A8D  00FB               	movwf	??_NRF_PipeEnableAA+1
  3663  0A8E  087B               	movf	??_NRF_PipeEnableAA+1,w
  3664  0A8F  04FD               	iorwf	NRF_PipeEnableAA@AA,f
  3665  0A90                     l1876:
  3666  0A90  307D               	movlw	(low (NRF_PipeEnableAA@AA| 0))& (0+255)
  3667  0A91  00FA               	movwf	??_NRF_PipeEnableAA
  3668  0A92  087A               	movf	??_NRF_PipeEnableAA,w
  3669  0A93  00F4               	movwf	NRF_Write_Register@Bytes
  3670  0A94  01F5               	clrf	NRF_Write_Register@Length
  3671  0A95  0AF5               	incf	NRF_Write_Register@Length,f
  3672  0A96  3001               	movlw	1
  3673  0A97  318B  23D1  318A   	fcall	_NRF_Write_Register
  3674  0A9A                     l75:
  3675  0A9A  0008               	return
  3676  0A9B                     __end_of_NRF_PipeEnableAA:
  3677                           
  3678                           	psect	text17
  3679  0A59                     __ptext17:	
  3680 ;; *************** function _NRF_PipeEnable *****************
  3681 ;; Defined at:
  3682 ;;		line 48 in file "02-SRC/04-DRIVER/NRF24L01/NRF24L01.c"
  3683 ;; Parameters:    Size  Location     Type
  3684 ;;  PipeNo          1    wreg     unsigned char 
  3685 ;; Auto vars:     Size  Location     Type
  3686 ;;  PipeNo          1   12[COMMON] unsigned char 
  3687 ;;  EN              1   13[COMMON] unsigned char 
  3688 ;; Return value:  Size  Location     Type
  3689 ;;                  1    wreg      void 
  3690 ;; Registers used:
  3691 ;;		wreg, fsr1l, fsr1h, status,2, status,0, pclath, cstack
  3692 ;; Tracked objects:
  3693 ;;		On entry : 0/0
  3694 ;;		On exit  : 0/0
  3695 ;;		Unchanged: 0/0
  3696 ;; Data sizes:     COMMON   BANK0   BANK1   BANK2   BANK3   BANK4   BANK5   BANK6
  3697 ;;      Params:         0       0       0       0       0       0       0       0
  3698 ;;      Locals:         2       0       0       0       0       0       0       0
  3699 ;;      Temps:          2       0       0       0       0       0       0       0
  3700 ;;      Totals:         4       0       0       0       0       0       0       0
  3701 ;;Total ram usage:        4 bytes
  3702 ;; Hardware stack levels used:    1
  3703 ;; Hardware stack levels required when called:    3
  3704 ;; This function calls:
  3705 ;;		_NRF_Read_Register
  3706 ;;		_NRF_Write_Register
  3707 ;; This function is called by:
  3708 ;;		_NRF_OpenReadingPipe
  3709 ;; This function uses a non-reentrant model
  3710 ;;
  3711                           
  3712                           
  3713                           ;psect for function _NRF_PipeEnable
  3714  0A59                     _NRF_PipeEnable:
  3715                           
  3716                           ;incstack = 0
  3717                           ; Regs used in _NRF_PipeEnable: [wreg+fsr1l+fsr1h+status,2+status,0+pclath+cstack]
  3718                           ;NRF_PipeEnable@PipeNo stored from wreg
  3719  0A59  00FC               	movwf	NRF_PipeEnable@PipeNo
  3720  0A5A                     l1866:
  3721  0A5A  307D               	movlw	(low (NRF_PipeEnable@EN| 0))& (0+255)
  3722  0A5B  00FA               	movwf	??_NRF_PipeEnable
  3723  0A5C  087A               	movf	??_NRF_PipeEnable,w
  3724  0A5D  00F1               	movwf	NRF_Read_Register@Bytes
  3725  0A5E  01F2               	clrf	NRF_Read_Register@Length
  3726  0A5F  0AF2               	incf	NRF_Read_Register@Length,f
  3727  0A60  3002               	movlw	2
  3728  0A61  318B  23FF  318A   	fcall	_NRF_Read_Register
  3729  0A64                     l1868:
  3730  0A64  3001               	movlw	1
  3731  0A65  00FA               	movwf	??_NRF_PipeEnable
  3732  0A66  0A7C               	incf	NRF_PipeEnable@PipeNo,w
  3733  0A67  2A69               	goto	u1524
  3734  0A68                     u1525:
  3735  0A68  35FA               	lslf	??_NRF_PipeEnable,f
  3736  0A69                     u1524:
  3737  0A69  0B89               	decfsz	9,f
  3738  0A6A  2A68               	goto	u1525
  3739  0A6B  087A               	movf	??_NRF_PipeEnable,w
  3740  0A6C  00FB               	movwf	??_NRF_PipeEnable+1
  3741  0A6D  087B               	movf	??_NRF_PipeEnable+1,w
  3742  0A6E  04FD               	iorwf	NRF_PipeEnable@EN,f
  3743  0A6F                     l1870:
  3744  0A6F  307D               	movlw	(low (NRF_PipeEnable@EN| 0))& (0+255)
  3745  0A70  00FA               	movwf	??_NRF_PipeEnable
  3746  0A71  087A               	movf	??_NRF_PipeEnable,w
  3747  0A72  00F4               	movwf	NRF_Write_Register@Bytes
  3748  0A73  01F5               	clrf	NRF_Write_Register@Length
  3749  0A74  0AF5               	incf	NRF_Write_Register@Length,f
  3750  0A75  3002               	movlw	2
  3751  0A76  318B  23D1  318A   	fcall	_NRF_Write_Register
  3752  0A79                     l69:
  3753  0A79  0008               	return
  3754  0A7A                     __end_of_NRF_PipeEnable:
  3755                           
  3756                           	psect	text18
  3757  097A                     __ptext18:	
  3758 ;; *************** function _NRF24L01_Init *****************
  3759 ;; Defined at:
  3760 ;;		line 9 in file "02-SRC/04-DRIVER/NRF24L01/NRF24L01.c"
  3761 ;; Parameters:    Size  Location     Type
  3762 ;;  SPI_Exchange    2    2[COMMON] PTR FTN(unsigned char ,)
  3763 ;;		 -> SPI_Exchange(1), 
  3764 ;; Auto vars:     Size  Location     Type
  3765 ;;		None
  3766 ;; Return value:  Size  Location     Type
  3767 ;;                  1    wreg      void 
  3768 ;; Registers used:
  3769 ;;		wreg, status,2, status,0, pclath, cstack
  3770 ;; Tracked objects:
  3771 ;;		On entry : 0/0
  3772 ;;		On exit  : 0/0
  3773 ;;		Unchanged: 0/0
  3774 ;; Data sizes:     COMMON   BANK0   BANK1   BANK2   BANK3   BANK4   BANK5   BANK6
  3775 ;;      Params:         2       0       0       0       0       0       0       0
  3776 ;;      Locals:         0       0       0       0       0       0       0       0
  3777 ;;      Temps:          0       0       0       0       0       0       0       0
  3778 ;;      Totals:         2       0       0       0       0       0       0       0
  3779 ;;Total ram usage:        2 bytes
  3780 ;; Hardware stack levels used:    1
  3781 ;; Hardware stack levels required when called:    2
  3782 ;; This function calls:
  3783 ;;		_NRF_Set_SPI_Handler
  3784 ;; This function is called by:
  3785 ;;		_Appl_Init
  3786 ;; This function uses a non-reentrant model
  3787 ;;
  3788                           
  3789                           
  3790                           ;psect for function _NRF24L01_Init
  3791  097A                     _NRF24L01_Init:
  3792  097A                     l2272:	
  3793                           ;incstack = 0
  3794                           ; Regs used in _NRF24L01_Init: [wreg+status,2+status,0+pclath+cstack]
  3795                           
  3796  097A  0873               	movf	NRF24L01_Init@SPI_Exchange+1,w
  3797  097B  00F1               	movwf	NRF_Set_SPI_Handler@SPI_Handler+1
  3798  097C  0872               	movf	NRF24L01_Init@SPI_Exchange,w
  3799  097D  00F0               	movwf	NRF_Set_SPI_Handler@SPI_Handler
  3800  097E  3189  216B  3189   	fcall	_NRF_Set_SPI_Handler
  3801  0981                     l2274:
  3802  0981  0022               	movlb	2	; select bank2
  3803  0982  100E               	bcf	14,0	;volatile
  3804  0983                     l2276:
  3805  0983  148E               	bsf	14,1	;volatile
  3806  0984                     l49:
  3807  0984  0008               	return
  3808  0985                     __end_of_NRF24L01_Init:
  3809                           
  3810                           	psect	text19
  3811  096B                     __ptext19:	
  3812 ;; *************** function _NRF_Set_SPI_Handler *****************
  3813 ;; Defined at:
  3814 ;;		line 256 in file "02-SRC/04-DRIVER/NRF24L01/NRF24L01.c"
  3815 ;; Parameters:    Size  Location     Type
  3816 ;;  SPI_Handler     2    0[COMMON] PTR FTN(unsigned char ,)
  3817 ;;		 -> SPI_Exchange(1), 
  3818 ;; Auto vars:     Size  Location     Type
  3819 ;;		None
  3820 ;; Return value:  Size  Location     Type
  3821 ;;                  1    wreg      void 
  3822 ;; Registers used:
  3823 ;;		wreg
  3824 ;; Tracked objects:
  3825 ;;		On entry : 0/0
  3826 ;;		On exit  : 0/0
  3827 ;;		Unchanged: 0/0
  3828 ;; Data sizes:     COMMON   BANK0   BANK1   BANK2   BANK3   BANK4   BANK5   BANK6
  3829 ;;      Params:         2       0       0       0       0       0       0       0
  3830 ;;      Locals:         0       0       0       0       0       0       0       0
  3831 ;;      Temps:          0       0       0       0       0       0       0       0
  3832 ;;      Totals:         2       0       0       0       0       0       0       0
  3833 ;;Total ram usage:        2 bytes
  3834 ;; Hardware stack levels used:    1
  3835 ;; Hardware stack levels required when called:    1
  3836 ;; This function calls:
  3837 ;;		Nothing
  3838 ;; This function is called by:
  3839 ;;		_NRF24L01_Init
  3840 ;; This function uses a non-reentrant model
  3841 ;;
  3842                           
  3843                           
  3844                           ;psect for function _NRF_Set_SPI_Handler
  3845  096B                     _NRF_Set_SPI_Handler:
  3846  096B                     l1864:	
  3847                           ;incstack = 0
  3848                           ; Regs used in _NRF_Set_SPI_Handler: [wreg]
  3849                           
  3850  096B  0871               	movf	NRF_Set_SPI_Handler@SPI_Handler+1,w
  3851  096C  0020               	movlb	0	; select bank0
  3852  096D  00EC               	movwf	_p_NRF_SPI_Exchange+1
  3853  096E  0870               	movf	NRF_Set_SPI_Handler@SPI_Handler,w
  3854  096F  00EB               	movwf	_p_NRF_SPI_Exchange
  3855  0970                     l168:
  3856  0970  0008               	return
  3857  0971                     __end_of_NRF_Set_SPI_Handler:
  3858                           
  3859                           	psect	text20
  3860  0E5F                     __ptext20:	
  3861 ;; *************** function _APPL_TASK_10MS *****************
  3862 ;; Defined at:
  3863 ;;		line 197 in file "02-SRC/02-APPLICATION/Appl.c"
  3864 ;; Parameters:    Size  Location     Type
  3865 ;;		None
  3866 ;; Auto vars:     Size  Location     Type
  3867 ;;		None
  3868 ;; Return value:  Size  Location     Type
  3869 ;;                  1    wreg      void 
  3870 ;; Registers used:
  3871 ;;		wreg, fsr0l, fsr0h, fsr1l, fsr1h, status,2, status,0, pclath, cstack
  3872 ;; Tracked objects:
  3873 ;;		On entry : 0/0
  3874 ;;		On exit  : 0/0
  3875 ;;		Unchanged: 0/0
  3876 ;; Data sizes:     COMMON   BANK0   BANK1   BANK2   BANK3   BANK4   BANK5   BANK6
  3877 ;;      Params:         0       0       0       0       0       0       0       0
  3878 ;;      Locals:         0       0       0       0       0       0       0       0
  3879 ;;      Temps:          0       2       0       0       0       0       0       0
  3880 ;;      Totals:         0       2       0       0       0       0       0       0
  3881 ;;Total ram usage:        2 bytes
  3882 ;; Hardware stack levels used:    1
  3883 ;; Hardware stack levels required when called:    4
  3884 ;; This function calls:
  3885 ;;		_ClickLed
  3886 ;;		_KeepDistance
  3887 ;;		_LinearTransiant
  3888 ;;		_NRF_Available
  3889 ;;		_NRF_ReadPayload
  3890 ;;		_NRF_StatusHandler
  3891 ;;		_SetPWM1
  3892 ;;		_deQueue
  3893 ;;		_enQueue
  3894 ;; This function is called by:
  3895 ;;		_main
  3896 ;; This function uses a non-reentrant model
  3897 ;;
  3898                           
  3899                           
  3900                           ;psect for function _APPL_TASK_10MS
  3901  0E5F                     _APPL_TASK_10MS:
  3902  0E5F                     l2560:	
  3903                           ;incstack = 0
  3904                           ; Regs used in _APPL_TASK_10MS: [wreg-fsr1h+status,2+status,0+pclath+cstack]
  3905                           
  3906  0E5F  3000               	movlw	0
  3907  0E60  3189  21BE  318E   	fcall	_NRF_Available
  3908  0E63  3A00               	xorlw	0
  3909  0E64  1903               	skipnz
  3910  0E65  2E67               	goto	u2671
  3911  0E66  2E68               	goto	u2670
  3912  0E67                     u2671:
  3913  0E67  2E93               	goto	l2572
  3914  0E68                     u2670:
  3915  0E68                     l2562:
  3916  0E68  3064               	movlw	100
  3917  0E69  00F0               	movwf	ClickLed@DurationMs
  3918  0E6A  3000               	movlw	0
  3919  0E6B  00F1               	movwf	ClickLed@DurationMs+1
  3920  0E6C  3187  27F8  318E   	fcall	_ClickLed
  3921  0E6F                     l2564:
  3922  0E6F  3008               	movlw	8
  3923  0E70  0020               	movlb	0	; select bank0
  3924  0E71  00D5               	movwf	??_APPL_TASK_10MS
  3925  0E72  0855               	movf	??_APPL_TASK_10MS,w
  3926  0E73  00FA               	movwf	NRF_ReadPayload@PayloadLength
  3927  0E74  30D2               	movlw	(low (_NRF_Payload| 0))& (0+255)
  3928  0E75  318D  2582  318E   	fcall	_NRF_ReadPayload
  3929  0E78                     l2566:
  3930  0E78  0021               	movlb	1	; select bank1
  3931  0E79  0852               	movf	_NRF_Payload^(0+128),w
  3932  0E7A  0020               	movlb	0	; select bank0
  3933  0E7B  0669               	xorwf	APPL_TASK_10MS@OldValue,w
  3934  0E7C  1903               	skipnz
  3935  0E7D  2E7F               	goto	u2681
  3936  0E7E  2E80               	goto	u2680
  3937  0E7F                     u2681:
  3938  0E7F  2E93               	goto	l2572
  3939  0E80                     u2680:
  3940  0E80                     l2568:
  3941  0E80  0869               	movf	APPL_TASK_10MS@OldValue,w
  3942  0E81  00D5               	movwf	??_APPL_TASK_10MS
  3943  0E82  0855               	movf	??_APPL_TASK_10MS,w
  3944  0E83  00C5               	movwf	LinearTransiant@OldValue
  3945  0E84  3032               	movlw	50
  3946  0E85  00D6               	movwf	??_APPL_TASK_10MS+1
  3947  0E86  0856               	movf	??_APPL_TASK_10MS+1,w
  3948  0E87  00C6               	movwf	LinearTransiant@Duration10ms
  3949  0E88  0021               	movlb	1	; select bank1
  3950  0E89  0852               	movf	_NRF_Payload^(0+128),w
  3951  0E8A  3186  2646  318E   	fcall	_LinearTransiant
  3952  0E8D                     l2570:
  3953  0E8D  0021               	movlb	1	; select bank1
  3954  0E8E  0852               	movf	_NRF_Payload^(0+128),w
  3955  0E8F  0020               	movlb	0	; select bank0
  3956  0E90  00D5               	movwf	??_APPL_TASK_10MS
  3957  0E91  0855               	movf	??_APPL_TASK_10MS,w
  3958  0E92  00E9               	movwf	APPL_TASK_10MS@OldValue
  3959  0E93                     l2572:
  3960  0E93  318C  2494  318E   	fcall	_NRF_StatusHandler
  3961  0E96                     l2574:
  3962  0E96  3001               	movlw	1
  3963  0E97  318B  232B  318E   	fcall	_KeepDistance
  3964  0E9A  3A00               	xorlw	0
  3965  0E9B  1903               	skipnz
  3966  0E9C  2E9E               	goto	u2691
  3967  0E9D  2E9F               	goto	u2690
  3968  0E9E                     u2691:
  3969  0E9E  2EA4               	goto	l2578
  3970  0E9F                     u2690:
  3971  0E9F                     l2576:
  3972  0E9F  0020               	movlb	0	; select bank0
  3973  0EA0  0869               	movf	APPL_TASK_10MS@OldValue,w
  3974  0EA1  318D  2541  318E   	fcall	_enQueue
  3975  0EA4                     l2578:
  3976  0EA4  318D  2502  318E   	fcall	_deQueue
  3977  0EA7  0020               	movlb	0	; select bank0
  3978  0EA8  00D5               	movwf	??_APPL_TASK_10MS
  3979  0EA9  01D6               	clrf	??_APPL_TASK_10MS+1
  3980  0EAA  35D5               	lslf	??_APPL_TASK_10MS,f
  3981  0EAB  0DD6               	rlf	??_APPL_TASK_10MS+1,f
  3982  0EAC  3092               	movlw	low (_gamma| (0+32768))
  3983  0EAD  0755               	addwf	??_APPL_TASK_10MS,w
  3984  0EAE  0084               	movwf	4
  3985  0EAF  3082               	movlw	high (_gamma| (0+32768))
  3986  0EB0  3D56               	addwfc	??_APPL_TASK_10MS+1,w
  3987  0EB1  0085               	movwf	5
  3988  0EB2  3F00               	moviw [0]fsr0
  3989  0EB3  00FA               	movwf	SetPWM1@DutyCycle
  3990  0EB4  3F01               	moviw [1]fsr0
  3991  0EB5  00FB               	movwf	SetPWM1@DutyCycle+1
  3992  0EB6  3189  21D3  318E   	fcall	_SetPWM1
  3993  0EB9                     l358:
  3994  0EB9  0008               	return
  3995  0EBA                     __end_of_APPL_TASK_10MS:
  3996                           
  3997                           	psect	text21
  3998  0D02                     __ptext21:	
  3999 ;; *************** function _deQueue *****************
  4000 ;; Defined at:
  4001 ;;		line 124 in file "02-SRC/02-APPLICATION/Appl.c"
  4002 ;; Parameters:    Size  Location     Type
  4003 ;;		None
  4004 ;; Auto vars:     Size  Location     Type
  4005 ;;  element         1    9[COMMON] unsigned char 
  4006 ;; Return value:  Size  Location     Type
  4007 ;;                  1    wreg      unsigned char 
  4008 ;; Registers used:
  4009 ;;		wreg, fsr1l, fsr1h, status,2, status,0, pclath, cstack
  4010 ;; Tracked objects:
  4011 ;;		On entry : 0/0
  4012 ;;		On exit  : 0/0
  4013 ;;		Unchanged: 0/0
  4014 ;; Data sizes:     COMMON   BANK0   BANK1   BANK2   BANK3   BANK4   BANK5   BANK6
  4015 ;;      Params:         0       0       0       0       0       0       0       0
  4016 ;;      Locals:         1       0       0       0       0       0       0       0
  4017 ;;      Temps:          3       0       0       0       0       0       0       0
  4018 ;;      Totals:         4       0       0       0       0       0       0       0
  4019 ;;Total ram usage:        4 bytes
  4020 ;; Hardware stack levels used:    1
  4021 ;; Hardware stack levels required when called:    2
  4022 ;; This function calls:
  4023 ;;		_IsEmpty
  4024 ;;		___lwmod
  4025 ;; This function is called by:
  4026 ;;		_APPL_TASK_10MS
  4027 ;; This function uses a non-reentrant model
  4028 ;;
  4029                           
  4030                           
  4031                           ;psect for function _deQueue
  4032  0D02                     _deQueue:
  4033  0D02                     l2428:	
  4034                           ;incstack = 0
  4035                           ; Regs used in _deQueue: [wreg+fsr1l+fsr1h+status,2+status,0+pclath+cstack]
  4036                           
  4037  0D02  01F9               	clrf	deQueue@element
  4038  0D03                     l2430:
  4039  0D03  3189  2185  318D   	fcall	_IsEmpty
  4040  0D06  3A00               	xorlw	0
  4041  0D07  1D03               	skipz
  4042  0D08  2D0A               	goto	u2581
  4043  0D09  2D0B               	goto	u2580
  4044  0D0A                     u2581:
  4045  0D0A  2D3F               	goto	l2440
  4046  0D0B                     u2580:
  4047  0D0B                     l2432:
  4048  0D0B  30F0               	movlw	240
  4049  0D0C  00F6               	movwf	??_deQueue
  4050  0D0D  3020               	movlw	32
  4051  0D0E  00F7               	movwf	??_deQueue+1
  4052  0D0F  0020               	movlb	0	; select bank0
  4053  0D10  085D               	movf	_MyQueue,w
  4054  0D11  0776               	addwf	??_deQueue,w
  4055  0D12  0086               	movwf	6
  4056  0D13  085E               	movf	_MyQueue+1,w
  4057  0D14  3D77               	addwfc	??_deQueue+1,w
  4058  0D15  0087               	movwf	7
  4059  0D16  0801               	movf	1,w
  4060  0D17  00F8               	movwf	??_deQueue+2
  4061  0D18  0878               	movf	??_deQueue+2,w
  4062  0D19  00F9               	movwf	deQueue@element
  4063  0D1A                     l2434:
  4064  0D1A  085E               	movf	_MyQueue+1,w
  4065  0D1B  0660               	xorwf	_MyQueue+3,w
  4066  0D1C  1D03               	skipz
  4067  0D1D  2D20               	goto	u2595
  4068  0D1E  085D               	movf	_MyQueue,w
  4069  0D1F  065F               	xorwf	_MyQueue+2,w
  4070  0D20                     u2595:
  4071  0D20  1D03               	skipz
  4072  0D21  2D23               	goto	u2591
  4073  0D22  2D24               	goto	u2590
  4074  0D23                     u2591:
  4075  0D23  2D2D               	goto	l2438
  4076  0D24                     u2590:
  4077  0D24                     l2436:
  4078  0D24  30FF               	movlw	255
  4079  0D25  00DD               	movwf	_MyQueue
  4080  0D26  30FF               	movlw	255
  4081  0D27  00DE               	movwf	_MyQueue+1
  4082  0D28  30FF               	movlw	255
  4083  0D29  00DF               	movwf	_MyQueue+2
  4084  0D2A  30FF               	movlw	255
  4085  0D2B  00E0               	movwf	_MyQueue+3
  4086  0D2C  2D3F               	goto	l2440
  4087  0D2D                     l2438:
  4088  0D2D  0862               	movf	_MyQueue+5,w
  4089  0D2E  00F1               	movwf	___lwmod@divisor+1
  4090  0D2F  0861               	movf	_MyQueue+4,w
  4091  0D30  00F0               	movwf	___lwmod@divisor
  4092  0D31  085D               	movf	_MyQueue,w
  4093  0D32  3E01               	addlw	1
  4094  0D33  00F2               	movwf	___lwmod@dividend
  4095  0D34  3000               	movlw	0
  4096  0D35  3D5E               	addwfc	_MyQueue+1,w
  4097  0D36  00F3               	movwf	___lwmod@dividend+1
  4098  0D37  318C  2460  318D   	fcall	___lwmod
  4099  0D3A  0871               	movf	?___lwmod+1,w
  4100  0D3B  0020               	movlb	0	; select bank0
  4101  0D3C  00DE               	movwf	_MyQueue+1
  4102  0D3D  0870               	movf	?___lwmod,w
  4103  0D3E  00DD               	movwf	_MyQueue
  4104  0D3F                     l2440:
  4105  0D3F  0879               	movf	deQueue@element,w
  4106  0D40                     l322:
  4107  0D40  0008               	return
  4108  0D41                     __end_of_deQueue:
  4109                           
  4110                           	psect	text22
  4111  0985                     __ptext22:	
  4112 ;; *************** function _IsEmpty *****************
  4113 ;; Defined at:
  4114 ;;		line 88 in file "02-SRC/02-APPLICATION/Appl.c"
  4115 ;; Parameters:    Size  Location     Type
  4116 ;;		None
  4117 ;; Auto vars:     Size  Location     Type
  4118 ;;		None
  4119 ;; Return value:  Size  Location     Type
  4120 ;;                  1    wreg      unsigned char 
  4121 ;; Registers used:
  4122 ;;		wreg, status,2, status,0
  4123 ;; Tracked objects:
  4124 ;;		On entry : 0/0
  4125 ;;		On exit  : 0/0
  4126 ;;		Unchanged: 0/0
  4127 ;; Data sizes:     COMMON   BANK0   BANK1   BANK2   BANK3   BANK4   BANK5   BANK6
  4128 ;;      Params:         0       0       0       0       0       0       0       0
  4129 ;;      Locals:         0       0       0       0       0       0       0       0
  4130 ;;      Temps:          0       0       0       0       0       0       0       0
  4131 ;;      Totals:         0       0       0       0       0       0       0       0
  4132 ;;Total ram usage:        0 bytes
  4133 ;; Hardware stack levels used:    1
  4134 ;; Hardware stack levels required when called:    1
  4135 ;; This function calls:
  4136 ;;		Nothing
  4137 ;; This function is called by:
  4138 ;;		_deQueue
  4139 ;; This function uses a non-reentrant model
  4140 ;;
  4141                           
  4142                           
  4143                           ;psect for function _IsEmpty
  4144  0985                     _IsEmpty:
  4145  0985                     l1886:	
  4146                           ;incstack = 0
  4147                           ; Regs used in _IsEmpty: [wreg+status,2+status,0]
  4148                           
  4149  0985  0020               	movlb	0	; select bank0
  4150  0986  0A5D               	incf	_MyQueue,w
  4151  0987  1D03               	skipz
  4152  0988  298F               	goto	u1540
  4153  0989  0A5E               	incf	_MyQueue+1,w
  4154  098A  1903               	btfsc	3,2
  4155  098B  298D               	goto	u1541
  4156  098C  298F               	goto	u1540
  4157  098D                     u1541:
  4158  098D  3001               	movlw	1
  4159  098E  2990               	goto	u1550
  4160  098F                     u1540:
  4161  098F  3000               	movlw	0
  4162  0990                     u1550:
  4163  0990                     l304:
  4164  0990  0008               	return
  4165  0991                     __end_of_IsEmpty:
  4166                           
  4167                           	psect	text23
  4168  09D3                     __ptext23:	
  4169 ;; *************** function _SetPWM1 *****************
  4170 ;; Defined at:
  4171 ;;		line 45 in file "02-SRC/04-DRIVER/target.c"
  4172 ;; Parameters:    Size  Location     Type
  4173 ;;  DutyCycle       2   10[COMMON] unsigned short 
  4174 ;; Auto vars:     Size  Location     Type
  4175 ;;		None
  4176 ;; Return value:  Size  Location     Type
  4177 ;;                  1    wreg      void 
  4178 ;; Registers used:
  4179 ;;		wreg, status,2, status,0
  4180 ;; Tracked objects:
  4181 ;;		On entry : 0/0
  4182 ;;		On exit  : 0/0
  4183 ;;		Unchanged: 0/0
  4184 ;; Data sizes:     COMMON   BANK0   BANK1   BANK2   BANK3   BANK4   BANK5   BANK6
  4185 ;;      Params:         2       0       0       0       0       0       0       0
  4186 ;;      Locals:         0       0       0       0       0       0       0       0
  4187 ;;      Temps:          2       0       0       0       0       0       0       0
  4188 ;;      Totals:         4       0       0       0       0       0       0       0
  4189 ;;Total ram usage:        4 bytes
  4190 ;; Hardware stack levels used:    1
  4191 ;; Hardware stack levels required when called:    1
  4192 ;; This function calls:
  4193 ;;		Nothing
  4194 ;; This function is called by:
  4195 ;;		_Appl_Init
  4196 ;;		_APPL_TASK_10MS
  4197 ;; This function uses a non-reentrant model
  4198 ;;
  4199                           
  4200                           
  4201                           ;psect for function _SetPWM1
  4202  09D3                     _SetPWM1:
  4203  09D3                     l2408:	
  4204                           ;incstack = 0
  4205                           ; Regs used in _SetPWM1: [wreg+status,2+status,0]
  4206                           
  4207  09D3  087A               	movf	SetPWM1@DutyCycle,w
  4208  09D4  00FC               	movwf	??_SetPWM1
  4209  09D5  3005               	movlw	5
  4210  09D6                     u2545:
  4211  09D6  35FC               	lslf	??_SetPWM1,f
  4212  09D7  3EFF               	addlw	-1
  4213  09D8  1D03               	skipz
  4214  09D9  29D6               	goto	u2545
  4215  09DA  357C               	lslf	??_SetPWM1,w
  4216  09DB  002C               	movlb	12	; select bank12
  4217  09DC  0091               	movwf	17	;volatile
  4218  09DD  087B               	movf	SetPWM1@DutyCycle+1,w
  4219  09DE  00FD               	movwf	??_SetPWM1+1
  4220  09DF  087A               	movf	SetPWM1@DutyCycle,w
  4221  09E0  00FC               	movwf	??_SetPWM1
  4222  09E1  36FD               	lsrf	??_SetPWM1+1,f
  4223  09E2  0CFC               	rrf	??_SetPWM1,f
  4224  09E3  36FD               	lsrf	??_SetPWM1+1,f
  4225  09E4  0CFC               	rrf	??_SetPWM1,f
  4226  09E5  087C               	movf	??_SetPWM1,w
  4227  09E6  0092               	movwf	18	;volatile
  4228  09E7                     l225:
  4229  09E7  0008               	return
  4230  09E8                     __end_of_SetPWM1:
  4231                           
  4232                           	psect	text24
  4233  0C94                     __ptext24:	
  4234 ;; *************** function _NRF_StatusHandler *****************
  4235 ;; Defined at:
  4236 ;;		line 228 in file "02-SRC/04-DRIVER/NRF24L01/NRF24L01.c"
  4237 ;; Parameters:    Size  Location     Type
  4238 ;;		None
  4239 ;; Auto vars:     Size  Location     Type
  4240 ;;  NRF_Fifo        1   11[COMMON] struct .
  4241 ;;  StatusReg       1   10[COMMON] struct .
  4242 ;; Return value:  Size  Location     Type
  4243 ;;                  1    wreg      void 
  4244 ;; Registers used:
  4245 ;;		wreg, fsr0l, fsr0h, fsr1l, fsr1h, status,2, status,0, pclath, cstack
  4246 ;; Tracked objects:
  4247 ;;		On entry : 0/0
  4248 ;;		On exit  : 0/0
  4249 ;;		Unchanged: 0/0
  4250 ;; Data sizes:     COMMON   BANK0   BANK1   BANK2   BANK3   BANK4   BANK5   BANK6
  4251 ;;      Params:         0       0       0       0       0       0       0       0
  4252 ;;      Locals:         2       0       0       0       0       0       0       0
  4253 ;;      Temps:          3       0       0       0       0       0       0       0
  4254 ;;      Totals:         5       0       0       0       0       0       0       0
  4255 ;;Total ram usage:        5 bytes
  4256 ;; Hardware stack levels used:    1
  4257 ;; Hardware stack levels required when called:    3
  4258 ;; This function calls:
  4259 ;;		Absolute function
  4260 ;;		_NRF_Read_Register
  4261 ;;		_SPI_Exchange
  4262 ;; This function is called by:
  4263 ;;		_APPL_TASK_10MS
  4264 ;; This function uses a non-reentrant model
  4265 ;;
  4266                           
  4267                           
  4268                           ;psect for function _NRF_StatusHandler
  4269  0C94                     _NRF_StatusHandler:
  4270  0C94                     l2396:	
  4271                           ;incstack = 0
  4272                           ; Regs used in _NRF_StatusHandler: [wreg-fsr1h+status,2+status,0+pclath+cstack]
  4273                           
  4274  0C94  307B               	movlw	(low (NRF_StatusHandler@NRF_Fifo| 0))& (0+255)
  4275  0C95  00F7               	movwf	??_NRF_StatusHandler
  4276  0C96  0877               	movf	??_NRF_StatusHandler,w
  4277  0C97  00F1               	movwf	NRF_Read_Register@Bytes
  4278  0C98  01F2               	clrf	NRF_Read_Register@Length
  4279  0C99  0AF2               	incf	NRF_Read_Register@Length,f
  4280  0C9A  3017               	movlw	23
  4281  0C9B  318B  23FF  318C   	fcall	_NRF_Read_Register
  4282  0C9E  00F8               	movwf	??_NRF_StatusHandler+1
  4283  0C9F  0878               	movf	??_NRF_StatusHandler+1,w
  4284  0CA0  00FA               	movwf	NRF_StatusHandler@StatusReg
  4285  0CA1  2CB1               	goto	l2402
  4286  0CA2                     l158:
  4287  0CA2  1CFB               	btfss	NRF_StatusHandler@NRF_Fifo,1
  4288  0CA3  2CA5               	goto	u2521
  4289  0CA4  2CA6               	goto	u2520
  4290  0CA5                     u2521:
  4291  0CA5  2CCA               	goto	l162
  4292  0CA6                     u2520:
  4293  0CA6                     l2398:
  4294  0CA6  30E2               	movlw	226
  4295  0CA7  00F7               	movwf	??_NRF_StatusHandler
  4296  0CA8  0877               	movf	??_NRF_StatusHandler,w
  4297  0CA9  00F0               	movwf	SPI_Exchange@Data
  4298  0CAA  0020               	movlb	0	; select bank0
  4299  0CAB  086C               	movf	_p_NRF_SPI_Exchange+1,w
  4300  0CAC  008A               	movwf	10
  4301  0CAD  086B               	movf	_p_NRF_SPI_Exchange,w
  4302  0CAE  000A               	callw
  4303  0CAF  318C               	pagesel	$
  4304  0CB0  2CCA               	goto	l162
  4305  0CB1                     l2402:
  4306  0CB1  087A               	movf	NRF_StatusHandler@StatusReg,w
  4307  0CB2  00F7               	movwf	??_NRF_StatusHandler
  4308  0CB3  3004               	movlw	4
  4309  0CB4                     u2535:
  4310  0CB4  36F7               	lsrf	??_NRF_StatusHandler,f
  4311  0CB5  0B89               	decfsz	9,f
  4312  0CB6  2CB4               	goto	u2535
  4313  0CB7  0877               	movf	??_NRF_StatusHandler,w
  4314  0CB8  00F8               	movwf	??_NRF_StatusHandler+1
  4315  0CB9  01F9               	clrf	??_NRF_StatusHandler+2
  4316                           
  4317                           ; Switch on 2 bytes has been partitioned into a top level switch of size 1, and 1 sub-sw
      +                          itches
  4318                           ; Switch size 1, requested type "simple"
  4319                           ; Number of cases is 1, Range of values is 0 to 0
  4320                           ; switch strategies available:
  4321                           ; Name         Instructions Cycles
  4322                           ; simple_byte            4     3 (average)
  4323                           ; direct_byte            8     6 (fixed)
  4324                           ; jumptable            260     6 (fixed)
  4325                           ;	Chosen strategy is simple_byte
  4326  0CBA  0879               	movf	??_NRF_StatusHandler+2,w
  4327  0CBB  3A00               	xorlw	0	; case 0
  4328  0CBC  1903               	skipnz
  4329  0CBD  2CBF               	goto	l2672
  4330  0CBE  2CCA               	goto	l162
  4331  0CBF                     l2672:
  4332                           
  4333                           ; Switch size 1, requested type "simple"
  4334                           ; Number of cases is 3, Range of values is 1 to 4
  4335                           ; switch strategies available:
  4336                           ; Name         Instructions Cycles
  4337                           ; simple_byte           10     6 (average)
  4338                           ; direct_byte           17     9 (fixed)
  4339                           ; jumptable            263     9 (fixed)
  4340                           ;	Chosen strategy is simple_byte
  4341  0CBF  0878               	movf	??_NRF_StatusHandler+1,w
  4342  0CC0  3A01               	xorlw	1	; case 1
  4343  0CC1  1903               	skipnz
  4344  0CC2  2CCA               	goto	l162
  4345  0CC3  3A03               	xorlw	3	; case 2
  4346  0CC4  1903               	skipnz
  4347  0CC5  2CCA               	goto	l162
  4348  0CC6  3A06               	xorlw	6	; case 4
  4349  0CC7  1903               	skipnz
  4350  0CC8  2CA2               	goto	l158
  4351  0CC9  2CCA               	goto	l162
  4352  0CCA                     l162:
  4353  0CCA  0008               	return
  4354  0CCB                     __end_of_NRF_StatusHandler:
  4355                           
  4356                           	psect	text25
  4357  0BFF                     __ptext25:	
  4358 ;; *************** function _NRF_Read_Register *****************
  4359 ;; Defined at:
  4360 ;;		line 215 in file "02-SRC/04-DRIVER/NRF24L01/NRF24L01.c"
  4361 ;; Parameters:    Size  Location     Type
  4362 ;;  Register        1    wreg     unsigned char 
  4363 ;;  Bytes           1    1[COMMON] PTR unsigned char 
  4364 ;;		 -> NRF_StatusHandler@NRF_Fifo(1), NRFChip.RF_SETUP(1), NRFChip.CONFIG(1), NRF_PipeDisableAA@AA(1), 
  4365 ;;		 -> NRF_PipeEnableAA@AA(1), NRF_PipeDisable@EN(1), NRF_PipeEnable@EN(1), NRFChip(14), 
  4366 ;;  Length          1    2[COMMON] unsigned char 
  4367 ;; Auto vars:     Size  Location     Type
  4368 ;;  Register        1    5[COMMON] unsigned char 
  4369 ;;  Status          1    6[COMMON] unsigned char 
  4370 ;; Return value:  Size  Location     Type
  4371 ;;                  1    wreg      unsigned char 
  4372 ;; Registers used:
  4373 ;;		wreg, fsr1l, fsr1h, status,2, status,0, pclath, cstack
  4374 ;; Tracked objects:
  4375 ;;		On entry : 0/0
  4376 ;;		On exit  : 0/0
  4377 ;;		Unchanged: 0/0
  4378 ;; Data sizes:     COMMON   BANK0   BANK1   BANK2   BANK3   BANK4   BANK5   BANK6
  4379 ;;      Params:         2       0       0       0       0       0       0       0
  4380 ;;      Locals:         2       0       0       0       0       0       0       0
  4381 ;;      Temps:          2       0       0       0       0       0       0       0
  4382 ;;      Totals:         6       0       0       0       0       0       0       0
  4383 ;;Total ram usage:        6 bytes
  4384 ;; Hardware stack levels used:    1
  4385 ;; Hardware stack levels required when called:    2
  4386 ;; This function calls:
  4387 ;;		Absolute function
  4388 ;;		_SPI_Exchange
  4389 ;; This function is called by:
  4390 ;;		_NRF_PipeEnable
  4391 ;;		_NRF_PipeEnableAA
  4392 ;;		_NRF_SetCRCLen
  4393 ;;		_NRF_SetRFPower
  4394 ;;		_NRF_SetRFDataRate
  4395 ;;		_NRF_StartListening
  4396 ;;		_NRF_SetMaskIRQ
  4397 ;;		_NRF_StatusHandler
  4398 ;;		_NRF_PipeDisable
  4399 ;;		_NRF_PipeDisableAA
  4400 ;;		_NRF_SetPrimaryAs
  4401 ;;		_NRF_StopListening
  4402 ;; This function uses a non-reentrant model
  4403 ;;
  4404                           
  4405                           
  4406                           ;psect for function _NRF_Read_Register
  4407  0BFF                     _NRF_Read_Register:
  4408                           
  4409                           ;incstack = 0
  4410                           ; Regs used in _NRF_Read_Register: [wreg+fsr1l+fsr1h+status,2+status,0+pclath+cstack]
  4411                           ;NRF_Read_Register@Register stored from wreg
  4412  0BFF  00F5               	movwf	NRF_Read_Register@Register
  4413  0C00                     l1798:
  4414  0C00                     l1800:
  4415  0C00  0022               	movlb	2	; select bank2
  4416  0C01  108E               	bcf	14,1	;volatile
  4417  0C02                     l1802:
  4418  0C02  0875               	movf	NRF_Read_Register@Register,w
  4419  0C03  00F3               	movwf	??_NRF_Read_Register
  4420  0C04  0873               	movf	??_NRF_Read_Register,w
  4421  0C05  00F0               	movwf	SPI_Exchange@Data
  4422  0C06  0020               	movlb	0	; select bank0
  4423  0C07  086C               	movf	_p_NRF_SPI_Exchange+1,w
  4424  0C08  008A               	movwf	10
  4425  0C09  086B               	movf	_p_NRF_SPI_Exchange,w
  4426  0C0A  000A               	callw
  4427  0C0B  318B               	pagesel	$
  4428  0C0C  00F4               	movwf	??_NRF_Read_Register+1
  4429  0C0D  0874               	movf	??_NRF_Read_Register+1,w
  4430  0C0E  00F6               	movwf	NRF_Read_Register@Status
  4431  0C0F  2C24               	goto	l1808
  4432  0C10                     l1804:
  4433  0C10  30FF               	movlw	255
  4434  0C11  00F3               	movwf	??_NRF_Read_Register
  4435  0C12  0873               	movf	??_NRF_Read_Register,w
  4436  0C13  00F0               	movwf	SPI_Exchange@Data
  4437  0C14  0020               	movlb	0	; select bank0
  4438  0C15  086C               	movf	_p_NRF_SPI_Exchange+1,w
  4439  0C16  008A               	movwf	10
  4440  0C17  086B               	movf	_p_NRF_SPI_Exchange,w
  4441  0C18  000A               	callw
  4442  0C19  318B               	pagesel	$
  4443  0C1A  00F4               	movwf	??_NRF_Read_Register+1
  4444  0C1B  0871               	movf	NRF_Read_Register@Bytes,w
  4445  0C1C  0086               	movwf	6
  4446  0C1D  0187               	clrf	7
  4447  0C1E  0874               	movf	??_NRF_Read_Register+1,w
  4448  0C1F  0081               	movwf	1
  4449  0C20                     l1806:
  4450  0C20  3001               	movlw	1
  4451  0C21  00F3               	movwf	??_NRF_Read_Register
  4452  0C22  0873               	movf	??_NRF_Read_Register,w
  4453  0C23  07F1               	addwf	NRF_Read_Register@Bytes,f
  4454  0C24                     l1808:
  4455  0C24  3001               	movlw	1
  4456  0C25  02F2               	subwf	NRF_Read_Register@Length,f
  4457  0C26  0A72               	incf	NRF_Read_Register@Length,w
  4458  0C27  1D03               	btfss	3,2
  4459  0C28  2C2A               	goto	u1391
  4460  0C29  2C2B               	goto	u1390
  4461  0C2A                     u1391:
  4462  0C2A  2C10               	goto	l1804
  4463  0C2B                     u1390:
  4464  0C2B                     l150:
  4465  0C2B  0022               	movlb	2	; select bank2
  4466  0C2C  148E               	bsf	14,1	;volatile
  4467  0C2D                     l1810:
  4468  0C2D  0876               	movf	NRF_Read_Register@Status,w
  4469  0C2E                     l151:
  4470  0C2E  0008               	return
  4471  0C2F                     __end_of_NRF_Read_Register:
  4472                           
  4473                           	psect	text26
  4474  0D82                     __ptext26:	
  4475 ;; *************** function _NRF_ReadPayload *****************
  4476 ;; Defined at:
  4477 ;;		line 173 in file "02-SRC/04-DRIVER/NRF24L01/NRF24L01.c"
  4478 ;; Parameters:    Size  Location     Type
  4479 ;;  Payload         1    wreg     PTR unsigned char 
  4480 ;;		 -> NRF_Payload(8), 
  4481 ;;  PayloadLengt    1   10[COMMON] unsigned char 
  4482 ;; Auto vars:     Size  Location     Type
  4483 ;;  Payload         1    0[BANK0 ] PTR unsigned char 
  4484 ;;		 -> NRF_Payload(8), 
  4485 ;;  i               1    1[BANK0 ] unsigned char 
  4486 ;; Return value:  Size  Location     Type
  4487 ;;                  1    wreg      void 
  4488 ;; Registers used:
  4489 ;;		wreg, fsr1l, fsr1h, status,2, status,0, pclath, cstack
  4490 ;; Tracked objects:
  4491 ;;		On entry : 0/0
  4492 ;;		On exit  : 0/0
  4493 ;;		Unchanged: 0/0
  4494 ;; Data sizes:     COMMON   BANK0   BANK1   BANK2   BANK3   BANK4   BANK5   BANK6
  4495 ;;      Params:         1       0       0       0       0       0       0       0
  4496 ;;      Locals:         0       2       0       0       0       0       0       0
  4497 ;;      Temps:          3       0       0       0       0       0       0       0
  4498 ;;      Totals:         4       2       0       0       0       0       0       0
  4499 ;;Total ram usage:        6 bytes
  4500 ;; Hardware stack levels used:    1
  4501 ;; Hardware stack levels required when called:    3
  4502 ;; This function calls:
  4503 ;;		Absolute function
  4504 ;;		_NRF_Write_Register
  4505 ;;		_SPI_Exchange
  4506 ;; This function is called by:
  4507 ;;		_APPL_TASK_10MS
  4508 ;; This function uses a non-reentrant model
  4509 ;;
  4510                           
  4511                           
  4512                           ;psect for function _NRF_ReadPayload
  4513  0D82                     _NRF_ReadPayload:
  4514                           
  4515                           ;incstack = 0
  4516                           ; Regs used in _NRF_ReadPayload: [wreg+fsr1l+fsr1h+status,2+status,0+pclath+cstack]
  4517                           ;NRF_ReadPayload@Payload stored from wreg
  4518  0D82  0020               	movlb	0	; select bank0
  4519  0D83  00A0               	movwf	NRF_ReadPayload@Payload
  4520  0D84                     l2382:
  4521  0D84  0022               	movlb	2	; select bank2
  4522  0D85  108E               	bcf	14,1	;volatile
  4523  0D86                     l2384:
  4524  0D86  3061               	movlw	97
  4525  0D87  00FB               	movwf	??_NRF_ReadPayload
  4526  0D88  087B               	movf	??_NRF_ReadPayload,w
  4527  0D89  00F0               	movwf	SPI_Exchange@Data
  4528  0D8A  0020               	movlb	0	; select bank0
  4529  0D8B  086C               	movf	_p_NRF_SPI_Exchange+1,w
  4530  0D8C  008A               	movwf	10
  4531  0D8D  086B               	movf	_p_NRF_SPI_Exchange,w
  4532  0D8E  000A               	callw
  4533  0D8F  318D               	pagesel	$
  4534  0D90  00FC               	movwf	??_NRF_ReadPayload+1
  4535  0D91  087C               	movf	??_NRF_ReadPayload+1,w
  4536  0D92  0021               	movlb	1	; select bank1
  4537  0D93  00C9               	movwf	(_NRFChip^(0+128)+5)
  4538  0D94                     l2386:
  4539  0D94  0020               	movlb	0	; select bank0
  4540  0D95  01A1               	clrf	NRF_ReadPayload@i
  4541  0D96  2DAE               	goto	l2392
  4542  0D97                     l2388:
  4543  0D97  30FF               	movlw	255
  4544  0D98  00FB               	movwf	??_NRF_ReadPayload
  4545  0D99  087B               	movf	??_NRF_ReadPayload,w
  4546  0D9A  00F0               	movwf	SPI_Exchange@Data
  4547  0D9B  086C               	movf	_p_NRF_SPI_Exchange+1,w
  4548  0D9C  008A               	movwf	10
  4549  0D9D  086B               	movf	_p_NRF_SPI_Exchange,w
  4550  0D9E  000A               	callw
  4551  0D9F  318D               	pagesel	$
  4552  0DA0  00FC               	movwf	??_NRF_ReadPayload+1
  4553  0DA1  0020               	movlb	0	; select bank0
  4554  0DA2  0821               	movf	NRF_ReadPayload@i,w
  4555  0DA3  0720               	addwf	NRF_ReadPayload@Payload,w
  4556  0DA4  00FD               	movwf	??_NRF_ReadPayload+2
  4557  0DA5  087D               	movf	??_NRF_ReadPayload+2,w
  4558  0DA6  0086               	movwf	6
  4559  0DA7  0187               	clrf	7
  4560  0DA8  087C               	movf	??_NRF_ReadPayload+1,w
  4561  0DA9  0081               	movwf	1
  4562  0DAA                     l2390:
  4563  0DAA  3001               	movlw	1
  4564  0DAB  00FB               	movwf	??_NRF_ReadPayload
  4565  0DAC  087B               	movf	??_NRF_ReadPayload,w
  4566  0DAD  07A1               	addwf	NRF_ReadPayload@i,f
  4567  0DAE                     l2392:
  4568  0DAE  087A               	movf	NRF_ReadPayload@PayloadLength,w
  4569  0DAF  0221               	subwf	NRF_ReadPayload@i,w
  4570  0DB0  1C03               	skipc
  4571  0DB1  2DB3               	goto	u2511
  4572  0DB2  2DB4               	goto	u2510
  4573  0DB3                     u2511:
  4574  0DB3  2D97               	goto	l2388
  4575  0DB4                     u2510:
  4576  0DB4                     l132:
  4577  0DB4  0022               	movlb	2	; select bank2
  4578  0DB5  148E               	bsf	14,1	;volatile
  4579  0DB6  0021               	movlb	1	; select bank1
  4580  0DB7  1749               	bsf	(_NRFChip^(0+128)+5),6
  4581  0DB8                     l2394:
  4582  0DB8  30C9               	movlw	(low ((_NRFChip| 0+5)))& (0+255)
  4583  0DB9  00FB               	movwf	??_NRF_ReadPayload
  4584  0DBA  087B               	movf	??_NRF_ReadPayload,w
  4585  0DBB  00F4               	movwf	NRF_Write_Register@Bytes
  4586  0DBC  01F5               	clrf	NRF_Write_Register@Length
  4587  0DBD  0AF5               	incf	NRF_Write_Register@Length,f
  4588  0DBE  3007               	movlw	7
  4589  0DBF  318B  23D1  318D   	fcall	_NRF_Write_Register
  4590  0DC2                     l133:
  4591  0DC2  0008               	return
  4592  0DC3                     __end_of_NRF_ReadPayload:
  4593                           
  4594                           	psect	text27
  4595  0BD1                     __ptext27:	
  4596 ;; *************** function _NRF_Write_Register *****************
  4597 ;; Defined at:
  4598 ;;		line 202 in file "02-SRC/04-DRIVER/NRF24L01/NRF24L01.c"
  4599 ;; Parameters:    Size  Location     Type
  4600 ;;  Register        1    wreg     unsigned char 
  4601 ;;  Bytes           1    4[COMMON] PTR unsigned char 
  4602 ;;		 -> NRFChip.SETUP_RETR(1), NRFChip.RF_SETUP(1), NRFChip.RF_CH(1), NRFChip.CONFIG(1), 
  4603 ;;		 -> NRF_PipeDisableAA@AA(1), NRF_PipeEnableAA@AA(1), NRF_PipeDisable@EN(1), NRF_PipeEnable@EN(1), 
  4604 ;;		 -> NRFChip.STATUS(1), NFR_RxPipes(36), NRFChip.AW(1), NRFChip(14), 
  4605 ;;  Length          1    5[COMMON] unsigned char 
  4606 ;; Auto vars:     Size  Location     Type
  4607 ;;  Register        1    8[COMMON] unsigned char 
  4608 ;;  Status          1    9[COMMON] unsigned char 
  4609 ;; Return value:  Size  Location     Type
  4610 ;;                  1    wreg      unsigned char 
  4611 ;; Registers used:
  4612 ;;		wreg, fsr1l, fsr1h, status,2, status,0, pclath, cstack
  4613 ;; Tracked objects:
  4614 ;;		On entry : 0/0
  4615 ;;		On exit  : 0/0
  4616 ;;		Unchanged: 0/0
  4617 ;; Data sizes:     COMMON   BANK0   BANK1   BANK2   BANK3   BANK4   BANK5   BANK6
  4618 ;;      Params:         2       0       0       0       0       0       0       0
  4619 ;;      Locals:         2       0       0       0       0       0       0       0
  4620 ;;      Temps:          2       0       0       0       0       0       0       0
  4621 ;;      Totals:         6       0       0       0       0       0       0       0
  4622 ;;Total ram usage:        6 bytes
  4623 ;; Hardware stack levels used:    1
  4624 ;; Hardware stack levels required when called:    2
  4625 ;; This function calls:
  4626 ;;		Absolute function
  4627 ;;		_SPI_Exchange
  4628 ;; This function is called by:
  4629 ;;		_NRF_OpenReadingPipe
  4630 ;;		_NRF_PipeEnable
  4631 ;;		_NRF_PipeEnableAA
  4632 ;;		_NRF_SetCRCLen
  4633 ;;		_NRF_SetRFChannel
  4634 ;;		_NRF_SetRFPower
  4635 ;;		_NRF_SetRFDataRate
  4636 ;;		_NRF_SetAddrWidth
  4637 ;;		_NRF_SetART
  4638 ;;		_NRF_StartListening
  4639 ;;		_NRF_SetMaskIRQ
  4640 ;;		_NRF_ReadPayload
  4641 ;;		_NRF_SetTxAddr
  4642 ;;		_NRF_PipeDisable
  4643 ;;		_NRF_PipeDisableAA
  4644 ;;		_NRF_SetPrimaryAs
  4645 ;;		_NRF_StopListening
  4646 ;; This function uses a non-reentrant model
  4647 ;;
  4648                           
  4649                           
  4650                           ;psect for function _NRF_Write_Register
  4651  0BD1                     _NRF_Write_Register:
  4652                           
  4653                           ;incstack = 0
  4654                           ; Regs used in _NRF_Write_Register: [wreg+fsr1l+fsr1h+status,2+status,0+pclath+cstack]
  4655                           ;NRF_Write_Register@Register stored from wreg
  4656  0BD1  00F8               	movwf	NRF_Write_Register@Register
  4657  0BD2                     l1782:
  4658  0BD2                     l1784:
  4659  0BD2  0022               	movlb	2	; select bank2
  4660  0BD3  108E               	bcf	14,1	;volatile
  4661  0BD4                     l1786:
  4662  0BD4  0878               	movf	NRF_Write_Register@Register,w
  4663  0BD5  3820               	iorlw	32
  4664  0BD6  00F6               	movwf	??_NRF_Write_Register
  4665  0BD7  0876               	movf	??_NRF_Write_Register,w
  4666  0BD8  00F0               	movwf	SPI_Exchange@Data
  4667  0BD9  0020               	movlb	0	; select bank0
  4668  0BDA  086C               	movf	_p_NRF_SPI_Exchange+1,w
  4669  0BDB  008A               	movwf	10
  4670  0BDC  086B               	movf	_p_NRF_SPI_Exchange,w
  4671  0BDD  000A               	callw
  4672  0BDE  318B               	pagesel	$
  4673  0BDF  00F7               	movwf	??_NRF_Write_Register+1
  4674  0BE0  0877               	movf	??_NRF_Write_Register+1,w
  4675  0BE1  00F9               	movwf	NRF_Write_Register@Status
  4676  0BE2  2BF4               	goto	l1792
  4677  0BE3                     l1788:
  4678  0BE3  0874               	movf	NRF_Write_Register@Bytes,w
  4679  0BE4  0086               	movwf	6
  4680  0BE5  0187               	clrf	7
  4681  0BE6  0801               	movf	1,w
  4682  0BE7  00F6               	movwf	??_NRF_Write_Register
  4683  0BE8  0876               	movf	??_NRF_Write_Register,w
  4684  0BE9  00F0               	movwf	SPI_Exchange@Data
  4685  0BEA  0020               	movlb	0	; select bank0
  4686  0BEB  086C               	movf	_p_NRF_SPI_Exchange+1,w
  4687  0BEC  008A               	movwf	10
  4688  0BED  086B               	movf	_p_NRF_SPI_Exchange,w
  4689  0BEE  000A               	callw
  4690  0BEF  318B               	pagesel	$
  4691  0BF0                     l1790:
  4692  0BF0  3001               	movlw	1
  4693  0BF1  00F6               	movwf	??_NRF_Write_Register
  4694  0BF2  0876               	movf	??_NRF_Write_Register,w
  4695  0BF3  07F4               	addwf	NRF_Write_Register@Bytes,f
  4696  0BF4                     l1792:
  4697  0BF4  3001               	movlw	1
  4698  0BF5  02F5               	subwf	NRF_Write_Register@Length,f
  4699  0BF6  0A75               	incf	NRF_Write_Register@Length,w
  4700  0BF7  1D03               	btfss	3,2
  4701  0BF8  2BFA               	goto	u1381
  4702  0BF9  2BFB               	goto	u1380
  4703  0BFA                     u1381:
  4704  0BFA  2BE3               	goto	l1788
  4705  0BFB                     u1380:
  4706  0BFB                     l144:
  4707  0BFB  0022               	movlb	2	; select bank2
  4708  0BFC  148E               	bsf	14,1	;volatile
  4709  0BFD                     l1794:
  4710  0BFD  0879               	movf	NRF_Write_Register@Status,w
  4711  0BFE                     l145:
  4712  0BFE  0008               	return
  4713  0BFF                     __end_of_NRF_Write_Register:
  4714                           
  4715                           	psect	text28
  4716  09BE                     __ptext28:	
  4717 ;; *************** function _NRF_Available *****************
  4718 ;; Defined at:
  4719 ;;		line 146 in file "02-SRC/04-DRIVER/NRF24L01/NRF24L01.c"
  4720 ;; Parameters:    Size  Location     Type
  4721 ;;  PipeNo          1    wreg     unsigned char 
  4722 ;; Auto vars:     Size  Location     Type
  4723 ;;  PipeNo          1    3[COMMON] unsigned char 
  4724 ;;  IsAvailable     1    4[COMMON] unsigned char 
  4725 ;; Return value:  Size  Location     Type
  4726 ;;                  1    wreg      unsigned char 
  4727 ;; Registers used:
  4728 ;;		wreg, status,2, status,0, pclath, cstack
  4729 ;; Tracked objects:
  4730 ;;		On entry : 0/0
  4731 ;;		On exit  : 0/0
  4732 ;;		Unchanged: 0/0
  4733 ;; Data sizes:     COMMON   BANK0   BANK1   BANK2   BANK3   BANK4   BANK5   BANK6
  4734 ;;      Params:         0       0       0       0       0       0       0       0
  4735 ;;      Locals:         2       0       0       0       0       0       0       0
  4736 ;;      Temps:          0       0       0       0       0       0       0       0
  4737 ;;      Totals:         2       0       0       0       0       0       0       0
  4738 ;;Total ram usage:        2 bytes
  4739 ;; Hardware stack levels used:    1
  4740 ;; Hardware stack levels required when called:    3
  4741 ;; This function calls:
  4742 ;;		_NRF_GetStatus
  4743 ;; This function is called by:
  4744 ;;		_APPL_TASK_10MS
  4745 ;; This function uses a non-reentrant model
  4746 ;;
  4747                           
  4748                           
  4749                           ;psect for function _NRF_Available
  4750  09BE                     _NRF_Available:
  4751                           
  4752                           ;incstack = 0
  4753                           ; Regs used in _NRF_Available: [wreg+status,2+status,0+pclath+cstack]
  4754                           ;NRF_Available@PipeNo stored from wreg
  4755  09BE  00F3               	movwf	NRF_Available@PipeNo
  4756  09BF                     l2362:
  4757  09BF  01F4               	clrf	NRF_Available@IsAvailable
  4758  09C0                     l2364:
  4759  09C0  3189  21AB  3189   	fcall	_NRF_GetStatus
  4760  09C3                     l2366:
  4761  09C3  0021               	movlb	1	; select bank1
  4762  09C4  0C49               	rrf	(_NRFChip^(0+128)+5),w
  4763  09C5  3907               	andlw	7
  4764  09C6  0673               	xorwf	NRF_Available@PipeNo,w
  4765  09C7  1D03               	skipz
  4766  09C8  29CA               	goto	u2491
  4767  09C9  29CB               	goto	u2490
  4768  09CA                     u2491:
  4769  09CA  29D1               	goto	l2372
  4770  09CB                     u2490:
  4771  09CB                     l2368:
  4772  09CB  1F49               	btfss	(_NRFChip^(0+128)+5),6
  4773  09CC  29CE               	goto	u2501
  4774  09CD  29CF               	goto	u2500
  4775  09CE                     u2501:
  4776  09CE  29D1               	goto	l2372
  4777  09CF                     u2500:
  4778  09CF                     l2370:
  4779  09CF  01F4               	clrf	NRF_Available@IsAvailable
  4780  09D0  0AF4               	incf	NRF_Available@IsAvailable,f
  4781  09D1                     l2372:
  4782  09D1  0874               	movf	NRF_Available@IsAvailable,w
  4783  09D2                     l121:
  4784  09D2  0008               	return
  4785  09D3                     __end_of_NRF_Available:
  4786                           
  4787                           	psect	text29
  4788  09AB                     __ptext29:	
  4789 ;; *************** function _NRF_GetStatus *****************
  4790 ;; Defined at:
  4791 ;;		line 157 in file "02-SRC/04-DRIVER/NRF24L01/NRF24L01.c"
  4792 ;; Parameters:    Size  Location     Type
  4793 ;;		None
  4794 ;; Auto vars:     Size  Location     Type
  4795 ;;		None
  4796 ;; Return value:  Size  Location     Type
  4797 ;;                  1    wreg      unsigned char 
  4798 ;; Registers used:
  4799 ;;		wreg, pclath, cstack
  4800 ;; Tracked objects:
  4801 ;;		On entry : 0/0
  4802 ;;		On exit  : 0/0
  4803 ;;		Unchanged: 0/0
  4804 ;; Data sizes:     COMMON   BANK0   BANK1   BANK2   BANK3   BANK4   BANK5   BANK6
  4805 ;;      Params:         0       0       0       0       0       0       0       0
  4806 ;;      Locals:         0       0       0       0       0       0       0       0
  4807 ;;      Temps:          2       0       0       0       0       0       0       0
  4808 ;;      Totals:         2       0       0       0       0       0       0       0
  4809 ;;Total ram usage:        2 bytes
  4810 ;; Hardware stack levels used:    1
  4811 ;; Hardware stack levels required when called:    2
  4812 ;; This function calls:
  4813 ;;		Absolute function
  4814 ;;		_SPI_Exchange
  4815 ;; This function is called by:
  4816 ;;		_NRF_Available
  4817 ;; This function uses a non-reentrant model
  4818 ;;
  4819                           
  4820                           
  4821                           ;psect for function _NRF_GetStatus
  4822  09AB                     _NRF_GetStatus:
  4823  09AB                     l1878:	
  4824                           ;incstack = 0
  4825                           ; Regs used in _NRF_GetStatus: [wreg+pclath+cstack]
  4826                           
  4827  09AB  0022               	movlb	2	; select bank2
  4828  09AC  108E               	bcf	14,1	;volatile
  4829  09AD                     l1880:
  4830  09AD  30FF               	movlw	255
  4831  09AE  00F1               	movwf	??_NRF_GetStatus
  4832  09AF  0871               	movf	??_NRF_GetStatus,w
  4833  09B0  00F0               	movwf	SPI_Exchange@Data
  4834  09B1  0020               	movlb	0	; select bank0
  4835  09B2  086C               	movf	_p_NRF_SPI_Exchange+1,w
  4836  09B3  008A               	movwf	10
  4837  09B4  086B               	movf	_p_NRF_SPI_Exchange,w
  4838  09B5  000A               	callw
  4839  09B6  3189               	pagesel	$
  4840  09B7  00F2               	movwf	??_NRF_GetStatus+1
  4841  09B8  0872               	movf	??_NRF_GetStatus+1,w
  4842  09B9  0021               	movlb	1	; select bank1
  4843  09BA  00C9               	movwf	(_NRFChip^(0+128)+5)
  4844  09BB                     l1882:
  4845  09BB  0022               	movlb	2	; select bank2
  4846  09BC  148E               	bsf	14,1	;volatile
  4847  09BD                     l124:
  4848  09BD  0008               	return
  4849  09BE                     __end_of_NRF_GetStatus:
  4850                           
  4851                           	psect	text30
  4852  0971                     __ptext30:	
  4853 ;; *************** function _SPI_Exchange *****************
  4854 ;; Defined at:
  4855 ;;		line 63 in file "02-SRC/04-DRIVER/target.c"
  4856 ;; Parameters:    Size  Location     Type
  4857 ;;  Data            1    0[COMMON] unsigned char 
  4858 ;; Auto vars:     Size  Location     Type
  4859 ;;		None
  4860 ;; Return value:  Size  Location     Type
  4861 ;;                  1    wreg      unsigned char 
  4862 ;; Registers used:
  4863 ;;		wreg
  4864 ;; Tracked objects:
  4865 ;;		On entry : 0/0
  4866 ;;		On exit  : 0/0
  4867 ;;		Unchanged: 0/0
  4868 ;; Data sizes:     COMMON   BANK0   BANK1   BANK2   BANK3   BANK4   BANK5   BANK6
  4869 ;;      Params:         1       0       0       0       0       0       0       0
  4870 ;;      Locals:         0       0       0       0       0       0       0       0
  4871 ;;      Temps:          0       0       0       0       0       0       0       0
  4872 ;;      Totals:         1       0       0       0       0       0       0       0
  4873 ;;Total ram usage:        1 bytes
  4874 ;; Hardware stack levels used:    1
  4875 ;; Hardware stack levels required when called:    1
  4876 ;; This function calls:
  4877 ;;		Nothing
  4878 ;; This function is called by:
  4879 ;;		_Appl_Init
  4880 ;;		_NRF_Write_Register
  4881 ;;		_NRF_Read_Register
  4882 ;;		_NRF_GetStatus
  4883 ;;		_NRF_ReadPayload
  4884 ;;		_NRF_StatusHandler
  4885 ;;		_NRF_WritePayload
  4886 ;; This function uses a non-reentrant model
  4887 ;;
  4888                           
  4889                           
  4890                           ;psect for function _SPI_Exchange
  4891  0971                     _SPI_Exchange:
  4892  0971                     l1776:	
  4893                           ;incstack = 0
  4894                           ; Regs used in _SPI_Exchange: [wreg]
  4895                           
  4896  0971  0870               	movf	SPI_Exchange@Data,w
  4897  0972  0024               	movlb	4	; select bank4
  4898  0973  0091               	movwf	17	;volatile
  4899  0974                     l237:
  4900  0974  1C14               	btfss	20,0	;volatile
  4901  0975  2977               	goto	u1371
  4902  0976  2978               	goto	u1370
  4903  0977                     u1371:
  4904  0977  2974               	goto	l237
  4905  0978                     u1370:
  4906  0978                     l1778:
  4907  0978  0811               	movf	17,w	;volatile
  4908  0979                     l240:
  4909  0979  0008               	return
  4910  097A                     __end_of_SPI_Exchange:
  4911                           
  4912                           	psect	text31
  4913  0646                     __ptext31:	
  4914 ;; *************** function _LinearTransiant *****************
  4915 ;; Defined at:
  4916 ;;		line 143 in file "02-SRC/02-APPLICATION/Appl.c"
  4917 ;; Parameters:    Size  Location     Type
  4918 ;;  NewValue        1    wreg     unsigned char 
  4919 ;;  OldValue        1   37[BANK0 ] unsigned char 
  4920 ;;  Duration10ms    1   38[BANK0 ] unsigned char 
  4921 ;; Auto vars:     Size  Location     Type
  4922 ;;  NewValue        1   52[BANK0 ] unsigned char 
  4923 ;;  Slope           4   44[BANK0 ] float 
  4924 ;;  diff            2   48[BANK0 ] unsigned short 
  4925 ;;  i               1   51[BANK0 ] unsigned char 
  4926 ;;  a               1   50[BANK0 ] unsigned char 
  4927 ;; Return value:  Size  Location     Type
  4928 ;;                  1    wreg      void 
  4929 ;; Registers used:
  4930 ;;		wreg, fsr1l, fsr1h, status,2, status,0, pclath, cstack
  4931 ;; Tracked objects:
  4932 ;;		On entry : 0/0
  4933 ;;		On exit  : 0/0
  4934 ;;		Unchanged: 0/0
  4935 ;; Data sizes:     COMMON   BANK0   BANK1   BANK2   BANK3   BANK4   BANK5   BANK6
  4936 ;;      Params:         0       2       0       0       0       0       0       0
  4937 ;;      Locals:         0       9       0       0       0       0       0       0
  4938 ;;      Temps:          0       5       0       0       0       0       0       0
  4939 ;;      Totals:         0      16       0       0       0       0       0       0
  4940 ;;Total ram usage:       16 bytes
  4941 ;; Hardware stack levels used:    1
  4942 ;; Hardware stack levels required when called:    3
  4943 ;; This function calls:
  4944 ;;		___fldiv
  4945 ;;		___flmul
  4946 ;;		___fltol
  4947 ;;		___xxtofl
  4948 ;;		_enQueue
  4949 ;; This function is called by:
  4950 ;;		_APPL_TASK_10MS
  4951 ;; This function uses a non-reentrant model
  4952 ;;
  4953                           
  4954                           
  4955                           ;psect for function _LinearTransiant
  4956  0646                     _LinearTransiant:
  4957                           
  4958                           ;incstack = 0
  4959                           ; Regs used in _LinearTransiant: [wreg+fsr1l+fsr1h+status,2+status,0+pclath+cstack]
  4960                           ;LinearTransiant@NewValue stored from wreg
  4961  0646  0020               	movlb	0	; select bank0
  4962  0647  00D4               	movwf	LinearTransiant@NewValue
  4963  0648                     l2444:
  4964  0648  0854               	movf	LinearTransiant@NewValue,w
  4965  0649  0645               	xorwf	LinearTransiant@OldValue,w
  4966  064A  1903               	skipnz
  4967  064B  2E4D               	goto	u2601
  4968  064C  2E4E               	goto	u2600
  4969  064D                     u2601:
  4970  064D  2F6D               	goto	l335
  4971  064E                     u2600:
  4972  064E                     l2446:
  4973  064E  0854               	movf	LinearTransiant@NewValue,w
  4974  064F  0245               	subwf	LinearTransiant@OldValue,w
  4975  0650  1803               	skipnc
  4976  0651  2E53               	goto	u2611
  4977  0652  2E54               	goto	u2610
  4978  0653                     u2611:
  4979  0653  2EE1               	goto	l2464
  4980  0654                     u2610:
  4981  0654                     l2448:
  4982  0654  0845               	movf	LinearTransiant@OldValue,w
  4983  0655  0254               	subwf	LinearTransiant@NewValue,w
  4984  0656  00D0               	movwf	LinearTransiant@diff
  4985  0657  01D1               	clrf	LinearTransiant@diff+1
  4986  0658  1C03               	skipc
  4987  0659  03D1               	decf	LinearTransiant@diff+1,f
  4988  065A                     l2450:
  4989  065A  0846               	movf	LinearTransiant@Duration10ms,w
  4990  065B  00C7               	movwf	??_LinearTransiant
  4991  065C  01C8               	clrf	??_LinearTransiant+1
  4992  065D  01C9               	clrf	??_LinearTransiant+2
  4993  065E  01CA               	clrf	??_LinearTransiant+3
  4994  065F  084A               	movf	??_LinearTransiant+3,w
  4995  0660  00F3               	movwf	___xxtofl@val+3
  4996  0661  0849               	movf	??_LinearTransiant+2,w
  4997  0662  00F2               	movwf	___xxtofl@val+2
  4998  0663  0848               	movf	??_LinearTransiant+1,w
  4999  0664  00F1               	movwf	___xxtofl@val+1
  5000  0665  0847               	movf	??_LinearTransiant,w
  5001  0666  00F0               	movwf	___xxtofl@val
  5002  0667  3001               	movlw	1
  5003  0668  318F  2754  3186   	fcall	___xxtofl
  5004  066B  0873               	movf	?___xxtofl+3,w
  5005  066C  0020               	movlb	0	; select bank0
  5006  066D  00A3               	movwf	___fldiv@a+3
  5007  066E  0872               	movf	?___xxtofl+2,w
  5008  066F  00A2               	movwf	___fldiv@a+2
  5009  0670  0871               	movf	?___xxtofl+1,w
  5010  0671  00A1               	movwf	___fldiv@a+1
  5011  0672  0870               	movf	?___xxtofl,w
  5012  0673  00A0               	movwf	___fldiv@a
  5013  0674  0850               	movf	LinearTransiant@diff,w
  5014  0675  00F0               	movwf	___xxtofl@val
  5015  0676  0851               	movf	LinearTransiant@diff+1,w
  5016  0677  00F1               	movwf	___xxtofl@val+1
  5017  0678  01F2               	clrf	___xxtofl@val+2
  5018  0679  01F3               	clrf	___xxtofl@val+3
  5019  067A  3000               	movlw	0
  5020  067B  318F  2754  3186   	fcall	___xxtofl
  5021  067E  0873               	movf	?___xxtofl+3,w
  5022  067F  0020               	movlb	0	; select bank0
  5023  0680  00A7               	movwf	___fldiv@b+3
  5024  0681  0872               	movf	?___xxtofl+2,w
  5025  0682  00A6               	movwf	___fldiv@b+2
  5026  0683  0871               	movf	?___xxtofl+1,w
  5027  0684  00A5               	movwf	___fldiv@b+1
  5028  0685  0870               	movf	?___xxtofl,w
  5029  0686  00A4               	movwf	___fldiv@b
  5030  0687  3184  2492  3186   	fcall	___fldiv
  5031  068A  0020               	movlb	0	; select bank0
  5032  068B  0823               	movf	?___fldiv+3,w
  5033  068C  00CF               	movwf	LinearTransiant@Slope+3
  5034  068D  0822               	movf	?___fldiv+2,w
  5035  068E  00CE               	movwf	LinearTransiant@Slope+2
  5036  068F  0821               	movf	?___fldiv+1,w
  5037  0690  00CD               	movwf	LinearTransiant@Slope+1
  5038  0691  0820               	movf	?___fldiv,w
  5039  0692  00CC               	movwf	LinearTransiant@Slope
  5040  0693                     l2452:
  5041  0693  01D3               	clrf	LinearTransiant@i
  5042  0694  0AD3               	incf	LinearTransiant@i,f
  5043  0695  2ED6               	goto	l2460
  5044  0696                     l2454:
  5045  0696  0853               	movf	LinearTransiant@i,w
  5046  0697  00C7               	movwf	??_LinearTransiant
  5047  0698  01C8               	clrf	??_LinearTransiant+1
  5048  0699  01C9               	clrf	??_LinearTransiant+2
  5049  069A  01CA               	clrf	??_LinearTransiant+3
  5050  069B  084A               	movf	??_LinearTransiant+3,w
  5051  069C  00F3               	movwf	___xxtofl@val+3
  5052  069D  0849               	movf	??_LinearTransiant+2,w
  5053  069E  00F2               	movwf	___xxtofl@val+2
  5054  069F  0848               	movf	??_LinearTransiant+1,w
  5055  06A0  00F1               	movwf	___xxtofl@val+1
  5056  06A1  0847               	movf	??_LinearTransiant,w
  5057  06A2  00F0               	movwf	___xxtofl@val
  5058  06A3  3001               	movlw	1
  5059  06A4  318F  2754  3186   	fcall	___xxtofl
  5060  06A7  0873               	movf	?___xxtofl+3,w
  5061  06A8  0020               	movlb	0	; select bank0
  5062  06A9  00A7               	movwf	___flmul@a+3
  5063  06AA  0872               	movf	?___xxtofl+2,w
  5064  06AB  00A6               	movwf	___flmul@a+2
  5065  06AC  0871               	movf	?___xxtofl+1,w
  5066  06AD  00A5               	movwf	___flmul@a+1
  5067  06AE  0870               	movf	?___xxtofl,w
  5068  06AF  00A4               	movwf	___flmul@a
  5069  06B0  084F               	movf	LinearTransiant@Slope+3,w
  5070  06B1  00A3               	movwf	___flmul@b+3
  5071  06B2  084E               	movf	LinearTransiant@Slope+2,w
  5072  06B3  00A2               	movwf	___flmul@b+2
  5073  06B4  084D               	movf	LinearTransiant@Slope+1,w
  5074  06B5  00A1               	movwf	___flmul@b+1
  5075  06B6  084C               	movf	LinearTransiant@Slope,w
  5076  06B7  00A0               	movwf	___flmul@b
  5077  06B8  3180  203B  3186   	fcall	___flmul
  5078  06BB  0020               	movlb	0	; select bank0
  5079  06BC  0823               	movf	?___flmul+3,w
  5080  06BD  00BD               	movwf	___fltol@f1+3
  5081  06BE  0822               	movf	?___flmul+2,w
  5082  06BF  00BC               	movwf	___fltol@f1+2
  5083  06C0  0821               	movf	?___flmul+1,w
  5084  06C1  00BB               	movwf	___fltol@f1+1
  5085  06C2  0820               	movf	?___flmul,w
  5086  06C3  00BA               	movwf	___fltol@f1
  5087  06C4  3187  276E  3186   	fcall	___fltol
  5088  06C7  0020               	movlb	0	; select bank0
  5089  06C8  083A               	movf	?___fltol,w
  5090  06C9  0745               	addwf	LinearTransiant@OldValue,w
  5091  06CA  00CB               	movwf	??_LinearTransiant+4
  5092  06CB  084B               	movf	??_LinearTransiant+4,w
  5093  06CC  00D2               	movwf	LinearTransiant@a
  5094  06CD                     l2456:
  5095  06CD  0852               	movf	LinearTransiant@a,w
  5096  06CE  318D  2541  3186   	fcall	_enQueue
  5097  06D1                     l2458:
  5098  06D1  3001               	movlw	1
  5099  06D2  0020               	movlb	0	; select bank0
  5100  06D3  00C7               	movwf	??_LinearTransiant
  5101  06D4  0847               	movf	??_LinearTransiant,w
  5102  06D5  07D3               	addwf	LinearTransiant@i,f
  5103  06D6                     l2460:
  5104  06D6  0846               	movf	LinearTransiant@Duration10ms,w
  5105  06D7  0253               	subwf	LinearTransiant@i,w
  5106  06D8  1C03               	skipc
  5107  06D9  2EDB               	goto	u2621
  5108  06DA  2EDC               	goto	u2620
  5109  06DB                     u2621:
  5110  06DB  2E96               	goto	l2454
  5111  06DC                     u2620:
  5112  06DC                     l2462:
  5113  06DC  0854               	movf	LinearTransiant@NewValue,w
  5114  06DD  318D  2541  3186   	fcall	_enQueue
  5115  06E0  2F6D               	goto	l335
  5116  06E1                     l2464:
  5117  06E1  0854               	movf	LinearTransiant@NewValue,w
  5118  06E2  0245               	subwf	LinearTransiant@OldValue,w
  5119  06E3  00D0               	movwf	LinearTransiant@diff
  5120  06E4  01D1               	clrf	LinearTransiant@diff+1
  5121  06E5  1C03               	skipc
  5122  06E6  03D1               	decf	LinearTransiant@diff+1,f
  5123  06E7                     l2466:
  5124  06E7  0846               	movf	LinearTransiant@Duration10ms,w
  5125  06E8  00C7               	movwf	??_LinearTransiant
  5126  06E9  01C8               	clrf	??_LinearTransiant+1
  5127  06EA  01C9               	clrf	??_LinearTransiant+2
  5128  06EB  01CA               	clrf	??_LinearTransiant+3
  5129  06EC  084A               	movf	??_LinearTransiant+3,w
  5130  06ED  00F3               	movwf	___xxtofl@val+3
  5131  06EE  0849               	movf	??_LinearTransiant+2,w
  5132  06EF  00F2               	movwf	___xxtofl@val+2
  5133  06F0  0848               	movf	??_LinearTransiant+1,w
  5134  06F1  00F1               	movwf	___xxtofl@val+1
  5135  06F2  0847               	movf	??_LinearTransiant,w
  5136  06F3  00F0               	movwf	___xxtofl@val
  5137  06F4  3001               	movlw	1
  5138  06F5  318F  2754  3186   	fcall	___xxtofl
  5139  06F8  0873               	movf	?___xxtofl+3,w
  5140  06F9  0020               	movlb	0	; select bank0
  5141  06FA  00A3               	movwf	___fldiv@a+3
  5142  06FB  0872               	movf	?___xxtofl+2,w
  5143  06FC  00A2               	movwf	___fldiv@a+2
  5144  06FD  0871               	movf	?___xxtofl+1,w
  5145  06FE  00A1               	movwf	___fldiv@a+1
  5146  06FF  0870               	movf	?___xxtofl,w
  5147  0700  00A0               	movwf	___fldiv@a
  5148  0701  0850               	movf	LinearTransiant@diff,w
  5149  0702  00F0               	movwf	___xxtofl@val
  5150  0703  0851               	movf	LinearTransiant@diff+1,w
  5151  0704  00F1               	movwf	___xxtofl@val+1
  5152  0705  01F2               	clrf	___xxtofl@val+2
  5153  0706  01F3               	clrf	___xxtofl@val+3
  5154  0707  3000               	movlw	0
  5155  0708  318F  2754  3186   	fcall	___xxtofl
  5156  070B  0873               	movf	?___xxtofl+3,w
  5157  070C  0020               	movlb	0	; select bank0
  5158  070D  00A7               	movwf	___fldiv@b+3
  5159  070E  0872               	movf	?___xxtofl+2,w
  5160  070F  00A6               	movwf	___fldiv@b+2
  5161  0710  0871               	movf	?___xxtofl+1,w
  5162  0711  00A5               	movwf	___fldiv@b+1
  5163  0712  0870               	movf	?___xxtofl,w
  5164  0713  00A4               	movwf	___fldiv@b
  5165  0714  3184  2492  3186   	fcall	___fldiv
  5166  0717  0020               	movlb	0	; select bank0
  5167  0718  0823               	movf	?___fldiv+3,w
  5168  0719  00CF               	movwf	LinearTransiant@Slope+3
  5169  071A  0822               	movf	?___fldiv+2,w
  5170  071B  00CE               	movwf	LinearTransiant@Slope+2
  5171  071C  0821               	movf	?___fldiv+1,w
  5172  071D  00CD               	movwf	LinearTransiant@Slope+1
  5173  071E  0820               	movf	?___fldiv,w
  5174  071F  00CC               	movwf	LinearTransiant@Slope
  5175  0720                     l2468:
  5176  0720  01D3               	clrf	LinearTransiant@i
  5177  0721  0AD3               	incf	LinearTransiant@i,f
  5178  0722  2F63               	goto	l2476
  5179  0723                     l2470:
  5180  0723  0853               	movf	LinearTransiant@i,w
  5181  0724  00C7               	movwf	??_LinearTransiant
  5182  0725  01C8               	clrf	??_LinearTransiant+1
  5183  0726  01C9               	clrf	??_LinearTransiant+2
  5184  0727  01CA               	clrf	??_LinearTransiant+3
  5185  0728  084A               	movf	??_LinearTransiant+3,w
  5186  0729  00F3               	movwf	___xxtofl@val+3
  5187  072A  0849               	movf	??_LinearTransiant+2,w
  5188  072B  00F2               	movwf	___xxtofl@val+2
  5189  072C  0848               	movf	??_LinearTransiant+1,w
  5190  072D  00F1               	movwf	___xxtofl@val+1
  5191  072E  0847               	movf	??_LinearTransiant,w
  5192  072F  00F0               	movwf	___xxtofl@val
  5193  0730  3001               	movlw	1
  5194  0731  318F  2754  3186   	fcall	___xxtofl
  5195  0734  0873               	movf	?___xxtofl+3,w
  5196  0735  0020               	movlb	0	; select bank0
  5197  0736  00A7               	movwf	___flmul@a+3
  5198  0737  0872               	movf	?___xxtofl+2,w
  5199  0738  00A6               	movwf	___flmul@a+2
  5200  0739  0871               	movf	?___xxtofl+1,w
  5201  073A  00A5               	movwf	___flmul@a+1
  5202  073B  0870               	movf	?___xxtofl,w
  5203  073C  00A4               	movwf	___flmul@a
  5204  073D  084F               	movf	LinearTransiant@Slope+3,w
  5205  073E  00A3               	movwf	___flmul@b+3
  5206  073F  084E               	movf	LinearTransiant@Slope+2,w
  5207  0740  00A2               	movwf	___flmul@b+2
  5208  0741  084D               	movf	LinearTransiant@Slope+1,w
  5209  0742  00A1               	movwf	___flmul@b+1
  5210  0743  084C               	movf	LinearTransiant@Slope,w
  5211  0744  00A0               	movwf	___flmul@b
  5212  0745  3180  203B  3186   	fcall	___flmul
  5213  0748  0020               	movlb	0	; select bank0
  5214  0749  0823               	movf	?___flmul+3,w
  5215  074A  00BD               	movwf	___fltol@f1+3
  5216  074B  0822               	movf	?___flmul+2,w
  5217  074C  00BC               	movwf	___fltol@f1+2
  5218  074D  0821               	movf	?___flmul+1,w
  5219  074E  00BB               	movwf	___fltol@f1+1
  5220  074F  0820               	movf	?___flmul,w
  5221  0750  00BA               	movwf	___fltol@f1
  5222  0751  3187  276E  3186   	fcall	___fltol
  5223  0754  0020               	movlb	0	; select bank0
  5224  0755  083A               	movf	?___fltol,w
  5225  0756  0245               	subwf	LinearTransiant@OldValue,w
  5226  0757  00CB               	movwf	??_LinearTransiant+4
  5227  0758  084B               	movf	??_LinearTransiant+4,w
  5228  0759  00D2               	movwf	LinearTransiant@a
  5229  075A                     l2472:
  5230  075A  0852               	movf	LinearTransiant@a,w
  5231  075B  318D  2541  3186   	fcall	_enQueue
  5232  075E                     l2474:
  5233  075E  3001               	movlw	1
  5234  075F  0020               	movlb	0	; select bank0
  5235  0760  00C7               	movwf	??_LinearTransiant
  5236  0761  0847               	movf	??_LinearTransiant,w
  5237  0762  07D3               	addwf	LinearTransiant@i,f
  5238  0763                     l2476:
  5239  0763  0846               	movf	LinearTransiant@Duration10ms,w
  5240  0764  0253               	subwf	LinearTransiant@i,w
  5241  0765  1C03               	skipc
  5242  0766  2F68               	goto	u2631
  5243  0767  2F69               	goto	u2630
  5244  0768                     u2631:
  5245  0768  2F23               	goto	l2470
  5246  0769                     u2630:
  5247  0769                     l2478:
  5248  0769  0854               	movf	LinearTransiant@NewValue,w
  5249  076A  318D  2541  3186   	fcall	_enQueue
  5250  076D                     l335:
  5251  076D  0008               	return
  5252  076E                     __end_of_LinearTransiant:
  5253                           
  5254                           	psect	text32
  5255  0D41                     __ptext32:	
  5256 ;; *************** function _enQueue *****************
  5257 ;; Defined at:
  5258 ;;		line 113 in file "02-SRC/02-APPLICATION/Appl.c"
  5259 ;; Parameters:    Size  Location     Type
  5260 ;;  element         1    wreg     unsigned char 
  5261 ;; Auto vars:     Size  Location     Type
  5262 ;;  element         1   10[COMMON] unsigned char 
  5263 ;; Return value:  Size  Location     Type
  5264 ;;                  1    wreg      void 
  5265 ;; Registers used:
  5266 ;;		wreg, fsr1l, fsr1h, status,2, status,0, pclath, cstack
  5267 ;; Tracked objects:
  5268 ;;		On entry : 0/0
  5269 ;;		On exit  : 0/0
  5270 ;;		Unchanged: 0/0
  5271 ;; Data sizes:     COMMON   BANK0   BANK1   BANK2   BANK3   BANK4   BANK5   BANK6
  5272 ;;      Params:         0       0       0       0       0       0       0       0
  5273 ;;      Locals:         1       0       0       0       0       0       0       0
  5274 ;;      Temps:          4       0       0       0       0       0       0       0
  5275 ;;      Totals:         5       0       0       0       0       0       0       0
  5276 ;;Total ram usage:        5 bytes
  5277 ;; Hardware stack levels used:    1
  5278 ;; Hardware stack levels required when called:    2
  5279 ;; This function calls:
  5280 ;;		_IsFull
  5281 ;;		___lwmod
  5282 ;; This function is called by:
  5283 ;;		_LinearTransiant
  5284 ;;		_APPL_TASK_10MS
  5285 ;; This function uses a non-reentrant model
  5286 ;;
  5287                           
  5288                           
  5289                           ;psect for function _enQueue
  5290  0D41                     _enQueue:
  5291                           
  5292                           ;incstack = 0
  5293                           ; Regs used in _enQueue: [wreg+fsr1l+fsr1h+status,2+status,0+pclath+cstack]
  5294                           ;enQueue@element stored from wreg
  5295  0D41  00FA               	movwf	enQueue@element
  5296  0D42                     l1890:
  5297  0D42  318B  23A5  318D   	fcall	_IsFull
  5298  0D45  3A00               	xorlw	0
  5299  0D46  1D03               	skipz
  5300  0D47  2D49               	goto	u1561
  5301  0D48  2D4A               	goto	u1560
  5302  0D49                     u1561:
  5303  0D49  2D81               	goto	l316
  5304  0D4A                     u1560:
  5305  0D4A                     l1892:
  5306  0D4A  0020               	movlb	0	; select bank0
  5307  0D4B  0A5D               	incf	_MyQueue,w
  5308  0D4C  1D03               	skipz
  5309  0D4D  2D54               	goto	u1570
  5310  0D4E  0A5E               	incf	_MyQueue+1,w
  5311  0D4F  1903               	btfsc	3,2
  5312  0D50  2D52               	goto	u1571
  5313  0D51  2D54               	goto	u1570
  5314  0D52                     u1571:
  5315  0D52  3001               	movlw	1
  5316  0D53  2D55               	goto	u1580
  5317  0D54                     u1570:
  5318  0D54  3000               	movlw	0
  5319  0D55                     u1580:
  5320  0D55  00F6               	movwf	??_enQueue
  5321  0D56  01F7               	clrf	??_enQueue+1
  5322  0D57  0876               	movf	??_enQueue,w
  5323  0D58  07DD               	addwf	_MyQueue,f
  5324  0D59  0877               	movf	??_enQueue+1,w
  5325  0D5A  3DDE               	addwfc	_MyQueue+1,f
  5326  0D5B                     l1894:
  5327  0D5B  0862               	movf	_MyQueue+5,w
  5328  0D5C  00F1               	movwf	___lwmod@divisor+1
  5329  0D5D  0861               	movf	_MyQueue+4,w
  5330  0D5E  00F0               	movwf	___lwmod@divisor
  5331  0D5F  085F               	movf	_MyQueue+2,w
  5332  0D60  3E01               	addlw	1
  5333  0D61  00F2               	movwf	___lwmod@dividend
  5334  0D62  3000               	movlw	0
  5335  0D63  3D60               	addwfc	_MyQueue+3,w
  5336  0D64  00F3               	movwf	___lwmod@dividend+1
  5337  0D65  318C  2460  318D   	fcall	___lwmod
  5338  0D68  0871               	movf	?___lwmod+1,w
  5339  0D69  0020               	movlb	0	; select bank0
  5340  0D6A  00E0               	movwf	_MyQueue+3
  5341  0D6B  0870               	movf	?___lwmod,w
  5342  0D6C  00DF               	movwf	_MyQueue+2
  5343  0D6D                     l1896:
  5344  0D6D  3002               	movlw	2
  5345  0D6E  3E5D               	addlw	(low (_MyQueue| 0))& (0+255)
  5346  0D6F  0086               	movwf	6
  5347  0D70  0187               	clrf	7
  5348  0D71  30F0               	movlw	240
  5349  0D72  00F6               	movwf	??_enQueue
  5350  0D73  3020               	movlw	32
  5351  0D74  00F7               	movwf	??_enQueue+1
  5352  0D75  3F40               	moviw [0]fsr1
  5353  0D76  0776               	addwf	??_enQueue,w
  5354  0D77  00F8               	movwf	??_enQueue+2
  5355  0D78  3F41               	moviw [1]fsr1
  5356  0D79  3D77               	addwfc	??_enQueue+1,w
  5357  0D7A  00F9               	movwf	??_enQueue+3
  5358  0D7B  0878               	movf	??_enQueue+2,w
  5359  0D7C  0086               	movwf	6
  5360  0D7D  0879               	movf	??_enQueue+3,w
  5361  0D7E  0087               	movwf	7
  5362  0D7F  087A               	movf	enQueue@element,w
  5363  0D80  0081               	movwf	1
  5364  0D81                     l316:
  5365  0D81  0008               	return
  5366  0D82                     __end_of_enQueue:
  5367                           
  5368                           	psect	text33
  5369  0C60                     __ptext33:	
  5370 ;; *************** function ___lwmod *****************
  5371 ;; Defined at:
  5372 ;;		line 5 in file "C:\Program Files (x86)\Microchip\xc8\pic\sources\c99\common\lwmod.c"
  5373 ;; Parameters:    Size  Location     Type
  5374 ;;  divisor         2    0[COMMON] unsigned int 
  5375 ;;  dividend        2    2[COMMON] unsigned int 
  5376 ;; Auto vars:     Size  Location     Type
  5377 ;;  counter         1    5[COMMON] unsigned char 
  5378 ;; Return value:  Size  Location     Type
  5379 ;;                  2    0[COMMON] unsigned int 
  5380 ;; Registers used:
  5381 ;;		wreg, status,2, status,0
  5382 ;; Tracked objects:
  5383 ;;		On entry : 0/0
  5384 ;;		On exit  : 0/0
  5385 ;;		Unchanged: 0/0
  5386 ;; Data sizes:     COMMON   BANK0   BANK1   BANK2   BANK3   BANK4   BANK5   BANK6
  5387 ;;      Params:         4       0       0       0       0       0       0       0
  5388 ;;      Locals:         1       0       0       0       0       0       0       0
  5389 ;;      Temps:          1       0       0       0       0       0       0       0
  5390 ;;      Totals:         6       0       0       0       0       0       0       0
  5391 ;;Total ram usage:        6 bytes
  5392 ;; Hardware stack levels used:    1
  5393 ;; Hardware stack levels required when called:    1
  5394 ;; This function calls:
  5395 ;;		Nothing
  5396 ;; This function is called by:
  5397 ;;		_enQueue
  5398 ;;		_deQueue
  5399 ;; This function uses a non-reentrant model
  5400 ;;
  5401                           
  5402                           
  5403                           ;psect for function ___lwmod
  5404  0C60                     ___lwmod:
  5405  0C60                     l1828:	
  5406                           ;incstack = 0
  5407                           ; Regs used in ___lwmod: [wreg+status,2+status,0]
  5408                           
  5409  0C60  0870               	movf	___lwmod@divisor,w
  5410  0C61  0471               	iorwf	___lwmod@divisor+1,w
  5411  0C62  1903               	btfsc	3,2
  5412  0C63  2C65               	goto	u1431
  5413  0C64  2C66               	goto	u1430
  5414  0C65                     u1431:
  5415  0C65  2C8F               	goto	l1846
  5416  0C66                     u1430:
  5417  0C66                     l1830:
  5418  0C66  01F5               	clrf	___lwmod@counter
  5419  0C67  0AF5               	incf	___lwmod@counter,f
  5420  0C68  2C72               	goto	l1836
  5421  0C69                     l1832:
  5422  0C69  3001               	movlw	1
  5423  0C6A                     u1445:
  5424  0C6A  35F0               	lslf	___lwmod@divisor,f
  5425  0C6B  0DF1               	rlf	___lwmod@divisor+1,f
  5426  0C6C  0B89               	decfsz	9,f
  5427  0C6D  2C6A               	goto	u1445
  5428  0C6E                     l1834:
  5429  0C6E  3001               	movlw	1
  5430  0C6F  00F4               	movwf	??___lwmod
  5431  0C70  0874               	movf	??___lwmod,w
  5432  0C71  07F5               	addwf	___lwmod@counter,f
  5433  0C72                     l1836:
  5434  0C72  1FF1               	btfss	___lwmod@divisor+1,7
  5435  0C73  2C75               	goto	u1451
  5436  0C74  2C76               	goto	u1450
  5437  0C75                     u1451:
  5438  0C75  2C69               	goto	l1832
  5439  0C76                     u1450:
  5440  0C76                     l1838:
  5441  0C76  0871               	movf	___lwmod@divisor+1,w
  5442  0C77  0273               	subwf	___lwmod@dividend+1,w
  5443  0C78  1D03               	skipz
  5444  0C79  2C7C               	goto	u1465
  5445  0C7A  0870               	movf	___lwmod@divisor,w
  5446  0C7B  0272               	subwf	___lwmod@dividend,w
  5447  0C7C                     u1465:
  5448  0C7C  1C03               	skipc
  5449  0C7D  2C7F               	goto	u1461
  5450  0C7E  2C80               	goto	u1460
  5451  0C7F                     u1461:
  5452  0C7F  2C84               	goto	l1842
  5453  0C80                     u1460:
  5454  0C80                     l1840:
  5455  0C80  0870               	movf	___lwmod@divisor,w
  5456  0C81  02F2               	subwf	___lwmod@dividend,f
  5457  0C82  0871               	movf	___lwmod@divisor+1,w
  5458  0C83  3BF3               	subwfb	___lwmod@dividend+1,f
  5459  0C84                     l1842:
  5460  0C84  3001               	movlw	1
  5461  0C85                     u1475:
  5462  0C85  36F1               	lsrf	___lwmod@divisor+1,f
  5463  0C86  0CF0               	rrf	___lwmod@divisor,f
  5464  0C87  0B89               	decfsz	9,f
  5465  0C88  2C85               	goto	u1475
  5466  0C89                     l1844:
  5467  0C89  3001               	movlw	1
  5468  0C8A  02F5               	subwf	___lwmod@counter,f
  5469  0C8B  1D03               	btfss	3,2
  5470  0C8C  2C8E               	goto	u1481
  5471  0C8D  2C8F               	goto	u1480
  5472  0C8E                     u1481:
  5473  0C8E  2C76               	goto	l1838
  5474  0C8F                     u1480:
  5475  0C8F                     l1846:
  5476  0C8F  0873               	movf	___lwmod@dividend+1,w
  5477  0C90  00F1               	movwf	?___lwmod+1
  5478  0C91  0872               	movf	___lwmod@dividend,w
  5479  0C92  00F0               	movwf	?___lwmod
  5480  0C93                     l716:
  5481  0C93  0008               	return
  5482  0C94                     __end_of___lwmod:
  5483                           
  5484                           	psect	text34
  5485  0BA5                     __ptext34:	
  5486 ;; *************** function _IsFull *****************
  5487 ;; Defined at:
  5488 ;;		line 83 in file "02-SRC/02-APPLICATION/Appl.c"
  5489 ;; Parameters:    Size  Location     Type
  5490 ;;		None
  5491 ;; Auto vars:     Size  Location     Type
  5492 ;;		None
  5493 ;; Return value:  Size  Location     Type
  5494 ;;                  1    wreg      unsigned char 
  5495 ;; Registers used:
  5496 ;;		wreg, status,2, status,0
  5497 ;; Tracked objects:
  5498 ;;		On entry : 0/0
  5499 ;;		On exit  : 0/0
  5500 ;;		Unchanged: 0/0
  5501 ;; Data sizes:     COMMON   BANK0   BANK1   BANK2   BANK3   BANK4   BANK5   BANK6
  5502 ;;      Params:         0       0       0       0       0       0       0       0
  5503 ;;      Locals:         1       0       0       0       0       0       0       0
  5504 ;;      Temps:          2       0       0       0       0       0       0       0
  5505 ;;      Totals:         3       0       0       0       0       0       0       0
  5506 ;;Total ram usage:        3 bytes
  5507 ;; Hardware stack levels used:    1
  5508 ;; Hardware stack levels required when called:    1
  5509 ;; This function calls:
  5510 ;;		Nothing
  5511 ;; This function is called by:
  5512 ;;		_enQueue
  5513 ;; This function uses a non-reentrant model
  5514 ;;
  5515                           
  5516                           
  5517                           ;psect for function _IsFull
  5518  0BA5                     _IsFull:
  5519  0BA5                     l1814:	
  5520                           ;incstack = 0
  5521                           ; Regs used in _IsFull: [wreg+status,2+status,0]
  5522                           
  5523  0BA5  01F2               	clrf	_IsFull$564
  5524  0BA6  0AF2               	incf	_IsFull$564,f
  5525  0BA7                     l1816:
  5526  0BA7  0020               	movlb	0	; select bank0
  5527  0BA8  085F               	movf	_MyQueue+2,w
  5528  0BA9  3E01               	addlw	1
  5529  0BAA  00F0               	movwf	??_IsFull
  5530  0BAB  3000               	movlw	0
  5531  0BAC  3D60               	addwfc	_MyQueue+3,w
  5532  0BAD  00F1               	movwf	??_IsFull+1
  5533  0BAE  085E               	movf	_MyQueue+1,w
  5534  0BAF  0671               	xorwf	??_IsFull+1,w
  5535  0BB0  1D03               	skipz
  5536  0BB1  2BB4               	goto	u1405
  5537  0BB2  085D               	movf	_MyQueue,w
  5538  0BB3  0670               	xorwf	??_IsFull,w
  5539  0BB4                     u1405:
  5540  0BB4  1903               	skipnz
  5541  0BB5  2BB7               	goto	u1401
  5542  0BB6  2BB8               	goto	u1400
  5543  0BB7                     u1401:
  5544  0BB7  2BCF               	goto	l1824
  5545  0BB8                     u1400:
  5546  0BB8                     l1818:
  5547  0BB8  085D               	movf	_MyQueue,w
  5548  0BB9  045E               	iorwf	_MyQueue+1,w
  5549  0BBA  1D03               	btfss	3,2
  5550  0BBB  2BBD               	goto	u1411
  5551  0BBC  2BBE               	goto	u1410
  5552  0BBD                     u1411:
  5553  0BBD  2BCE               	goto	l1822
  5554  0BBE                     u1410:
  5555  0BBE                     l1820:
  5556  0BBE  0861               	movf	_MyQueue+4,w
  5557  0BBF  3EFF               	addlw	255
  5558  0BC0  00F0               	movwf	??_IsFull
  5559  0BC1  30FF               	movlw	255
  5560  0BC2  3D62               	addwfc	_MyQueue+5,w
  5561  0BC3  00F1               	movwf	??_IsFull+1
  5562  0BC4  0860               	movf	_MyQueue+3,w
  5563  0BC5  0671               	xorwf	??_IsFull+1,w
  5564  0BC6  1D03               	skipz
  5565  0BC7  2BCA               	goto	u1425
  5566  0BC8  085F               	movf	_MyQueue+2,w
  5567  0BC9  0670               	xorwf	??_IsFull,w
  5568  0BCA                     u1425:
  5569  0BCA  1903               	skipnz
  5570  0BCB  2BCD               	goto	u1421
  5571  0BCC  2BCE               	goto	u1420
  5572  0BCD                     u1421:
  5573  0BCD  2BCF               	goto	l1824
  5574  0BCE                     u1420:
  5575  0BCE                     l1822:
  5576  0BCE  01F2               	clrf	_IsFull$564
  5577  0BCF                     l1824:
  5578  0BCF  0872               	movf	_IsFull$564,w
  5579  0BD0                     l301:
  5580  0BD0  0008               	return
  5581  0BD1                     __end_of_IsFull:
  5582                           
  5583                           	psect	text35
  5584  0F54                     __ptext35:	
  5585 ;; *************** function ___xxtofl *****************
  5586 ;; Defined at:
  5587 ;;		line 10 in file "C:\Program Files (x86)\Microchip\xc8\pic\sources\c99\common\xxtofl.c"
  5588 ;; Parameters:    Size  Location     Type
  5589 ;;  sign            1    wreg     unsigned char 
  5590 ;;  val             4    0[COMMON] long 
  5591 ;; Auto vars:     Size  Location     Type
  5592 ;;  sign            1    8[COMMON] unsigned char 
  5593 ;;  arg             4   10[COMMON] unsigned long 
  5594 ;;  exp             1    9[COMMON] unsigned char 
  5595 ;; Return value:  Size  Location     Type
  5596 ;;                  4    0[COMMON] unsigned char 
  5597 ;; Registers used:
  5598 ;;		wreg, status,2, status,0
  5599 ;; Tracked objects:
  5600 ;;		On entry : 0/0
  5601 ;;		On exit  : 0/0
  5602 ;;		Unchanged: 0/0
  5603 ;; Data sizes:     COMMON   BANK0   BANK1   BANK2   BANK3   BANK4   BANK5   BANK6
  5604 ;;      Params:         4       0       0       0       0       0       0       0
  5605 ;;      Locals:         6       0       0       0       0       0       0       0
  5606 ;;      Temps:          4       0       0       0       0       0       0       0
  5607 ;;      Totals:        14       0       0       0       0       0       0       0
  5608 ;;Total ram usage:       14 bytes
  5609 ;; Hardware stack levels used:    1
  5610 ;; Hardware stack levels required when called:    1
  5611 ;; This function calls:
  5612 ;;		Nothing
  5613 ;; This function is called by:
  5614 ;;		_LinearTransiant
  5615 ;; This function uses a non-reentrant model
  5616 ;;
  5617                           
  5618                           
  5619                           ;psect for function ___xxtofl
  5620  0F54                     ___xxtofl:
  5621                           
  5622                           ;incstack = 0
  5623                           ; Regs used in ___xxtofl: [wreg+status,2+status,0]
  5624                           ;___xxtofl@sign stored from wreg
  5625  0F54  00F8               	movwf	___xxtofl@sign
  5626  0F55                     l2228:
  5627  0F55  0878               	movf	___xxtofl@sign,w
  5628  0F56  1903               	btfsc	3,2
  5629  0F57  2F59               	goto	u2261
  5630  0F58  2F5A               	goto	u2260
  5631  0F59                     u2261:
  5632  0F59  2F6E               	goto	l2234
  5633  0F5A                     u2260:
  5634  0F5A                     l2230:
  5635  0F5A  1FF3               	btfss	___xxtofl@val+3,7
  5636  0F5B  2F5D               	goto	u2271
  5637  0F5C  2F5E               	goto	u2270
  5638  0F5D                     u2271:
  5639  0F5D  2F6E               	goto	l2234
  5640  0F5E                     u2270:
  5641  0F5E                     l2232:
  5642  0F5E  0970               	comf	___xxtofl@val,w
  5643  0F5F  00FA               	movwf	___xxtofl@arg
  5644  0F60  0971               	comf	___xxtofl@val+1,w
  5645  0F61  00FB               	movwf	___xxtofl@arg+1
  5646  0F62  0972               	comf	___xxtofl@val+2,w
  5647  0F63  00FC               	movwf	___xxtofl@arg+2
  5648  0F64  0973               	comf	___xxtofl@val+3,w
  5649  0F65  00FD               	movwf	___xxtofl@arg+3
  5650  0F66  0AFA               	incf	___xxtofl@arg,f
  5651  0F67  1903               	skipnz
  5652  0F68  0AFB               	incf	___xxtofl@arg+1,f
  5653  0F69  1903               	skipnz
  5654  0F6A  0AFC               	incf	___xxtofl@arg+2,f
  5655  0F6B  1903               	skipnz
  5656  0F6C  0AFD               	incf	___xxtofl@arg+3,f
  5657  0F6D  2F76               	goto	l867
  5658  0F6E                     l2234:
  5659  0F6E  0873               	movf	___xxtofl@val+3,w
  5660  0F6F  00FD               	movwf	___xxtofl@arg+3
  5661  0F70  0872               	movf	___xxtofl@val+2,w
  5662  0F71  00FC               	movwf	___xxtofl@arg+2
  5663  0F72  0871               	movf	___xxtofl@val+1,w
  5664  0F73  00FB               	movwf	___xxtofl@arg+1
  5665  0F74  0870               	movf	___xxtofl@val,w
  5666  0F75  00FA               	movwf	___xxtofl@arg
  5667  0F76                     l867:
  5668  0F76  0873               	movf	___xxtofl@val+3,w
  5669  0F77  0472               	iorwf	___xxtofl@val+2,w
  5670  0F78  0471               	iorwf	___xxtofl@val+1,w
  5671  0F79  0470               	iorwf	___xxtofl@val,w
  5672  0F7A  1D03               	skipz
  5673  0F7B  2F7D               	goto	u2281
  5674  0F7C  2F7E               	goto	u2280
  5675  0F7D                     u2281:
  5676  0F7D  2F87               	goto	l2240
  5677  0F7E                     u2280:
  5678  0F7E                     l2236:
  5679  0F7E  3000               	movlw	0
  5680  0F7F  00F3               	movwf	?___xxtofl+3
  5681  0F80  3000               	movlw	0
  5682  0F81  00F2               	movwf	?___xxtofl+2
  5683  0F82  3000               	movlw	0
  5684  0F83  00F1               	movwf	?___xxtofl+1
  5685  0F84  3000               	movlw	0
  5686  0F85  00F0               	movwf	?___xxtofl
  5687  0F86  2FFF               	goto	l869
  5688  0F87                     l2240:
  5689  0F87  3096               	movlw	150
  5690  0F88  00F4               	movwf	??___xxtofl
  5691  0F89  0874               	movf	??___xxtofl,w
  5692  0F8A  00F9               	movwf	___xxtofl@exp
  5693  0F8B  2F97               	goto	l2244
  5694  0F8C                     l2242:
  5695  0F8C  3001               	movlw	1
  5696  0F8D  00F4               	movwf	??___xxtofl
  5697  0F8E  0874               	movf	??___xxtofl,w
  5698  0F8F  07F9               	addwf	___xxtofl@exp,f
  5699  0F90  3001               	movlw	1
  5700  0F91                     u2295:
  5701  0F91  36FD               	lsrf	___xxtofl@arg+3,f
  5702  0F92  0CFC               	rrf	___xxtofl@arg+2,f
  5703  0F93  0CFB               	rrf	___xxtofl@arg+1,f
  5704  0F94  0CFA               	rrf	___xxtofl@arg,f
  5705  0F95  0B89               	decfsz	9,f
  5706  0F96  2F91               	goto	u2295
  5707  0F97                     l2244:
  5708  0F97  30FE               	movlw	254
  5709  0F98  057D               	andwf	___xxtofl@arg+3,w
  5710  0F99  1D03               	btfss	3,2
  5711  0F9A  2F9C               	goto	u2301
  5712  0F9B  2F9D               	goto	u2300
  5713  0F9C                     u2301:
  5714  0F9C  2F8C               	goto	l2242
  5715  0F9D                     u2300:
  5716  0F9D  2FB1               	goto	l873
  5717  0F9E                     l2246:
  5718  0F9E  3001               	movlw	1
  5719  0F9F  00F4               	movwf	??___xxtofl
  5720  0FA0  0874               	movf	??___xxtofl,w
  5721  0FA1  07F9               	addwf	___xxtofl@exp,f
  5722  0FA2                     l2248:
  5723  0FA2  3001               	movlw	1
  5724  0FA3  07FA               	addwf	___xxtofl@arg,f
  5725  0FA4  3000               	movlw	0
  5726  0FA5  3DFB               	addwfc	___xxtofl@arg+1,f
  5727  0FA6  3000               	movlw	0
  5728  0FA7  3DFC               	addwfc	___xxtofl@arg+2,f
  5729  0FA8  3000               	movlw	0
  5730  0FA9  3DFD               	addwfc	___xxtofl@arg+3,f
  5731  0FAA                     l2250:
  5732  0FAA  3001               	movlw	1
  5733  0FAB                     u2315:
  5734  0FAB  36FD               	lsrf	___xxtofl@arg+3,f
  5735  0FAC  0CFC               	rrf	___xxtofl@arg+2,f
  5736  0FAD  0CFB               	rrf	___xxtofl@arg+1,f
  5737  0FAE  0CFA               	rrf	___xxtofl@arg,f
  5738  0FAF  0B89               	decfsz	9,f
  5739  0FB0  2FAB               	goto	u2315
  5740  0FB1                     l873:
  5741  0FB1  30FF               	movlw	255
  5742  0FB2  057D               	andwf	___xxtofl@arg+3,w
  5743  0FB3  1D03               	btfss	3,2
  5744  0FB4  2FB6               	goto	u2321
  5745  0FB5  2FB7               	goto	u2320
  5746  0FB6                     u2321:
  5747  0FB6  2F9E               	goto	l2246
  5748  0FB7                     u2320:
  5749  0FB7  2FC1               	goto	l2254
  5750  0FB8                     l2252:
  5751  0FB8  3001               	movlw	1
  5752  0FB9  02F9               	subwf	___xxtofl@exp,f
  5753  0FBA  3001               	movlw	1
  5754  0FBB                     u2335:
  5755  0FBB  35FA               	lslf	___xxtofl@arg,f
  5756  0FBC  0DFB               	rlf	___xxtofl@arg+1,f
  5757  0FBD  0DFC               	rlf	___xxtofl@arg+2,f
  5758  0FBE  0DFD               	rlf	___xxtofl@arg+3,f
  5759  0FBF  0B89               	decfsz	9,f
  5760  0FC0  2FBB               	goto	u2335
  5761  0FC1                     l2254:
  5762  0FC1  1BFC               	btfsc	___xxtofl@arg+2,7
  5763  0FC2  2FC4               	goto	u2341
  5764  0FC3  2FC5               	goto	u2340
  5765  0FC4                     u2341:
  5766  0FC4  2FCB               	goto	l880
  5767  0FC5                     u2340:
  5768  0FC5                     l2256:
  5769  0FC5  3002               	movlw	2
  5770  0FC6  0279               	subwf	___xxtofl@exp,w
  5771  0FC7  1803               	skipnc
  5772  0FC8  2FCA               	goto	u2351
  5773  0FC9  2FCB               	goto	u2350
  5774  0FCA                     u2351:
  5775  0FCA  2FB8               	goto	l2252
  5776  0FCB                     u2350:
  5777  0FCB                     l880:
  5778  0FCB  1879               	btfsc	___xxtofl@exp,0
  5779  0FCC  2FCE               	goto	u2361
  5780  0FCD  2FCF               	goto	u2360
  5781  0FCE                     u2361:
  5782  0FCE  2FD7               	goto	l881
  5783  0FCF                     u2360:
  5784  0FCF                     l2258:
  5785  0FCF  30FF               	movlw	255
  5786  0FD0  05FA               	andwf	___xxtofl@arg,f
  5787  0FD1  30FF               	movlw	255
  5788  0FD2  05FB               	andwf	___xxtofl@arg+1,f
  5789  0FD3  307F               	movlw	127
  5790  0FD4  05FC               	andwf	___xxtofl@arg+2,f
  5791  0FD5  30FF               	movlw	255
  5792  0FD6  05FD               	andwf	___xxtofl@arg+3,f
  5793  0FD7                     l881:
  5794  0FD7  1003               	clrc
  5795  0FD8  0CF9               	rrf	___xxtofl@exp,f
  5796  0FD9                     l2260:
  5797  0FD9  0879               	movf	___xxtofl@exp,w
  5798  0FDA  00F4               	movwf	??___xxtofl
  5799  0FDB  01F5               	clrf	??___xxtofl+1
  5800  0FDC  01F6               	clrf	??___xxtofl+2
  5801  0FDD  01F7               	clrf	??___xxtofl+3
  5802  0FDE  3018               	movlw	24
  5803  0FDF                     u2375:
  5804  0FDF  35F4               	lslf	??___xxtofl,f
  5805  0FE0  0DF5               	rlf	??___xxtofl+1,f
  5806  0FE1  0DF6               	rlf	??___xxtofl+2,f
  5807  0FE2  0DF7               	rlf	??___xxtofl+3,f
  5808  0FE3                     u2370:
  5809  0FE3  0B89               	decfsz	9,f
  5810  0FE4  2FDF               	goto	u2375
  5811  0FE5  0874               	movf	??___xxtofl,w
  5812  0FE6  04FA               	iorwf	___xxtofl@arg,f
  5813  0FE7  0875               	movf	??___xxtofl+1,w
  5814  0FE8  04FB               	iorwf	___xxtofl@arg+1,f
  5815  0FE9  0876               	movf	??___xxtofl+2,w
  5816  0FEA  04FC               	iorwf	___xxtofl@arg+2,f
  5817  0FEB  0877               	movf	??___xxtofl+3,w
  5818  0FEC  04FD               	iorwf	___xxtofl@arg+3,f
  5819  0FED                     l2262:
  5820  0FED  0878               	movf	___xxtofl@sign,w
  5821  0FEE  1903               	btfsc	3,2
  5822  0FEF  2FF1               	goto	u2381
  5823  0FF0  2FF2               	goto	u2380
  5824  0FF1                     u2381:
  5825  0FF1  2FF7               	goto	l2268
  5826  0FF2                     u2380:
  5827  0FF2                     l2264:
  5828  0FF2  1FF3               	btfss	___xxtofl@val+3,7
  5829  0FF3  2FF5               	goto	u2391
  5830  0FF4  2FF6               	goto	u2390
  5831  0FF5                     u2391:
  5832  0FF5  2FF7               	goto	l2268
  5833  0FF6                     u2390:
  5834  0FF6                     l2266:
  5835  0FF6  17FD               	bsf	___xxtofl@arg+3,7
  5836  0FF7                     l2268:
  5837  0FF7  087D               	movf	___xxtofl@arg+3,w
  5838  0FF8  00F3               	movwf	?___xxtofl+3
  5839  0FF9  087C               	movf	___xxtofl@arg+2,w
  5840  0FFA  00F2               	movwf	?___xxtofl+2
  5841  0FFB  087B               	movf	___xxtofl@arg+1,w
  5842  0FFC  00F1               	movwf	?___xxtofl+1
  5843  0FFD  087A               	movf	___xxtofl@arg,w
  5844  0FFE  00F0               	movwf	?___xxtofl
  5845  0FFF                     l869:
  5846  0FFF  0008               	return
  5847  1000                     __end_of___xxtofl:
  5848                           
  5849                           	psect	text36
  5850  076E                     __ptext36:	
  5851 ;; *************** function ___fltol *****************
  5852 ;; Defined at:
  5853 ;;		line 43 in file "C:\Program Files (x86)\Microchip\xc8\pic\sources\c99\common\fltol.c"
  5854 ;; Parameters:    Size  Location     Type
  5855 ;;  f1              4   26[BANK0 ] unsigned char 
  5856 ;; Auto vars:     Size  Location     Type
  5857 ;;  exp1            1   36[BANK0 ] unsigned char 
  5858 ;;  sign1           1   35[BANK0 ] unsigned char 
  5859 ;; Return value:  Size  Location     Type
  5860 ;;                  4   26[BANK0 ] long 
  5861 ;; Registers used:
  5862 ;;		wreg, status,2, status,0
  5863 ;; Tracked objects:
  5864 ;;		On entry : 0/0
  5865 ;;		On exit  : 0/0
  5866 ;;		Unchanged: 0/0
  5867 ;; Data sizes:     COMMON   BANK0   BANK1   BANK2   BANK3   BANK4   BANK5   BANK6
  5868 ;;      Params:         0       4       0       0       0       0       0       0
  5869 ;;      Locals:         0       2       0       0       0       0       0       0
  5870 ;;      Temps:          0       5       0       0       0       0       0       0
  5871 ;;      Totals:         0      11       0       0       0       0       0       0
  5872 ;;Total ram usage:       11 bytes
  5873 ;; Hardware stack levels used:    1
  5874 ;; Hardware stack levels required when called:    1
  5875 ;; This function calls:
  5876 ;;		Nothing
  5877 ;; This function is called by:
  5878 ;;		_LinearTransiant
  5879 ;; This function uses a non-reentrant model
  5880 ;;
  5881                           
  5882                           
  5883                           ;psect for function ___fltol
  5884  076E                     ___fltol:
  5885  076E                     l1912:	
  5886                           ;incstack = 0
  5887                           ; Regs used in ___fltol: [wreg+status,2+status,0]
  5888                           
  5889  076E  1003               	clrc
  5890  076F  0020               	movlb	0	; select bank0
  5891  0770  0D3C               	rlf	___fltol@f1+2,w
  5892  0771  0D3D               	rlf	___fltol@f1+3,w
  5893  0772  00BE               	movwf	??___fltol
  5894  0773  083E               	movf	??___fltol,w
  5895  0774  00C4               	movwf	___fltol@exp1
  5896  0775  0844               	movf	___fltol@exp1,w
  5897  0776  1D03               	btfss	3,2
  5898  0777  2F79               	goto	u1611
  5899  0778  2F7A               	goto	u1610
  5900  0779                     u1611:
  5901  0779  2F83               	goto	l1918
  5902  077A                     u1610:
  5903  077A                     l1914:
  5904  077A  3000               	movlw	0
  5905  077B  00BD               	movwf	?___fltol+3
  5906  077C  3000               	movlw	0
  5907  077D  00BC               	movwf	?___fltol+2
  5908  077E  3000               	movlw	0
  5909  077F  00BB               	movwf	?___fltol+1
  5910  0780  3000               	movlw	0
  5911  0781  00BA               	movwf	?___fltol
  5912  0782  2FE2               	goto	l620
  5913  0783                     l1918:
  5914  0783  083A               	movf	___fltol@f1,w
  5915  0784  00BE               	movwf	??___fltol
  5916  0785  083B               	movf	___fltol@f1+1,w
  5917  0786  00BF               	movwf	??___fltol+1
  5918  0787  083C               	movf	___fltol@f1+2,w
  5919  0788  00C0               	movwf	??___fltol+2
  5920  0789  083D               	movf	___fltol@f1+3,w
  5921  078A  00C1               	movwf	??___fltol+3
  5922  078B  301F               	movlw	31
  5923  078C                     u1625:
  5924  078C  36C1               	lsrf	??___fltol+3,f
  5925  078D  0CC0               	rrf	??___fltol+2,f
  5926  078E  0CBF               	rrf	??___fltol+1,f
  5927  078F  0CBE               	rrf	??___fltol,f
  5928  0790                     u1620:
  5929  0790  0B89               	decfsz	9,f
  5930  0791  2F8C               	goto	u1625
  5931  0792  083E               	movf	??___fltol,w
  5932  0793  00C2               	movwf	??___fltol+4
  5933  0794  0842               	movf	??___fltol+4,w
  5934  0795  00C3               	movwf	___fltol@sign1
  5935  0796                     l1920:
  5936  0796  17BC               	bsf	___fltol@f1+2,7
  5937  0797                     l1922:
  5938  0797  30FF               	movlw	255
  5939  0798  05BA               	andwf	___fltol@f1,f
  5940  0799  30FF               	movlw	255
  5941  079A  05BB               	andwf	___fltol@f1+1,f
  5942  079B  30FF               	movlw	255
  5943  079C  05BC               	andwf	___fltol@f1+2,f
  5944  079D  3000               	movlw	0
  5945  079E  05BD               	andwf	___fltol@f1+3,f
  5946  079F                     l1924:
  5947  079F  3096               	movlw	150
  5948  07A0  02C4               	subwf	___fltol@exp1,f
  5949  07A1                     l1926:
  5950  07A1  1FC4               	btfss	___fltol@exp1,7
  5951  07A2  2FA4               	goto	u1631
  5952  07A3  2FA5               	goto	u1630
  5953  07A4                     u1631:
  5954  07A4  2FBD               	goto	l1936
  5955  07A5                     u1630:
  5956  07A5                     l1928:
  5957  07A5  0844               	movf	___fltol@exp1,w
  5958  07A6  3A80               	xorlw	128
  5959  07A7  3E97               	addlw	151
  5960  07A8  1803               	skipnc
  5961  07A9  2FAB               	goto	u1641
  5962  07AA  2FAC               	goto	u1640
  5963  07AB                     u1641:
  5964  07AB  2FAD               	goto	l1934
  5965  07AC                     u1640:
  5966  07AC  2F7A               	goto	l1914
  5967  07AD                     l1934:
  5968  07AD  3001               	movlw	1
  5969  07AE                     u1655:
  5970  07AE  36BD               	lsrf	___fltol@f1+3,f
  5971  07AF  0CBC               	rrf	___fltol@f1+2,f
  5972  07B0  0CBB               	rrf	___fltol@f1+1,f
  5973  07B1  0CBA               	rrf	___fltol@f1,f
  5974  07B2  0B89               	decfsz	9,f
  5975  07B3  2FAE               	goto	u1655
  5976  07B4  3001               	movlw	1
  5977  07B5  00BE               	movwf	??___fltol
  5978  07B6  083E               	movf	??___fltol,w
  5979  07B7  07C4               	addwf	___fltol@exp1,f
  5980  07B8  1D03               	btfss	3,2
  5981  07B9  2FBB               	goto	u1661
  5982  07BA  2FBC               	goto	u1660
  5983  07BB                     u1661:
  5984  07BB  2FAD               	goto	l1934
  5985  07BC                     u1660:
  5986  07BC  2FD2               	goto	l1944
  5987  07BD                     l1936:
  5988  07BD  3020               	movlw	32
  5989  07BE  0244               	subwf	___fltol@exp1,w
  5990  07BF  1C03               	skipc
  5991  07C0  2FC2               	goto	u1671
  5992  07C1  2FC3               	goto	u1670
  5993  07C2                     u1671:
  5994  07C2  2FCD               	goto	l627
  5995  07C3                     u1670:
  5996  07C3  2F7A               	goto	l1914
  5997  07C4                     l1942:
  5998  07C4  3001               	movlw	1
  5999  07C5                     u1685:
  6000  07C5  35BA               	lslf	___fltol@f1,f
  6001  07C6  0DBB               	rlf	___fltol@f1+1,f
  6002  07C7  0DBC               	rlf	___fltol@f1+2,f
  6003  07C8  0DBD               	rlf	___fltol@f1+3,f
  6004  07C9  0B89               	decfsz	9,f
  6005  07CA  2FC5               	goto	u1685
  6006  07CB  3001               	movlw	1
  6007  07CC  02C4               	subwf	___fltol@exp1,f
  6008  07CD                     l627:
  6009  07CD  0844               	movf	___fltol@exp1,w
  6010  07CE  1D03               	btfss	3,2
  6011  07CF  2FD1               	goto	u1691
  6012  07D0  2FD2               	goto	u1690
  6013  07D1                     u1691:
  6014  07D1  2FC4               	goto	l1942
  6015  07D2                     u1690:
  6016  07D2                     l1944:
  6017  07D2  0843               	movf	___fltol@sign1,w
  6018  07D3  1903               	btfsc	3,2
  6019  07D4  2FD6               	goto	u1701
  6020  07D5  2FD7               	goto	u1700
  6021  07D6                     u1701:
  6022  07D6  2FE2               	goto	l630
  6023  07D7                     u1700:
  6024  07D7                     l1946:
  6025  07D7  09BA               	comf	___fltol@f1,f
  6026  07D8  09BB               	comf	___fltol@f1+1,f
  6027  07D9  09BC               	comf	___fltol@f1+2,f
  6028  07DA  09BD               	comf	___fltol@f1+3,f
  6029  07DB  0ABA               	incf	___fltol@f1,f
  6030  07DC  1903               	skipnz
  6031  07DD  0ABB               	incf	___fltol@f1+1,f
  6032  07DE  1903               	skipnz
  6033  07DF  0ABC               	incf	___fltol@f1+2,f
  6034  07E0  1903               	skipnz
  6035  07E1  0ABD               	incf	___fltol@f1+3,f
  6036  07E2                     l630:
  6037  07E2                     l620:
  6038  07E2  0008               	return
  6039  07E3                     __end_of___fltol:
  6040                           
  6041                           	psect	text37
  6042  003B                     __ptext37:	
  6043 ;; *************** function ___flmul *****************
  6044 ;; Defined at:
  6045 ;;		line 8 in file "C:\Program Files (x86)\Microchip\xc8\pic\sources\c99\common\sprcmul.c"
  6046 ;; Parameters:    Size  Location     Type
  6047 ;;  b               4    0[BANK0 ] long 
  6048 ;;  a               4    4[BANK0 ] long 
  6049 ;; Auto vars:     Size  Location     Type
  6050 ;;  prod            4   20[BANK0 ] struct .
  6051 ;;  grs             4   14[BANK0 ] unsigned long 
  6052 ;;  temp            2   24[BANK0 ] struct .
  6053 ;;  bexp            1   19[BANK0 ] unsigned char 
  6054 ;;  aexp            1   18[BANK0 ] unsigned char 
  6055 ;;  sign            1   13[BANK0 ] unsigned char 
  6056 ;; Return value:  Size  Location     Type
  6057 ;;                  4    0[BANK0 ] unsigned char 
  6058 ;; Registers used:
  6059 ;;		wreg, status,2, status,0, pclath, cstack
  6060 ;; Tracked objects:
  6061 ;;		On entry : 0/0
  6062 ;;		On exit  : 0/0
  6063 ;;		Unchanged: 0/0
  6064 ;; Data sizes:     COMMON   BANK0   BANK1   BANK2   BANK3   BANK4   BANK5   BANK6
  6065 ;;      Params:         0       8       0       0       0       0       0       0
  6066 ;;      Locals:         0      13       0       0       0       0       0       0
  6067 ;;      Temps:          0       5       0       0       0       0       0       0
  6068 ;;      Totals:         0      26       0       0       0       0       0       0
  6069 ;;Total ram usage:       26 bytes
  6070 ;; Hardware stack levels used:    1
  6071 ;; Hardware stack levels required when called:    2
  6072 ;; This function calls:
  6073 ;;		__Umul8_16
  6074 ;; This function is called by:
  6075 ;;		_LinearTransiant
  6076 ;; This function uses a non-reentrant model
  6077 ;;
  6078                           
  6079                           
  6080                           ;psect for function ___flmul
  6081  003B                     ___flmul:
  6082  003B                     l2088:	
  6083                           ;incstack = 0
  6084                           ; Regs used in ___flmul: [wreg+status,2+status,0+pclath+cstack]
  6085                           
  6086  003B  0020               	movlb	0	; select bank0
  6087  003C  0823               	movf	___flmul@b+3,w
  6088  003D  3980               	andlw	128
  6089  003E  00A8               	movwf	??___flmul
  6090  003F  0828               	movf	??___flmul,w
  6091  0040  00AD               	movwf	___flmul@sign
  6092  0041                     l2090:
  6093  0041  3523               	lslf	___flmul@b+3,w
  6094  0042  00A8               	movwf	??___flmul
  6095  0043  0828               	movf	??___flmul,w
  6096  0044  00B3               	movwf	___flmul@bexp
  6097  0045                     l2092:
  6098  0045  1FA2               	btfss	___flmul@b+2,7
  6099  0046  2848               	goto	u2001
  6100  0047  2849               	goto	u2000
  6101  0048                     u2001:
  6102  0048  284A               	goto	l2096
  6103  0049                     u2000:
  6104  0049                     l2094:
  6105  0049  1433               	bsf	___flmul@bexp,0
  6106  004A                     l2096:
  6107  004A  0833               	movf	___flmul@bexp,w
  6108  004B  1903               	btfsc	3,2
  6109  004C  284E               	goto	u2011
  6110  004D  284F               	goto	u2010
  6111  004E                     u2011:
  6112  004E  285E               	goto	l2104
  6113  004F                     u2010:
  6114  004F                     l2098:
  6115  004F  0A33               	incf	___flmul@bexp,w
  6116  0050  1D03               	btfss	3,2
  6117  0051  2853               	goto	u2021
  6118  0052  2854               	goto	u2020
  6119  0053                     u2021:
  6120  0053  285C               	goto	l2102
  6121  0054                     u2020:
  6122  0054                     l2100:
  6123  0054  3000               	movlw	0
  6124  0055  00A3               	movwf	___flmul@b+3
  6125  0056  3000               	movlw	0
  6126  0057  00A2               	movwf	___flmul@b+2
  6127  0058  3000               	movlw	0
  6128  0059  00A1               	movwf	___flmul@b+1
  6129  005A  3000               	movlw	0
  6130  005B  00A0               	movwf	___flmul@b
  6131  005C                     l2102:
  6132  005C  17A2               	bsf	___flmul@b+2,7
  6133  005D  2866               	goto	l2106
  6134  005E                     l2104:
  6135  005E  3000               	movlw	0
  6136  005F  00A3               	movwf	___flmul@b+3
  6137  0060  3000               	movlw	0
  6138  0061  00A2               	movwf	___flmul@b+2
  6139  0062  3000               	movlw	0
  6140  0063  00A1               	movwf	___flmul@b+1
  6141  0064  3000               	movlw	0
  6142  0065  00A0               	movwf	___flmul@b
  6143  0066                     l2106:
  6144  0066  0827               	movf	___flmul@a+3,w
  6145  0067  3980               	andlw	128
  6146  0068  00A8               	movwf	??___flmul
  6147  0069  0828               	movf	??___flmul,w
  6148  006A  06AD               	xorwf	___flmul@sign,f
  6149  006B                     l2108:
  6150  006B  3527               	lslf	___flmul@a+3,w
  6151  006C  00A8               	movwf	??___flmul
  6152  006D  0828               	movf	??___flmul,w
  6153  006E  00B2               	movwf	___flmul@aexp
  6154  006F                     l2110:
  6155  006F  1FA6               	btfss	___flmul@a+2,7
  6156  0070  2872               	goto	u2031
  6157  0071  2873               	goto	u2030
  6158  0072                     u2031:
  6159  0072  2874               	goto	l2114
  6160  0073                     u2030:
  6161  0073                     l2112:
  6162  0073  1432               	bsf	___flmul@aexp,0
  6163  0074                     l2114:
  6164  0074  0832               	movf	___flmul@aexp,w
  6165  0075  1903               	btfsc	3,2
  6166  0076  2878               	goto	u2041
  6167  0077  2879               	goto	u2040
  6168  0078                     u2041:
  6169  0078  2888               	goto	l2122
  6170  0079                     u2040:
  6171  0079                     l2116:
  6172  0079  0A32               	incf	___flmul@aexp,w
  6173  007A  1D03               	btfss	3,2
  6174  007B  287D               	goto	u2051
  6175  007C  287E               	goto	u2050
  6176  007D                     u2051:
  6177  007D  2886               	goto	l2120
  6178  007E                     u2050:
  6179  007E                     l2118:
  6180  007E  3000               	movlw	0
  6181  007F  00A7               	movwf	___flmul@a+3
  6182  0080  3000               	movlw	0
  6183  0081  00A6               	movwf	___flmul@a+2
  6184  0082  3000               	movlw	0
  6185  0083  00A5               	movwf	___flmul@a+1
  6186  0084  3000               	movlw	0
  6187  0085  00A4               	movwf	___flmul@a
  6188  0086                     l2120:
  6189  0086  17A6               	bsf	___flmul@a+2,7
  6190  0087  2890               	goto	l2124
  6191  0088                     l2122:
  6192  0088  3000               	movlw	0
  6193  0089  00A7               	movwf	___flmul@a+3
  6194  008A  3000               	movlw	0
  6195  008B  00A6               	movwf	___flmul@a+2
  6196  008C  3000               	movlw	0
  6197  008D  00A5               	movwf	___flmul@a+1
  6198  008E  3000               	movlw	0
  6199  008F  00A4               	movwf	___flmul@a
  6200  0090                     l2124:
  6201  0090  0832               	movf	___flmul@aexp,w
  6202  0091  1903               	btfsc	3,2
  6203  0092  2894               	goto	u2061
  6204  0093  2895               	goto	u2060
  6205  0094                     u2061:
  6206  0094  289A               	goto	l2128
  6207  0095                     u2060:
  6208  0095                     l2126:
  6209  0095  0833               	movf	___flmul@bexp,w
  6210  0096  1D03               	btfss	3,2
  6211  0097  2899               	goto	u2071
  6212  0098  289A               	goto	u2070
  6213  0099                     u2071:
  6214  0099  28A3               	goto	l2132
  6215  009A                     u2070:
  6216  009A                     l2128:
  6217  009A  3000               	movlw	0
  6218  009B  00A3               	movwf	?___flmul+3
  6219  009C  3000               	movlw	0
  6220  009D  00A2               	movwf	?___flmul+2
  6221  009E  3000               	movlw	0
  6222  009F  00A1               	movwf	?___flmul+1
  6223  00A0  3000               	movlw	0
  6224  00A1  00A0               	movwf	?___flmul
  6225  00A2  2A91               	goto	l823
  6226  00A3                     l2132:
  6227  00A3  0820               	movf	___flmul@b,w
  6228  00A4  00A8               	movwf	??___flmul
  6229  00A5  0828               	movf	??___flmul,w
  6230  00A6  00F0               	movwf	__Umul8_16@multiplicand
  6231  00A7  0826               	movf	___flmul@a+2,w
  6232  00A8  318A  22BD  3180   	fcall	__Umul8_16
  6233  00AB  0871               	movf	?__Umul8_16+1,w
  6234  00AC  0020               	movlb	0	; select bank0
  6235  00AD  00B9               	movwf	___flmul@temp+1
  6236  00AE  0870               	movf	?__Umul8_16,w
  6237  00AF  00B8               	movwf	___flmul@temp
  6238  00B0                     l2134:
  6239  00B0  0838               	movf	___flmul@temp,w
  6240  00B1  00A8               	movwf	??___flmul
  6241  00B2  01A9               	clrf	??___flmul+1
  6242  00B3  01AA               	clrf	??___flmul+2
  6243  00B4  01AB               	clrf	??___flmul+3
  6244  00B5  082B               	movf	??___flmul+3,w
  6245  00B6  00B1               	movwf	___flmul@grs+3
  6246  00B7  082A               	movf	??___flmul+2,w
  6247  00B8  00B0               	movwf	___flmul@grs+2
  6248  00B9  0829               	movf	??___flmul+1,w
  6249  00BA  00AF               	movwf	___flmul@grs+1
  6250  00BB  0828               	movf	??___flmul,w
  6251  00BC  00AE               	movwf	___flmul@grs
  6252  00BD                     l2136:
  6253  00BD  0839               	movf	___flmul@temp+1,w
  6254  00BE  00A8               	movwf	??___flmul
  6255  00BF  01A9               	clrf	??___flmul+1
  6256  00C0  01AA               	clrf	??___flmul+2
  6257  00C1  01AB               	clrf	??___flmul+3
  6258  00C2  082B               	movf	??___flmul+3,w
  6259  00C3  00B7               	movwf	___flmul@prod+3
  6260  00C4  082A               	movf	??___flmul+2,w
  6261  00C5  00B6               	movwf	___flmul@prod+2
  6262  00C6  0829               	movf	??___flmul+1,w
  6263  00C7  00B5               	movwf	___flmul@prod+1
  6264  00C8  0828               	movf	??___flmul,w
  6265  00C9  00B4               	movwf	___flmul@prod
  6266  00CA  0821               	movf	___flmul@b+1,w
  6267  00CB  00A8               	movwf	??___flmul
  6268  00CC  0828               	movf	??___flmul,w
  6269  00CD  00F0               	movwf	__Umul8_16@multiplicand
  6270  00CE  0825               	movf	___flmul@a+1,w
  6271  00CF  318A  22BD  3180   	fcall	__Umul8_16
  6272  00D2  0871               	movf	?__Umul8_16+1,w
  6273  00D3  0020               	movlb	0	; select bank0
  6274  00D4  00B9               	movwf	___flmul@temp+1
  6275  00D5  0870               	movf	?__Umul8_16,w
  6276  00D6  00B8               	movwf	___flmul@temp
  6277  00D7                     l2138:
  6278  00D7  0838               	movf	___flmul@temp,w
  6279  00D8  00A8               	movwf	??___flmul
  6280  00D9  01A9               	clrf	??___flmul+1
  6281  00DA  01AA               	clrf	??___flmul+2
  6282  00DB  01AB               	clrf	??___flmul+3
  6283  00DC  0828               	movf	??___flmul,w
  6284  00DD  07AE               	addwf	___flmul@grs,f
  6285  00DE  0829               	movf	??___flmul+1,w
  6286  00DF  3DAF               	addwfc	___flmul@grs+1,f
  6287  00E0  082A               	movf	??___flmul+2,w
  6288  00E1  3DB0               	addwfc	___flmul@grs+2,f
  6289  00E2  082B               	movf	??___flmul+3,w
  6290  00E3  3DB1               	addwfc	___flmul@grs+3,f
  6291  00E4                     l2140:
  6292  00E4  0839               	movf	___flmul@temp+1,w
  6293  00E5  00A8               	movwf	??___flmul
  6294  00E6  01A9               	clrf	??___flmul+1
  6295  00E7  01AA               	clrf	??___flmul+2
  6296  00E8  01AB               	clrf	??___flmul+3
  6297  00E9  0828               	movf	??___flmul,w
  6298  00EA  07B4               	addwf	___flmul@prod,f
  6299  00EB  0829               	movf	??___flmul+1,w
  6300  00EC  3DB5               	addwfc	___flmul@prod+1,f
  6301  00ED  082A               	movf	??___flmul+2,w
  6302  00EE  3DB6               	addwfc	___flmul@prod+2,f
  6303  00EF  082B               	movf	??___flmul+3,w
  6304  00F0  3DB7               	addwfc	___flmul@prod+3,f
  6305  00F1  0822               	movf	___flmul@b+2,w
  6306  00F2  00A8               	movwf	??___flmul
  6307  00F3  0828               	movf	??___flmul,w
  6308  00F4  00F0               	movwf	__Umul8_16@multiplicand
  6309  00F5  0824               	movf	___flmul@a,w
  6310  00F6  318A  22BD  3180   	fcall	__Umul8_16
  6311  00F9  0871               	movf	?__Umul8_16+1,w
  6312  00FA  0020               	movlb	0	; select bank0
  6313  00FB  00B9               	movwf	___flmul@temp+1
  6314  00FC  0870               	movf	?__Umul8_16,w
  6315  00FD  00B8               	movwf	___flmul@temp
  6316  00FE                     l2142:
  6317  00FE  0838               	movf	___flmul@temp,w
  6318  00FF  00A8               	movwf	??___flmul
  6319  0100  01A9               	clrf	??___flmul+1
  6320  0101  01AA               	clrf	??___flmul+2
  6321  0102  01AB               	clrf	??___flmul+3
  6322  0103  0828               	movf	??___flmul,w
  6323  0104  07AE               	addwf	___flmul@grs,f
  6324  0105  0829               	movf	??___flmul+1,w
  6325  0106  3DAF               	addwfc	___flmul@grs+1,f
  6326  0107  082A               	movf	??___flmul+2,w
  6327  0108  3DB0               	addwfc	___flmul@grs+2,f
  6328  0109  082B               	movf	??___flmul+3,w
  6329  010A  3DB1               	addwfc	___flmul@grs+3,f
  6330  010B                     l2144:
  6331  010B  0839               	movf	___flmul@temp+1,w
  6332  010C  00A8               	movwf	??___flmul
  6333  010D  01A9               	clrf	??___flmul+1
  6334  010E  01AA               	clrf	??___flmul+2
  6335  010F  01AB               	clrf	??___flmul+3
  6336  0110  0828               	movf	??___flmul,w
  6337  0111  07B4               	addwf	___flmul@prod,f
  6338  0112  0829               	movf	??___flmul+1,w
  6339  0113  3DB5               	addwfc	___flmul@prod+1,f
  6340  0114  082A               	movf	??___flmul+2,w
  6341  0115  3DB6               	addwfc	___flmul@prod+2,f
  6342  0116  082B               	movf	??___flmul+3,w
  6343  0117  3DB7               	addwfc	___flmul@prod+3,f
  6344  0118                     l2146:
  6345  0118  3008               	movlw	8
  6346  0119                     u2085:
  6347  0119  35AE               	lslf	___flmul@grs,f
  6348  011A  0DAF               	rlf	___flmul@grs+1,f
  6349  011B  0DB0               	rlf	___flmul@grs+2,f
  6350  011C  0DB1               	rlf	___flmul@grs+3,f
  6351  011D  0B89               	decfsz	9,f
  6352  011E  2919               	goto	u2085
  6353  011F                     l2148:
  6354  011F  0821               	movf	___flmul@b+1,w
  6355  0120  00A8               	movwf	??___flmul
  6356  0121  0828               	movf	??___flmul,w
  6357  0122  00F0               	movwf	__Umul8_16@multiplicand
  6358  0123  0824               	movf	___flmul@a,w
  6359  0124  318A  22BD  3180   	fcall	__Umul8_16
  6360  0127  0871               	movf	?__Umul8_16+1,w
  6361  0128  0020               	movlb	0	; select bank0
  6362  0129  00B9               	movwf	___flmul@temp+1
  6363  012A  0870               	movf	?__Umul8_16,w
  6364  012B  00B8               	movwf	___flmul@temp
  6365  012C                     l2150:
  6366  012C  0838               	movf	___flmul@temp,w
  6367  012D  07AE               	addwf	___flmul@grs,f
  6368  012E  0839               	movf	___flmul@temp+1,w
  6369  012F  3DAF               	addwfc	___flmul@grs+1,f
  6370  0130  3000               	movlw	0
  6371  0131  3DB0               	addwfc	___flmul@grs+2,f
  6372  0132  3DB1               	addwfc	___flmul@grs+3,f
  6373  0133                     l2152:
  6374  0133  0820               	movf	___flmul@b,w
  6375  0134  00A8               	movwf	??___flmul
  6376  0135  0828               	movf	??___flmul,w
  6377  0136  00F0               	movwf	__Umul8_16@multiplicand
  6378  0137  0825               	movf	___flmul@a+1,w
  6379  0138  318A  22BD  3180   	fcall	__Umul8_16
  6380  013B  0871               	movf	?__Umul8_16+1,w
  6381  013C  0020               	movlb	0	; select bank0
  6382  013D  00B9               	movwf	___flmul@temp+1
  6383  013E  0870               	movf	?__Umul8_16,w
  6384  013F  00B8               	movwf	___flmul@temp
  6385  0140                     l2154:
  6386  0140  0838               	movf	___flmul@temp,w
  6387  0141  07AE               	addwf	___flmul@grs,f
  6388  0142  0839               	movf	___flmul@temp+1,w
  6389  0143  3DAF               	addwfc	___flmul@grs+1,f
  6390  0144  3000               	movlw	0
  6391  0145  3DB0               	addwfc	___flmul@grs+2,f
  6392  0146  3DB1               	addwfc	___flmul@grs+3,f
  6393  0147                     l2156:
  6394  0147  3008               	movlw	8
  6395  0148                     u2095:
  6396  0148  35AE               	lslf	___flmul@grs,f
  6397  0149  0DAF               	rlf	___flmul@grs+1,f
  6398  014A  0DB0               	rlf	___flmul@grs+2,f
  6399  014B  0DB1               	rlf	___flmul@grs+3,f
  6400  014C  0B89               	decfsz	9,f
  6401  014D  2948               	goto	u2095
  6402  014E  0820               	movf	___flmul@b,w
  6403  014F  00A8               	movwf	??___flmul
  6404  0150  0828               	movf	??___flmul,w
  6405  0151  00F0               	movwf	__Umul8_16@multiplicand
  6406  0152  0824               	movf	___flmul@a,w
  6407  0153  318A  22BD  3180   	fcall	__Umul8_16
  6408  0156  0871               	movf	?__Umul8_16+1,w
  6409  0157  0020               	movlb	0	; select bank0
  6410  0158  00B9               	movwf	___flmul@temp+1
  6411  0159  0870               	movf	?__Umul8_16,w
  6412  015A  00B8               	movwf	___flmul@temp
  6413  015B                     l2158:
  6414  015B  0838               	movf	___flmul@temp,w
  6415  015C  07AE               	addwf	___flmul@grs,f
  6416  015D  0839               	movf	___flmul@temp+1,w
  6417  015E  3DAF               	addwfc	___flmul@grs+1,f
  6418  015F  3000               	movlw	0
  6419  0160  3DB0               	addwfc	___flmul@grs+2,f
  6420  0161  3DB1               	addwfc	___flmul@grs+3,f
  6421  0162                     l2160:
  6422  0162  0821               	movf	___flmul@b+1,w
  6423  0163  00A8               	movwf	??___flmul
  6424  0164  0828               	movf	??___flmul,w
  6425  0165  00F0               	movwf	__Umul8_16@multiplicand
  6426  0166  0826               	movf	___flmul@a+2,w
  6427  0167  318A  22BD  3180   	fcall	__Umul8_16
  6428  016A  0871               	movf	?__Umul8_16+1,w
  6429  016B  0020               	movlb	0	; select bank0
  6430  016C  00B9               	movwf	___flmul@temp+1
  6431  016D  0870               	movf	?__Umul8_16,w
  6432  016E  00B8               	movwf	___flmul@temp
  6433  016F  0838               	movf	___flmul@temp,w
  6434  0170  07B4               	addwf	___flmul@prod,f
  6435  0171  0839               	movf	___flmul@temp+1,w
  6436  0172  3DB5               	addwfc	___flmul@prod+1,f
  6437  0173  3000               	movlw	0
  6438  0174  3DB6               	addwfc	___flmul@prod+2,f
  6439  0175  3DB7               	addwfc	___flmul@prod+3,f
  6440  0176                     l2162:
  6441  0176  0822               	movf	___flmul@b+2,w
  6442  0177  00A8               	movwf	??___flmul
  6443  0178  0828               	movf	??___flmul,w
  6444  0179  00F0               	movwf	__Umul8_16@multiplicand
  6445  017A  0825               	movf	___flmul@a+1,w
  6446  017B  318A  22BD  3180   	fcall	__Umul8_16
  6447  017E  0871               	movf	?__Umul8_16+1,w
  6448  017F  0020               	movlb	0	; select bank0
  6449  0180  00B9               	movwf	___flmul@temp+1
  6450  0181  0870               	movf	?__Umul8_16,w
  6451  0182  00B8               	movwf	___flmul@temp
  6452  0183                     l2164:
  6453  0183  0838               	movf	___flmul@temp,w
  6454  0184  07B4               	addwf	___flmul@prod,f
  6455  0185  0839               	movf	___flmul@temp+1,w
  6456  0186  3DB5               	addwfc	___flmul@prod+1,f
  6457  0187  3000               	movlw	0
  6458  0188  3DB6               	addwfc	___flmul@prod+2,f
  6459  0189  3DB7               	addwfc	___flmul@prod+3,f
  6460  018A  0822               	movf	___flmul@b+2,w
  6461  018B  00A8               	movwf	??___flmul
  6462  018C  0828               	movf	??___flmul,w
  6463  018D  00F0               	movwf	__Umul8_16@multiplicand
  6464  018E  0826               	movf	___flmul@a+2,w
  6465  018F  318A  22BD  3180   	fcall	__Umul8_16
  6466  0192  0871               	movf	?__Umul8_16+1,w
  6467  0193  0020               	movlb	0	; select bank0
  6468  0194  00B9               	movwf	___flmul@temp+1
  6469  0195  0870               	movf	?__Umul8_16,w
  6470  0196  00B8               	movwf	___flmul@temp
  6471  0197                     l2166:
  6472  0197  0838               	movf	___flmul@temp,w
  6473  0198  00A8               	movwf	??___flmul
  6474  0199  0839               	movf	___flmul@temp+1,w
  6475  019A  00A9               	movwf	??___flmul+1
  6476  019B  01AA               	clrf	??___flmul+2
  6477  019C  01AB               	clrf	??___flmul+3
  6478  019D  3008               	movlw	8
  6479  019E                     u2105:
  6480  019E  35A8               	lslf	??___flmul,f
  6481  019F  0DA9               	rlf	??___flmul+1,f
  6482  01A0  0DAA               	rlf	??___flmul+2,f
  6483  01A1  0DAB               	rlf	??___flmul+3,f
  6484  01A2                     u2100:
  6485  01A2  0B89               	decfsz	9,f
  6486  01A3  299E               	goto	u2105
  6487  01A4  0828               	movf	??___flmul,w
  6488  01A5  07B4               	addwf	___flmul@prod,f
  6489  01A6  0829               	movf	??___flmul+1,w
  6490  01A7  3DB5               	addwfc	___flmul@prod+1,f
  6491  01A8  082A               	movf	??___flmul+2,w
  6492  01A9  3DB6               	addwfc	___flmul@prod+2,f
  6493  01AA  082B               	movf	??___flmul+3,w
  6494  01AB  3DB7               	addwfc	___flmul@prod+3,f
  6495  01AC                     l2168:
  6496  01AC  082E               	movf	___flmul@grs,w
  6497  01AD  00A8               	movwf	??___flmul
  6498  01AE  082F               	movf	___flmul@grs+1,w
  6499  01AF  00A9               	movwf	??___flmul+1
  6500  01B0  0830               	movf	___flmul@grs+2,w
  6501  01B1  00AA               	movwf	??___flmul+2
  6502  01B2  0831               	movf	___flmul@grs+3,w
  6503  01B3  00AB               	movwf	??___flmul+3
  6504  01B4  3018               	movlw	24
  6505  01B5                     u2115:
  6506  01B5  36AB               	lsrf	??___flmul+3,f
  6507  01B6  0CAA               	rrf	??___flmul+2,f
  6508  01B7  0CA9               	rrf	??___flmul+1,f
  6509  01B8  0CA8               	rrf	??___flmul,f
  6510  01B9                     u2110:
  6511  01B9  0B89               	decfsz	9,f
  6512  01BA  29B5               	goto	u2115
  6513  01BB  0828               	movf	??___flmul,w
  6514  01BC  07B4               	addwf	___flmul@prod,f
  6515  01BD  0829               	movf	??___flmul+1,w
  6516  01BE  3DB5               	addwfc	___flmul@prod+1,f
  6517  01BF  082A               	movf	??___flmul+2,w
  6518  01C0  3DB6               	addwfc	___flmul@prod+2,f
  6519  01C1  082B               	movf	??___flmul+3,w
  6520  01C2  3DB7               	addwfc	___flmul@prod+3,f
  6521  01C3                     l2170:
  6522  01C3  3008               	movlw	8
  6523  01C4                     u2125:
  6524  01C4  35AE               	lslf	___flmul@grs,f
  6525  01C5  0DAF               	rlf	___flmul@grs+1,f
  6526  01C6  0DB0               	rlf	___flmul@grs+2,f
  6527  01C7  0DB1               	rlf	___flmul@grs+3,f
  6528  01C8  0B89               	decfsz	9,f
  6529  01C9  29C4               	goto	u2125
  6530  01CA                     l2172:
  6531  01CA  0833               	movf	___flmul@bexp,w
  6532  01CB  0732               	addwf	___flmul@aexp,w
  6533  01CC  00A8               	movwf	??___flmul
  6534  01CD  01A9               	clrf	??___flmul+1
  6535  01CE  0DA9               	rlf	??___flmul+1,f
  6536  01CF  0828               	movf	??___flmul,w
  6537  01D0  3E82               	addlw	130
  6538  01D1  00B8               	movwf	___flmul@temp
  6539  01D2  30FF               	movlw	255
  6540  01D3  3D29               	addwfc	??___flmul+1,w
  6541  01D4  00B9               	movwf	___flmul@temp+1
  6542  01D5  29ED               	goto	l2184
  6543  01D6                     l2174:
  6544  01D6  3001               	movlw	1
  6545  01D7                     u2135:
  6546  01D7  35B4               	lslf	___flmul@prod,f
  6547  01D8  0DB5               	rlf	___flmul@prod+1,f
  6548  01D9  0DB6               	rlf	___flmul@prod+2,f
  6549  01DA  0DB7               	rlf	___flmul@prod+3,f
  6550  01DB  0B89               	decfsz	9,f
  6551  01DC  29D7               	goto	u2135
  6552  01DD                     l2176:
  6553  01DD  1FB1               	btfss	___flmul@grs+3,7
  6554  01DE  29E0               	goto	u2141
  6555  01DF  29E1               	goto	u2140
  6556  01E0                     u2141:
  6557  01E0  29E2               	goto	l2180
  6558  01E1                     u2140:
  6559  01E1                     l2178:
  6560  01E1  1434               	bsf	___flmul@prod,0
  6561  01E2                     l2180:
  6562  01E2  3001               	movlw	1
  6563  01E3                     u2155:
  6564  01E3  35AE               	lslf	___flmul@grs,f
  6565  01E4  0DAF               	rlf	___flmul@grs+1,f
  6566  01E5  0DB0               	rlf	___flmul@grs+2,f
  6567  01E6  0DB1               	rlf	___flmul@grs+3,f
  6568  01E7  0B89               	decfsz	9,f
  6569  01E8  29E3               	goto	u2155
  6570  01E9                     l2182:
  6571  01E9  30FF               	movlw	255
  6572  01EA  07B8               	addwf	___flmul@temp,f
  6573  01EB  30FF               	movlw	255
  6574  01EC  3DB9               	addwfc	___flmul@temp+1,f
  6575  01ED                     l2184:
  6576  01ED  1FB6               	btfss	___flmul@prod+2,7
  6577  01EE  29F0               	goto	u2161
  6578  01EF  29F1               	goto	u2160
  6579  01F0                     u2161:
  6580  01F0  29D6               	goto	l2174
  6581  01F1                     u2160:
  6582  01F1                     l2186:
  6583  01F1  01B2               	clrf	___flmul@aexp
  6584  01F2                     l2188:
  6585  01F2  1FB1               	btfss	___flmul@grs+3,7
  6586  01F3  29F5               	goto	u2171
  6587  01F4  29F6               	goto	u2170
  6588  01F5                     u2171:
  6589  01F5  2A12               	goto	l2196
  6590  01F6                     u2170:
  6591  01F6                     l2190:
  6592  01F6  30FF               	movlw	255
  6593  01F7  052E               	andwf	___flmul@grs,w
  6594  01F8  00A8               	movwf	??___flmul
  6595  01F9  30FF               	movlw	255
  6596  01FA  052F               	andwf	___flmul@grs+1,w
  6597  01FB  00A9               	movwf	??___flmul+1
  6598  01FC  30FF               	movlw	255
  6599  01FD  0530               	andwf	___flmul@grs+2,w
  6600  01FE  00AA               	movwf	??___flmul+2
  6601  01FF  307F               	movlw	127
  6602  0200  0531               	andwf	___flmul@grs+3,w
  6603  0201  00AB               	movwf	??___flmul+3
  6604  0202  082B               	movf	??___flmul+3,w
  6605  0203  042A               	iorwf	??___flmul+2,w
  6606  0204  0429               	iorwf	??___flmul+1,w
  6607  0205  0428               	iorwf	??___flmul,w
  6608  0206  1903               	skipnz
  6609  0207  2A09               	goto	u2181
  6610  0208  2A0A               	goto	u2180
  6611  0209                     u2181:
  6612  0209  2A0D               	goto	l829
  6613  020A                     u2180:
  6614  020A                     l2192:
  6615  020A  01B2               	clrf	___flmul@aexp
  6616  020B  0AB2               	incf	___flmul@aexp,f
  6617  020C  2A12               	goto	l2196
  6618  020D                     l829:
  6619  020D  1C34               	btfss	___flmul@prod,0
  6620  020E  2A10               	goto	u2191
  6621  020F  2A11               	goto	u2190
  6622  0210                     u2191:
  6623  0210  2A12               	goto	l2196
  6624  0211                     u2190:
  6625  0211  2A0A               	goto	l2192
  6626  0212                     l2196:
  6627  0212  0832               	movf	___flmul@aexp,w
  6628  0213  1903               	btfsc	3,2
  6629  0214  2A16               	goto	u2201
  6630  0215  2A17               	goto	u2200
  6631  0216                     u2201:
  6632  0216  2A3F               	goto	l2206
  6633  0217                     u2200:
  6634  0217                     l2198:
  6635  0217  3001               	movlw	1
  6636  0218  07B4               	addwf	___flmul@prod,f
  6637  0219  3000               	movlw	0
  6638  021A  3DB5               	addwfc	___flmul@prod+1,f
  6639  021B  3000               	movlw	0
  6640  021C  3DB6               	addwfc	___flmul@prod+2,f
  6641  021D  3000               	movlw	0
  6642  021E  3DB7               	addwfc	___flmul@prod+3,f
  6643  021F                     l2200:
  6644  021F  1C37               	btfss	___flmul@prod+3,0
  6645  0220  2A22               	goto	u2211
  6646  0221  2A23               	goto	u2210
  6647  0222                     u2211:
  6648  0222  2A3F               	goto	l2206
  6649  0223                     u2210:
  6650  0223                     l2202:
  6651  0223  0834               	movf	___flmul@prod,w
  6652  0224  00A8               	movwf	??___flmul
  6653  0225  0835               	movf	___flmul@prod+1,w
  6654  0226  00A9               	movwf	??___flmul+1
  6655  0227  0836               	movf	___flmul@prod+2,w
  6656  0228  00AA               	movwf	??___flmul+2
  6657  0229  0837               	movf	___flmul@prod+3,w
  6658  022A  00AB               	movwf	??___flmul+3
  6659  022B  3001               	movlw	1
  6660  022C  00AC               	movwf	??___flmul+4
  6661  022D                     u2225:
  6662  022D  37AB               	asrf	??___flmul+3,f
  6663  022E  0CAA               	rrf	??___flmul+2,f
  6664  022F  0CA9               	rrf	??___flmul+1,f
  6665  0230  0CA8               	rrf	??___flmul,f
  6666  0231                     u2220:
  6667  0231  0BAC               	decfsz	??___flmul+4,f
  6668  0232  2A2D               	goto	u2225
  6669  0233  082B               	movf	??___flmul+3,w
  6670  0234  00B7               	movwf	___flmul@prod+3
  6671  0235  082A               	movf	??___flmul+2,w
  6672  0236  00B6               	movwf	___flmul@prod+2
  6673  0237  0829               	movf	??___flmul+1,w
  6674  0238  00B5               	movwf	___flmul@prod+1
  6675  0239  0828               	movf	??___flmul,w
  6676  023A  00B4               	movwf	___flmul@prod
  6677  023B                     l2204:
  6678  023B  3001               	movlw	1
  6679  023C  07B8               	addwf	___flmul@temp,f
  6680  023D  3000               	movlw	0
  6681  023E  3DB9               	addwfc	___flmul@temp+1,f
  6682  023F                     l2206:
  6683  023F  0839               	movf	___flmul@temp+1,w
  6684  0240  3A80               	xorlw	128
  6685  0241  00A8               	movwf	??___flmul
  6686  0242  3080               	movlw	128
  6687  0243  0228               	subwf	??___flmul,w
  6688  0244  1D03               	skipz
  6689  0245  2A48               	goto	u2235
  6690  0246  30FF               	movlw	255
  6691  0247  0238               	subwf	___flmul@temp,w
  6692  0248                     u2235:
  6693  0248  1C03               	skipc
  6694  0249  2A4B               	goto	u2231
  6695  024A  2A4C               	goto	u2230
  6696  024B                     u2231:
  6697  024B  2A56               	goto	l2210
  6698  024C                     u2230:
  6699  024C                     l2208:
  6700  024C  307F               	movlw	127
  6701  024D  0020               	movlb	0	; select bank0
  6702  024E  00B7               	movwf	___flmul@prod+3
  6703  024F  3080               	movlw	128
  6704  0250  00B6               	movwf	___flmul@prod+2
  6705  0251  3000               	movlw	0
  6706  0252  00B5               	movwf	___flmul@prod+1
  6707  0253  3000               	movlw	0
  6708  0254  00B4               	movwf	___flmul@prod
  6709  0255  2A85               	goto	l835
  6710  0256                     l2210:
  6711  0256  0020               	movlb	0	; select bank0
  6712  0257  0839               	movf	___flmul@temp+1,w
  6713  0258  3A80               	xorlw	128
  6714  0259  00A8               	movwf	??___flmul
  6715  025A  3080               	movlw	128
  6716  025B  0228               	subwf	??___flmul,w
  6717  025C  1D03               	skipz
  6718  025D  2A60               	goto	u2245
  6719  025E  3001               	movlw	1
  6720  025F  0238               	subwf	___flmul@temp,w
  6721  0260                     u2245:
  6722  0260  1803               	skipnc
  6723  0261  2A63               	goto	u2241
  6724  0262  2A64               	goto	u2240
  6725  0263                     u2241:
  6726  0263  2A6F               	goto	l2216
  6727  0264                     u2240:
  6728  0264                     l2212:
  6729  0264  3000               	movlw	0
  6730  0265  0020               	movlb	0	; select bank0
  6731  0266  00B7               	movwf	___flmul@prod+3
  6732  0267  3000               	movlw	0
  6733  0268  00B6               	movwf	___flmul@prod+2
  6734  0269  3000               	movlw	0
  6735  026A  00B5               	movwf	___flmul@prod+1
  6736  026B  3000               	movlw	0
  6737  026C  00B4               	movwf	___flmul@prod
  6738  026D                     l2214:
  6739  026D  01AD               	clrf	___flmul@sign
  6740  026E  2A85               	goto	l835
  6741  026F                     l2216:
  6742  026F  0020               	movlb	0	; select bank0
  6743  0270  0838               	movf	___flmul@temp,w
  6744  0271  00A8               	movwf	??___flmul
  6745  0272  0828               	movf	??___flmul,w
  6746  0273  00B3               	movwf	___flmul@bexp
  6747  0274  30FF               	movlw	255
  6748  0275  05B4               	andwf	___flmul@prod,f
  6749  0276  30FF               	movlw	255
  6750  0277  05B5               	andwf	___flmul@prod+1,f
  6751  0278  307F               	movlw	127
  6752  0279  05B6               	andwf	___flmul@prod+2,f
  6753  027A  3000               	movlw	0
  6754  027B  05B7               	andwf	___flmul@prod+3,f
  6755  027C                     l2218:
  6756  027C  1C33               	btfss	___flmul@bexp,0
  6757  027D  2A7F               	goto	u2251
  6758  027E  2A80               	goto	u2250
  6759  027F                     u2251:
  6760  027F  2A81               	goto	l2222
  6761  0280                     u2250:
  6762  0280                     l2220:
  6763  0280  17B6               	bsf	___flmul@prod+2,7
  6764  0281                     l2222:
  6765  0281  3633               	lsrf	___flmul@bexp,w
  6766  0282  00A8               	movwf	??___flmul
  6767  0283  0828               	movf	??___flmul,w
  6768  0284  00B7               	movwf	___flmul@prod+3
  6769  0285                     l835:
  6770  0285  082D               	movf	___flmul@sign,w
  6771  0286  00A8               	movwf	??___flmul
  6772  0287  0828               	movf	??___flmul,w
  6773  0288  04B7               	iorwf	___flmul@prod+3,f
  6774  0289                     l2224:
  6775  0289  0837               	movf	___flmul@prod+3,w
  6776  028A  00A3               	movwf	?___flmul+3
  6777  028B  0836               	movf	___flmul@prod+2,w
  6778  028C  00A2               	movwf	?___flmul+2
  6779  028D  0835               	movf	___flmul@prod+1,w
  6780  028E  00A1               	movwf	?___flmul+1
  6781  028F  0834               	movf	___flmul@prod,w
  6782  0290  00A0               	movwf	?___flmul
  6783  0291                     l823:
  6784  0291  0008               	return
  6785  0292                     __end_of___flmul:
  6786                           
  6787                           	psect	text38
  6788  0ABD                     __ptext38:	
  6789 ;; *************** function __Umul8_16 *****************
  6790 ;; Defined at:
  6791 ;;		line 4 in file "C:\Program Files (x86)\Microchip\xc8\pic\sources\c99\common\Umul8_16.c"
  6792 ;; Parameters:    Size  Location     Type
  6793 ;;  multiplier      1    wreg     unsigned char 
  6794 ;;  multiplicand    1    0[COMMON] unsigned char 
  6795 ;; Auto vars:     Size  Location     Type
  6796 ;;  multiplier      1    8[COMMON] unsigned char 
  6797 ;;  word_mpld       2    6[COMMON] unsigned int 
  6798 ;;  product         2    4[COMMON] unsigned int 
  6799 ;; Return value:  Size  Location     Type
  6800 ;;                  2    0[COMMON] unsigned int 
  6801 ;; Registers used:
  6802 ;;		wreg, status,2, status,0
  6803 ;; Tracked objects:
  6804 ;;		On entry : 0/0
  6805 ;;		On exit  : 0/0
  6806 ;;		Unchanged: 0/0
  6807 ;; Data sizes:     COMMON   BANK0   BANK1   BANK2   BANK3   BANK4   BANK5   BANK6
  6808 ;;      Params:         2       0       0       0       0       0       0       0
  6809 ;;      Locals:         5       0       0       0       0       0       0       0
  6810 ;;      Temps:          2       0       0       0       0       0       0       0
  6811 ;;      Totals:         9       0       0       0       0       0       0       0
  6812 ;;Total ram usage:        9 bytes
  6813 ;; Hardware stack levels used:    1
  6814 ;; Hardware stack levels required when called:    1
  6815 ;; This function calls:
  6816 ;;		Nothing
  6817 ;; This function is called by:
  6818 ;;		___flmul
  6819 ;; This function uses a non-reentrant model
  6820 ;;
  6821                           
  6822                           
  6823                           ;psect for function __Umul8_16
  6824  0ABD                     __Umul8_16:
  6825                           
  6826                           ;incstack = 0
  6827                           ; Regs used in __Umul8_16: [wreg+status,2+status,0]
  6828                           ;__Umul8_16@multiplier stored from wreg
  6829  0ABD  00F8               	movwf	__Umul8_16@multiplier
  6830  0ABE                     l1850:
  6831  0ABE  01F4               	clrf	__Umul8_16@product
  6832  0ABF  01F5               	clrf	__Umul8_16@product+1
  6833  0AC0                     l1852:
  6834  0AC0  0870               	movf	__Umul8_16@multiplicand,w
  6835  0AC1  00F2               	movwf	??__Umul8_16
  6836  0AC2  01F3               	clrf	??__Umul8_16+1
  6837  0AC3  0872               	movf	??__Umul8_16,w
  6838  0AC4  00F6               	movwf	__Umul8_16@word_mpld
  6839  0AC5  0873               	movf	??__Umul8_16+1,w
  6840  0AC6  00F7               	movwf	__Umul8_16@word_mpld+1
  6841  0AC7                     l1854:
  6842  0AC7  1C78               	btfss	__Umul8_16@multiplier,0
  6843  0AC8  2ACA               	goto	u1491
  6844  0AC9  2ACB               	goto	u1490
  6845  0ACA                     u1491:
  6846  0ACA  2ACF               	goto	l842
  6847  0ACB                     u1490:
  6848  0ACB                     l1856:
  6849  0ACB  0876               	movf	__Umul8_16@word_mpld,w
  6850  0ACC  07F4               	addwf	__Umul8_16@product,f
  6851  0ACD  0877               	movf	__Umul8_16@word_mpld+1,w
  6852  0ACE  3DF5               	addwfc	__Umul8_16@product+1,f
  6853  0ACF                     l842:
  6854  0ACF  3001               	movlw	1
  6855  0AD0                     u1505:
  6856  0AD0  35F6               	lslf	__Umul8_16@word_mpld,f
  6857  0AD1  0DF7               	rlf	__Umul8_16@word_mpld+1,f
  6858  0AD2  0B89               	decfsz	9,f
  6859  0AD3  2AD0               	goto	u1505
  6860  0AD4  1003               	clrc
  6861  0AD5  0CF8               	rrf	__Umul8_16@multiplier,f
  6862  0AD6                     l1858:
  6863  0AD6  0878               	movf	__Umul8_16@multiplier,w
  6864  0AD7  1D03               	btfss	3,2
  6865  0AD8  2ADA               	goto	u1511
  6866  0AD9  2ADB               	goto	u1510
  6867  0ADA                     u1511:
  6868  0ADA  2AC7               	goto	l1854
  6869  0ADB                     u1510:
  6870  0ADB                     l1860:
  6871  0ADB  0875               	movf	__Umul8_16@product+1,w
  6872  0ADC  00F1               	movwf	?__Umul8_16+1
  6873  0ADD  0874               	movf	__Umul8_16@product,w
  6874  0ADE  00F0               	movwf	?__Umul8_16
  6875  0ADF                     l844:
  6876  0ADF  0008               	return
  6877  0AE0                     __end_of__Umul8_16:
  6878                           
  6879                           	psect	text39
  6880  0492                     __ptext39:	
  6881 ;; *************** function ___fldiv *****************
  6882 ;; Defined at:
  6883 ;;		line 8 in file "C:\Program Files (x86)\Microchip\xc8\pic\sources\c99\common\sprcdiv.c"
  6884 ;; Parameters:    Size  Location     Type
  6885 ;;  a               4    0[BANK0 ] unsigned int 
  6886 ;;  b               4    4[BANK0 ] unsigned int 
  6887 ;; Auto vars:     Size  Location     Type
  6888 ;;  grs             4   20[BANK0 ] unsigned long 
  6889 ;;  rem             4   13[BANK0 ] unsigned long 
  6890 ;;  new_exp         2   18[BANK0 ] int 
  6891 ;;  aexp            1   25[BANK0 ] unsigned char 
  6892 ;;  bexp            1   24[BANK0 ] unsigned char 
  6893 ;;  sign            1   17[BANK0 ] unsigned char 
  6894 ;; Return value:  Size  Location     Type
  6895 ;;                  4    0[BANK0 ] unsigned char 
  6896 ;; Registers used:
  6897 ;;		wreg, status,2, status,0
  6898 ;; Tracked objects:
  6899 ;;		On entry : 0/0
  6900 ;;		On exit  : 0/0
  6901 ;;		Unchanged: 0/0
  6902 ;; Data sizes:     COMMON   BANK0   BANK1   BANK2   BANK3   BANK4   BANK5   BANK6
  6903 ;;      Params:         0       8       0       0       0       0       0       0
  6904 ;;      Locals:         0      13       0       0       0       0       0       0
  6905 ;;      Temps:          0       5       0       0       0       0       0       0
  6906 ;;      Totals:         0      26       0       0       0       0       0       0
  6907 ;;Total ram usage:       26 bytes
  6908 ;; Hardware stack levels used:    1
  6909 ;; Hardware stack levels required when called:    1
  6910 ;; This function calls:
  6911 ;;		Nothing
  6912 ;; This function is called by:
  6913 ;;		_LinearTransiant
  6914 ;; This function uses a non-reentrant model
  6915 ;;
  6916                           
  6917                           
  6918                           ;psect for function ___fldiv
  6919  0492                     ___fldiv:
  6920  0492                     l1948:	
  6921                           ;incstack = 0
  6922                           ; Regs used in ___fldiv: [wreg+status,2+status,0]
  6923                           
  6924  0492  0020               	movlb	0	; select bank0
  6925  0493  0827               	movf	___fldiv@b+3,w
  6926  0494  3980               	andlw	128
  6927  0495  00A8               	movwf	??___fldiv
  6928  0496  0828               	movf	??___fldiv,w
  6929  0497  00B1               	movwf	___fldiv@sign
  6930  0498                     l1950:
  6931  0498  3527               	lslf	___fldiv@b+3,w
  6932  0499  00A8               	movwf	??___fldiv
  6933  049A  0828               	movf	??___fldiv,w
  6934  049B  00B8               	movwf	___fldiv@bexp
  6935  049C                     l1952:
  6936  049C  1FA6               	btfss	___fldiv@b+2,7
  6937  049D  2C9F               	goto	u1711
  6938  049E  2CA0               	goto	u1710
  6939  049F                     u1711:
  6940  049F  2CA1               	goto	l1956
  6941  04A0                     u1710:
  6942  04A0                     l1954:
  6943  04A0  1438               	bsf	___fldiv@bexp,0
  6944  04A1                     l1956:
  6945  04A1  0838               	movf	___fldiv@bexp,w
  6946  04A2  1903               	btfsc	3,2
  6947  04A3  2CA5               	goto	u1721
  6948  04A4  2CA6               	goto	u1720
  6949  04A5                     u1721:
  6950  04A5  2CB6               	goto	l1966
  6951  04A6                     u1720:
  6952  04A6                     l1958:
  6953  04A6  0A38               	incf	___fldiv@bexp,w
  6954  04A7  1D03               	btfss	3,2
  6955  04A8  2CAA               	goto	u1731
  6956  04A9  2CAB               	goto	u1730
  6957  04AA                     u1731:
  6958  04AA  2CB3               	goto	l1962
  6959  04AB                     u1730:
  6960  04AB                     l1960:
  6961  04AB  3000               	movlw	0
  6962  04AC  00A7               	movwf	___fldiv@b+3
  6963  04AD  3000               	movlw	0
  6964  04AE  00A6               	movwf	___fldiv@b+2
  6965  04AF  3000               	movlw	0
  6966  04B0  00A5               	movwf	___fldiv@b+1
  6967  04B1  3000               	movlw	0
  6968  04B2  00A4               	movwf	___fldiv@b
  6969  04B3                     l1962:
  6970  04B3  17A6               	bsf	___fldiv@b+2,7
  6971  04B4                     l1964:
  6972  04B4  01A7               	clrf	___fldiv@b+3
  6973  04B5  2CBE               	goto	l1968
  6974  04B6                     l1966:
  6975  04B6  3000               	movlw	0
  6976  04B7  00A7               	movwf	___fldiv@b+3
  6977  04B8  3000               	movlw	0
  6978  04B9  00A6               	movwf	___fldiv@b+2
  6979  04BA  3000               	movlw	0
  6980  04BB  00A5               	movwf	___fldiv@b+1
  6981  04BC  3000               	movlw	0
  6982  04BD  00A4               	movwf	___fldiv@b
  6983  04BE                     l1968:
  6984  04BE  0823               	movf	___fldiv@a+3,w
  6985  04BF  3980               	andlw	128
  6986  04C0  00A8               	movwf	??___fldiv
  6987  04C1  0828               	movf	??___fldiv,w
  6988  04C2  06B1               	xorwf	___fldiv@sign,f
  6989  04C3                     l1970:
  6990  04C3  3523               	lslf	___fldiv@a+3,w
  6991  04C4  00A8               	movwf	??___fldiv
  6992  04C5  0828               	movf	??___fldiv,w
  6993  04C6  00B9               	movwf	___fldiv@aexp
  6994  04C7                     l1972:
  6995  04C7  1FA2               	btfss	___fldiv@a+2,7
  6996  04C8  2CCA               	goto	u1741
  6997  04C9  2CCB               	goto	u1740
  6998  04CA                     u1741:
  6999  04CA  2CCC               	goto	l1976
  7000  04CB                     u1740:
  7001  04CB                     l1974:
  7002  04CB  1439               	bsf	___fldiv@aexp,0
  7003  04CC                     l1976:
  7004  04CC  0839               	movf	___fldiv@aexp,w
  7005  04CD  1903               	btfsc	3,2
  7006  04CE  2CD0               	goto	u1751
  7007  04CF  2CD1               	goto	u1750
  7008  04D0                     u1751:
  7009  04D0  2CE1               	goto	l1986
  7010  04D1                     u1750:
  7011  04D1                     l1978:
  7012  04D1  0A39               	incf	___fldiv@aexp,w
  7013  04D2  1D03               	btfss	3,2
  7014  04D3  2CD5               	goto	u1761
  7015  04D4  2CD6               	goto	u1760
  7016  04D5                     u1761:
  7017  04D5  2CDE               	goto	l1982
  7018  04D6                     u1760:
  7019  04D6                     l1980:
  7020  04D6  3000               	movlw	0
  7021  04D7  00A3               	movwf	___fldiv@a+3
  7022  04D8  3000               	movlw	0
  7023  04D9  00A2               	movwf	___fldiv@a+2
  7024  04DA  3000               	movlw	0
  7025  04DB  00A1               	movwf	___fldiv@a+1
  7026  04DC  3000               	movlw	0
  7027  04DD  00A0               	movwf	___fldiv@a
  7028  04DE                     l1982:
  7029  04DE  17A2               	bsf	___fldiv@a+2,7
  7030  04DF                     l1984:
  7031  04DF  01A3               	clrf	___fldiv@a+3
  7032  04E0  2CE9               	goto	l783
  7033  04E1                     l1986:
  7034  04E1  3000               	movlw	0
  7035  04E2  00A3               	movwf	___fldiv@a+3
  7036  04E3  3000               	movlw	0
  7037  04E4  00A2               	movwf	___fldiv@a+2
  7038  04E5  3000               	movlw	0
  7039  04E6  00A1               	movwf	___fldiv@a+1
  7040  04E7  3000               	movlw	0
  7041  04E8  00A0               	movwf	___fldiv@a
  7042  04E9                     l783:
  7043  04E9  0823               	movf	___fldiv@a+3,w
  7044  04EA  0422               	iorwf	___fldiv@a+2,w
  7045  04EB  0421               	iorwf	___fldiv@a+1,w
  7046  04EC  0420               	iorwf	___fldiv@a,w
  7047  04ED  1D03               	skipz
  7048  04EE  2CF0               	goto	u1771
  7049  04EF  2CF1               	goto	u1770
  7050  04F0                     u1771:
  7051  04F0  2D0A               	goto	l1996
  7052  04F1                     u1770:
  7053  04F1                     l1988:
  7054  04F1  3000               	movlw	0
  7055  04F2  00A7               	movwf	___fldiv@b+3
  7056  04F3  3000               	movlw	0
  7057  04F4  00A6               	movwf	___fldiv@b+2
  7058  04F5  3000               	movlw	0
  7059  04F6  00A5               	movwf	___fldiv@b+1
  7060  04F7  3000               	movlw	0
  7061  04F8  00A4               	movwf	___fldiv@b
  7062  04F9  3080               	movlw	128
  7063  04FA  04A6               	iorwf	___fldiv@b+2,f
  7064  04FB  307F               	movlw	127
  7065  04FC  04A7               	iorwf	___fldiv@b+3,f
  7066  04FD                     l1990:
  7067  04FD  0831               	movf	___fldiv@sign,w
  7068  04FE  00A8               	movwf	??___fldiv
  7069  04FF  0828               	movf	??___fldiv,w
  7070  0500  04A7               	iorwf	___fldiv@b+3,f
  7071  0501                     l1992:
  7072  0501  0827               	movf	___fldiv@b+3,w
  7073  0502  00A3               	movwf	?___fldiv+3
  7074  0503  0826               	movf	___fldiv@b+2,w
  7075  0504  00A2               	movwf	?___fldiv+2
  7076  0505  0825               	movf	___fldiv@b+1,w
  7077  0506  00A1               	movwf	?___fldiv+1
  7078  0507  0824               	movf	___fldiv@b,w
  7079  0508  00A0               	movwf	?___fldiv
  7080  0509  2E45               	goto	l785
  7081  050A                     l1996:
  7082  050A  0838               	movf	___fldiv@bexp,w
  7083  050B  1D03               	btfss	3,2
  7084  050C  2D0E               	goto	u1781
  7085  050D  2D0F               	goto	u1780
  7086  050E                     u1781:
  7087  050E  2D18               	goto	l2002
  7088  050F                     u1780:
  7089  050F                     l1998:
  7090  050F  3000               	movlw	0
  7091  0510  00A3               	movwf	?___fldiv+3
  7092  0511  3000               	movlw	0
  7093  0512  00A2               	movwf	?___fldiv+2
  7094  0513  3000               	movlw	0
  7095  0514  00A1               	movwf	?___fldiv+1
  7096  0515  3000               	movlw	0
  7097  0516  00A0               	movwf	?___fldiv
  7098  0517  2E45               	goto	l785
  7099  0518                     l2002:
  7100  0518  0838               	movf	___fldiv@bexp,w
  7101  0519  00A8               	movwf	??___fldiv
  7102  051A  01A9               	clrf	??___fldiv+1
  7103  051B  0829               	movf	??___fldiv+1,w
  7104  051C  00AB               	movwf	??___fldiv+3
  7105  051D  0839               	movf	___fldiv@aexp,w
  7106  051E  0228               	subwf	??___fldiv,w
  7107  051F  00AA               	movwf	??___fldiv+2
  7108  0520  1C03               	skipc
  7109  0521  03AB               	decf	??___fldiv+3,f
  7110  0522  082A               	movf	??___fldiv+2,w
  7111  0523  3E7F               	addlw	127
  7112  0524  00B2               	movwf	___fldiv@new_exp
  7113  0525  3000               	movlw	0
  7114  0526  3D2B               	addwfc	??___fldiv+3,w
  7115  0527  00B3               	movwf	___fldiv@new_exp+1
  7116  0528                     l2004:
  7117  0528  0827               	movf	___fldiv@b+3,w
  7118  0529  00B0               	movwf	___fldiv@rem+3
  7119  052A  0826               	movf	___fldiv@b+2,w
  7120  052B  00AF               	movwf	___fldiv@rem+2
  7121  052C  0825               	movf	___fldiv@b+1,w
  7122  052D  00AE               	movwf	___fldiv@rem+1
  7123  052E  0824               	movf	___fldiv@b,w
  7124  052F  00AD               	movwf	___fldiv@rem
  7125  0530                     l2006:
  7126  0530  3000               	movlw	0
  7127  0531  00A7               	movwf	___fldiv@b+3
  7128  0532  3000               	movlw	0
  7129  0533  00A6               	movwf	___fldiv@b+2
  7130  0534  3000               	movlw	0
  7131  0535  00A5               	movwf	___fldiv@b+1
  7132  0536  3000               	movlw	0
  7133  0537  00A4               	movwf	___fldiv@b
  7134  0538                     l2008:
  7135  0538  3000               	movlw	0
  7136  0539  00B7               	movwf	___fldiv@grs+3
  7137  053A  3000               	movlw	0
  7138  053B  00B6               	movwf	___fldiv@grs+2
  7139  053C  3000               	movlw	0
  7140  053D  00B5               	movwf	___fldiv@grs+1
  7141  053E  3000               	movlw	0
  7142  053F  00B4               	movwf	___fldiv@grs
  7143  0540                     l2010:
  7144  0540  01B9               	clrf	___fldiv@aexp
  7145  0541  2D80               	goto	l2030
  7146  0542                     l2012:
  7147  0542  0839               	movf	___fldiv@aexp,w
  7148  0543  1903               	btfsc	3,2
  7149  0544  2D46               	goto	u1791
  7150  0545  2D47               	goto	u1790
  7151  0546                     u1791:
  7152  0546  2D61               	goto	l2022
  7153  0547                     u1790:
  7154  0547                     l2014:
  7155  0547  3001               	movlw	1
  7156  0548                     u1805:
  7157  0548  35AD               	lslf	___fldiv@rem,f
  7158  0549  0DAE               	rlf	___fldiv@rem+1,f
  7159  054A  0DAF               	rlf	___fldiv@rem+2,f
  7160  054B  0DB0               	rlf	___fldiv@rem+3,f
  7161  054C  0B89               	decfsz	9,f
  7162  054D  2D48               	goto	u1805
  7163  054E  3001               	movlw	1
  7164  054F                     u1815:
  7165  054F  35A4               	lslf	___fldiv@b,f
  7166  0550  0DA5               	rlf	___fldiv@b+1,f
  7167  0551  0DA6               	rlf	___fldiv@b+2,f
  7168  0552  0DA7               	rlf	___fldiv@b+3,f
  7169  0553  0B89               	decfsz	9,f
  7170  0554  2D4F               	goto	u1815
  7171  0555                     l2016:
  7172  0555  1FB7               	btfss	___fldiv@grs+3,7
  7173  0556  2D58               	goto	u1821
  7174  0557  2D59               	goto	u1820
  7175  0558                     u1821:
  7176  0558  2D5A               	goto	l2020
  7177  0559                     u1820:
  7178  0559                     l2018:
  7179  0559  1424               	bsf	___fldiv@b,0
  7180  055A                     l2020:
  7181  055A  3001               	movlw	1
  7182  055B                     u1835:
  7183  055B  35B4               	lslf	___fldiv@grs,f
  7184  055C  0DB5               	rlf	___fldiv@grs+1,f
  7185  055D  0DB6               	rlf	___fldiv@grs+2,f
  7186  055E  0DB7               	rlf	___fldiv@grs+3,f
  7187  055F  0B89               	decfsz	9,f
  7188  0560  2D5B               	goto	u1835
  7189  0561                     l2022:
  7190  0561  0823               	movf	___fldiv@a+3,w
  7191  0562  0230               	subwf	___fldiv@rem+3,w
  7192  0563  1D03               	skipz
  7193  0564  2D6F               	goto	u1845
  7194  0565  0822               	movf	___fldiv@a+2,w
  7195  0566  022F               	subwf	___fldiv@rem+2,w
  7196  0567  1D03               	skipz
  7197  0568  2D6F               	goto	u1845
  7198  0569  0821               	movf	___fldiv@a+1,w
  7199  056A  022E               	subwf	___fldiv@rem+1,w
  7200  056B  1D03               	skipz
  7201  056C  2D6F               	goto	u1845
  7202  056D  0820               	movf	___fldiv@a,w
  7203  056E  022D               	subwf	___fldiv@rem,w
  7204  056F                     u1845:
  7205  056F  1C03               	skipc
  7206  0570  2D72               	goto	u1841
  7207  0571  2D73               	goto	u1840
  7208  0572                     u1841:
  7209  0572  2D7C               	goto	l2028
  7210  0573                     u1840:
  7211  0573                     l2024:
  7212  0573  1737               	bsf	___fldiv@grs+3,6
  7213  0574                     l2026:
  7214  0574  0820               	movf	___fldiv@a,w
  7215  0575  02AD               	subwf	___fldiv@rem,f
  7216  0576  0821               	movf	___fldiv@a+1,w
  7217  0577  3BAE               	subwfb	___fldiv@rem+1,f
  7218  0578  0822               	movf	___fldiv@a+2,w
  7219  0579  3BAF               	subwfb	___fldiv@rem+2,f
  7220  057A  0823               	movf	___fldiv@a+3,w
  7221  057B  3BB0               	subwfb	___fldiv@rem+3,f
  7222  057C                     l2028:
  7223  057C  3001               	movlw	1
  7224  057D  00A8               	movwf	??___fldiv
  7225  057E  0828               	movf	??___fldiv,w
  7226  057F  07B9               	addwf	___fldiv@aexp,f
  7227  0580                     l2030:
  7228  0580  301A               	movlw	26
  7229  0581  0239               	subwf	___fldiv@aexp,w
  7230  0582  1C03               	skipc
  7231  0583  2D85               	goto	u1851
  7232  0584  2D86               	goto	u1850
  7233  0585                     u1851:
  7234  0585  2D42               	goto	l2012
  7235  0586                     u1850:
  7236  0586                     l2032:
  7237  0586  0830               	movf	___fldiv@rem+3,w
  7238  0587  042F               	iorwf	___fldiv@rem+2,w
  7239  0588  042E               	iorwf	___fldiv@rem+1,w
  7240  0589  042D               	iorwf	___fldiv@rem,w
  7241  058A  1903               	skipnz
  7242  058B  2D8D               	goto	u1861
  7243  058C  2D8E               	goto	u1860
  7244  058D                     u1861:
  7245  058D  2DA7               	goto	l2046
  7246  058E                     u1860:
  7247  058E                     l2034:
  7248  058E  1434               	bsf	___fldiv@grs,0
  7249  058F  2DA7               	goto	l2046
  7250  0590                     l2036:
  7251  0590  3001               	movlw	1
  7252  0591                     u1875:
  7253  0591  35A4               	lslf	___fldiv@b,f
  7254  0592  0DA5               	rlf	___fldiv@b+1,f
  7255  0593  0DA6               	rlf	___fldiv@b+2,f
  7256  0594  0DA7               	rlf	___fldiv@b+3,f
  7257  0595  0B89               	decfsz	9,f
  7258  0596  2D91               	goto	u1875
  7259  0597                     l2038:
  7260  0597  1FB7               	btfss	___fldiv@grs+3,7
  7261  0598  2D9A               	goto	u1881
  7262  0599  2D9B               	goto	u1880
  7263  059A                     u1881:
  7264  059A  2D9C               	goto	l2042
  7265  059B                     u1880:
  7266  059B                     l2040:
  7267  059B  1424               	bsf	___fldiv@b,0
  7268  059C                     l2042:
  7269  059C  3001               	movlw	1
  7270  059D                     u1895:
  7271  059D  35B4               	lslf	___fldiv@grs,f
  7272  059E  0DB5               	rlf	___fldiv@grs+1,f
  7273  059F  0DB6               	rlf	___fldiv@grs+2,f
  7274  05A0  0DB7               	rlf	___fldiv@grs+3,f
  7275  05A1  0B89               	decfsz	9,f
  7276  05A2  2D9D               	goto	u1895
  7277  05A3                     l2044:
  7278  05A3  30FF               	movlw	255
  7279  05A4  07B2               	addwf	___fldiv@new_exp,f
  7280  05A5  30FF               	movlw	255
  7281  05A6  3DB3               	addwfc	___fldiv@new_exp+1,f
  7282  05A7                     l2046:
  7283  05A7  1FA6               	btfss	___fldiv@b+2,7
  7284  05A8  2DAA               	goto	u1901
  7285  05A9  2DAB               	goto	u1900
  7286  05AA                     u1901:
  7287  05AA  2D90               	goto	l2036
  7288  05AB                     u1900:
  7289  05AB                     l2048:
  7290  05AB  01B9               	clrf	___fldiv@aexp
  7291  05AC                     l2050:
  7292  05AC  1FB7               	btfss	___fldiv@grs+3,7
  7293  05AD  2DAF               	goto	u1911
  7294  05AE  2DB0               	goto	u1910
  7295  05AF                     u1911:
  7296  05AF  2DCC               	goto	l2058
  7297  05B0                     u1910:
  7298  05B0                     l2052:
  7299  05B0  30FF               	movlw	255
  7300  05B1  0534               	andwf	___fldiv@grs,w
  7301  05B2  00A8               	movwf	??___fldiv
  7302  05B3  30FF               	movlw	255
  7303  05B4  0535               	andwf	___fldiv@grs+1,w
  7304  05B5  00A9               	movwf	??___fldiv+1
  7305  05B6  30FF               	movlw	255
  7306  05B7  0536               	andwf	___fldiv@grs+2,w
  7307  05B8  00AA               	movwf	??___fldiv+2
  7308  05B9  307F               	movlw	127
  7309  05BA  0537               	andwf	___fldiv@grs+3,w
  7310  05BB  00AB               	movwf	??___fldiv+3
  7311  05BC  082B               	movf	??___fldiv+3,w
  7312  05BD  042A               	iorwf	??___fldiv+2,w
  7313  05BE  0429               	iorwf	??___fldiv+1,w
  7314  05BF  0428               	iorwf	??___fldiv,w
  7315  05C0  1903               	skipnz
  7316  05C1  2DC3               	goto	u1921
  7317  05C2  2DC4               	goto	u1920
  7318  05C3                     u1921:
  7319  05C3  2DC7               	goto	l799
  7320  05C4                     u1920:
  7321  05C4                     l2054:
  7322  05C4  01B9               	clrf	___fldiv@aexp
  7323  05C5  0AB9               	incf	___fldiv@aexp,f
  7324  05C6  2DCC               	goto	l2058
  7325  05C7                     l799:
  7326  05C7  1C24               	btfss	___fldiv@b,0
  7327  05C8  2DCA               	goto	u1931
  7328  05C9  2DCB               	goto	u1930
  7329  05CA                     u1931:
  7330  05CA  2DCC               	goto	l2058
  7331  05CB                     u1930:
  7332  05CB  2DC4               	goto	l2054
  7333  05CC                     l2058:
  7334  05CC  0839               	movf	___fldiv@aexp,w
  7335  05CD  1903               	btfsc	3,2
  7336  05CE  2DD0               	goto	u1941
  7337  05CF  2DD1               	goto	u1940
  7338  05D0                     u1941:
  7339  05D0  2DF9               	goto	l2068
  7340  05D1                     u1940:
  7341  05D1                     l2060:
  7342  05D1  3001               	movlw	1
  7343  05D2  07A4               	addwf	___fldiv@b,f
  7344  05D3  3000               	movlw	0
  7345  05D4  3DA5               	addwfc	___fldiv@b+1,f
  7346  05D5  3000               	movlw	0
  7347  05D6  3DA6               	addwfc	___fldiv@b+2,f
  7348  05D7  3000               	movlw	0
  7349  05D8  3DA7               	addwfc	___fldiv@b+3,f
  7350  05D9                     l2062:
  7351  05D9  1C27               	btfss	___fldiv@b+3,0
  7352  05DA  2DDC               	goto	u1951
  7353  05DB  2DDD               	goto	u1950
  7354  05DC                     u1951:
  7355  05DC  2DF9               	goto	l2068
  7356  05DD                     u1950:
  7357  05DD                     l2064:
  7358  05DD  0824               	movf	___fldiv@b,w
  7359  05DE  00A8               	movwf	??___fldiv
  7360  05DF  0825               	movf	___fldiv@b+1,w
  7361  05E0  00A9               	movwf	??___fldiv+1
  7362  05E1  0826               	movf	___fldiv@b+2,w
  7363  05E2  00AA               	movwf	??___fldiv+2
  7364  05E3  0827               	movf	___fldiv@b+3,w
  7365  05E4  00AB               	movwf	??___fldiv+3
  7366  05E5  3001               	movlw	1
  7367  05E6  00AC               	movwf	??___fldiv+4
  7368  05E7                     u1965:
  7369  05E7  37AB               	asrf	??___fldiv+3,f
  7370  05E8  0CAA               	rrf	??___fldiv+2,f
  7371  05E9  0CA9               	rrf	??___fldiv+1,f
  7372  05EA  0CA8               	rrf	??___fldiv,f
  7373  05EB                     u1960:
  7374  05EB  0BAC               	decfsz	??___fldiv+4,f
  7375  05EC  2DE7               	goto	u1965
  7376  05ED  082B               	movf	??___fldiv+3,w
  7377  05EE  00A7               	movwf	___fldiv@b+3
  7378  05EF  082A               	movf	??___fldiv+2,w
  7379  05F0  00A6               	movwf	___fldiv@b+2
  7380  05F1  0829               	movf	??___fldiv+1,w
  7381  05F2  00A5               	movwf	___fldiv@b+1
  7382  05F3  0828               	movf	??___fldiv,w
  7383  05F4  00A4               	movwf	___fldiv@b
  7384  05F5                     l2066:
  7385  05F5  3001               	movlw	1
  7386  05F6  07B2               	addwf	___fldiv@new_exp,f
  7387  05F7  3000               	movlw	0
  7388  05F8  3DB3               	addwfc	___fldiv@new_exp+1,f
  7389  05F9                     l2068:
  7390  05F9  0833               	movf	___fldiv@new_exp+1,w
  7391  05FA  3A80               	xorlw	128
  7392  05FB  00A8               	movwf	??___fldiv
  7393  05FC  3080               	movlw	128
  7394  05FD  0228               	subwf	??___fldiv,w
  7395  05FE  1D03               	skipz
  7396  05FF  2E02               	goto	u1975
  7397  0600  30FF               	movlw	255
  7398  0601  0232               	subwf	___fldiv@new_exp,w
  7399  0602                     u1975:
  7400  0602  1C03               	skipc
  7401  0603  2E05               	goto	u1971
  7402  0604  2E06               	goto	u1970
  7403  0605                     u1971:
  7404  0605  2E13               	goto	l804
  7405  0606                     u1970:
  7406  0606                     l2070:
  7407  0606  30FF               	movlw	255
  7408  0607  0020               	movlb	0	; select bank0
  7409  0608  00B2               	movwf	___fldiv@new_exp
  7410  0609  3000               	movlw	0
  7411  060A  00B3               	movwf	___fldiv@new_exp+1
  7412  060B  3000               	movlw	0
  7413  060C  00A7               	movwf	___fldiv@b+3
  7414  060D  3000               	movlw	0
  7415  060E  00A6               	movwf	___fldiv@b+2
  7416  060F  3000               	movlw	0
  7417  0610  00A5               	movwf	___fldiv@b+1
  7418  0611  3000               	movlw	0
  7419  0612  00A4               	movwf	___fldiv@b
  7420  0613                     l804:
  7421  0613  0020               	movlb	0	; select bank0
  7422  0614  0833               	movf	___fldiv@new_exp+1,w
  7423  0615  3A80               	xorlw	128
  7424  0616  00A8               	movwf	??___fldiv
  7425  0617  3080               	movlw	128
  7426  0618  0228               	subwf	??___fldiv,w
  7427  0619  1D03               	skipz
  7428  061A  2E1D               	goto	u1985
  7429  061B  3001               	movlw	1
  7430  061C  0232               	subwf	___fldiv@new_exp,w
  7431  061D                     u1985:
  7432  061D  1803               	skipnc
  7433  061E  2E20               	goto	u1981
  7434  061F  2E21               	goto	u1980
  7435  0620                     u1981:
  7436  0620  2E2D               	goto	l805
  7437  0621                     u1980:
  7438  0621                     l2072:
  7439  0621  0020               	movlb	0	; select bank0
  7440  0622  01B2               	clrf	___fldiv@new_exp
  7441  0623  01B3               	clrf	___fldiv@new_exp+1
  7442  0624                     l2074:
  7443  0624  3000               	movlw	0
  7444  0625  00A7               	movwf	___fldiv@b+3
  7445  0626  3000               	movlw	0
  7446  0627  00A6               	movwf	___fldiv@b+2
  7447  0628  3000               	movlw	0
  7448  0629  00A5               	movwf	___fldiv@b+1
  7449  062A  3000               	movlw	0
  7450  062B  00A4               	movwf	___fldiv@b
  7451  062C                     l2076:
  7452  062C  01B1               	clrf	___fldiv@sign
  7453  062D                     l805:
  7454  062D  0020               	movlb	0	; select bank0
  7455  062E  0832               	movf	___fldiv@new_exp,w
  7456  062F  00A8               	movwf	??___fldiv
  7457  0630  0828               	movf	??___fldiv,w
  7458  0631  00B8               	movwf	___fldiv@bexp
  7459  0632                     l2078:
  7460  0632  1C38               	btfss	___fldiv@bexp,0
  7461  0633  2E35               	goto	u1991
  7462  0634  2E36               	goto	u1990
  7463  0635                     u1991:
  7464  0635  2E38               	goto	l2082
  7465  0636                     u1990:
  7466  0636                     l2080:
  7467  0636  17A6               	bsf	___fldiv@b+2,7
  7468  0637  2E3C               	goto	l807
  7469  0638                     l2082:
  7470  0638  307F               	movlw	127
  7471  0639  00A8               	movwf	??___fldiv
  7472  063A  0828               	movf	??___fldiv,w
  7473  063B  05A6               	andwf	___fldiv@b+2,f
  7474  063C                     l807:
  7475  063C  3638               	lsrf	___fldiv@bexp,w
  7476  063D  00A8               	movwf	??___fldiv
  7477  063E  0828               	movf	??___fldiv,w
  7478  063F  00A7               	movwf	___fldiv@b+3
  7479  0640  0831               	movf	___fldiv@sign,w
  7480  0641  00A8               	movwf	??___fldiv
  7481  0642  0828               	movf	??___fldiv,w
  7482  0643  04A7               	iorwf	___fldiv@b+3,f
  7483  0644  2D01               	goto	l1992
  7484  0645                     l785:
  7485  0645  0008               	return
  7486  0646                     __end_of___fldiv:
  7487                           
  7488                           	psect	text40
  7489  0B2B                     __ptext40:	
  7490 ;; *************** function _KeepDistance *****************
  7491 ;; Defined at:
  7492 ;;		line 93 in file "02-SRC/02-APPLICATION/Appl.c"
  7493 ;; Parameters:    Size  Location     Type
  7494 ;;  amount          1    wreg     unsigned char 
  7495 ;; Auto vars:     Size  Location     Type
  7496 ;;  amount          1    3[COMMON] unsigned char 
  7497 ;;  diff            2    1[COMMON] short 
  7498 ;;  retVal          1    4[COMMON] unsigned char 
  7499 ;; Return value:  Size  Location     Type
  7500 ;;                  1    wreg      unsigned char 
  7501 ;; Registers used:
  7502 ;;		wreg, status,2, status,0
  7503 ;; Tracked objects:
  7504 ;;		On entry : 0/0
  7505 ;;		On exit  : 0/0
  7506 ;;		Unchanged: 0/0
  7507 ;; Data sizes:     COMMON   BANK0   BANK1   BANK2   BANK3   BANK4   BANK5   BANK6
  7508 ;;      Params:         0       0       0       0       0       0       0       0
  7509 ;;      Locals:         4       0       0       0       0       0       0       0
  7510 ;;      Temps:          1       0       0       0       0       0       0       0
  7511 ;;      Totals:         5       0       0       0       0       0       0       0
  7512 ;;Total ram usage:        5 bytes
  7513 ;; Hardware stack levels used:    1
  7514 ;; Hardware stack levels required when called:    1
  7515 ;; This function calls:
  7516 ;;		Nothing
  7517 ;; This function is called by:
  7518 ;;		_APPL_TASK_10MS
  7519 ;; This function uses a non-reentrant model
  7520 ;;
  7521                           
  7522                           
  7523                           ;psect for function _KeepDistance
  7524  0B2B                     _KeepDistance:
  7525                           
  7526                           ;incstack = 0
  7527                           ; Regs used in _KeepDistance: [wreg+status,2+status,0]
  7528                           ;KeepDistance@amount stored from wreg
  7529  0B2B  00F3               	movwf	KeepDistance@amount
  7530  0B2C                     l2414:
  7531  0B2C  01F4               	clrf	KeepDistance@retVal
  7532  0B2D  0AF4               	incf	KeepDistance@retVal,f
  7533  0B2E                     l2416:
  7534  0B2E  0020               	movlb	0	; select bank0
  7535  0B2F  085E               	movf	_MyQueue+1,w
  7536  0B30  3A80               	xorlw	128
  7537  0B31  00F0               	movwf	??_KeepDistance
  7538  0B32  0860               	movf	_MyQueue+3,w
  7539  0B33  3A80               	xorlw	128
  7540  0B34  0270               	subwf	??_KeepDistance,w
  7541  0B35  1D03               	skipz
  7542  0B36  2B39               	goto	u2565
  7543  0B37  085F               	movf	_MyQueue+2,w
  7544  0B38  025D               	subwf	_MyQueue,w
  7545  0B39                     u2565:
  7546  0B39  1803               	skipnc
  7547  0B3A  2B3C               	goto	u2561
  7548  0B3B  2B3D               	goto	u2560
  7549  0B3C                     u2561:
  7550  0B3C  2B50               	goto	l2424
  7551  0B3D                     u2560:
  7552  0B3D                     l2418:
  7553  0B3D  0020               	movlb	0	; select bank0
  7554  0B3E  085D               	movf	_MyQueue,w
  7555  0B3F  025F               	subwf	_MyQueue+2,w
  7556  0B40  00F1               	movwf	KeepDistance@diff
  7557  0B41  085E               	movf	_MyQueue+1,w
  7558  0B42  3B60               	subwfb	_MyQueue+3,w
  7559  0B43  00F2               	movwf	KeepDistance@diff+1
  7560  0B44                     l2420:
  7561  0B44  0872               	movf	KeepDistance@diff+1,w
  7562  0B45  3A80               	xorlw	128
  7563  0B46  3C80               	sublw	128
  7564  0B47  1D03               	skipz
  7565  0B48  2B4B               	goto	u2575
  7566  0B49  0871               	movf	KeepDistance@diff,w
  7567  0B4A  0273               	subwf	KeepDistance@amount,w
  7568  0B4B                     u2575:
  7569  0B4B  1803               	skipnc
  7570  0B4C  2B4E               	goto	u2571
  7571  0B4D  2B4F               	goto	u2570
  7572  0B4E                     u2571:
  7573  0B4E  2B50               	goto	l2424
  7574  0B4F                     u2570:
  7575  0B4F                     l2422:
  7576  0B4F  01F4               	clrf	KeepDistance@retVal
  7577  0B50                     l2424:
  7578  0B50  0874               	movf	KeepDistance@retVal,w
  7579  0B51                     l311:
  7580  0B51  0008               	return
  7581  0B52                     __end_of_KeepDistance:
  7582                           
  7583                           	psect	text41
  7584  07F8                     __ptext41:	
  7585 ;; *************** function _ClickLed *****************
  7586 ;; Defined at:
  7587 ;;		line 192 in file "02-SRC/02-APPLICATION/Appl.c"
  7588 ;; Parameters:    Size  Location     Type
  7589 ;;  DurationMs      2    0[COMMON] unsigned short 
  7590 ;; Auto vars:     Size  Location     Type
  7591 ;;		None
  7592 ;; Return value:  Size  Location     Type
  7593 ;;                  1    wreg      void 
  7594 ;; Registers used:
  7595 ;;		wreg
  7596 ;; Tracked objects:
  7597 ;;		On entry : 0/0
  7598 ;;		On exit  : 0/0
  7599 ;;		Unchanged: 0/0
  7600 ;; Data sizes:     COMMON   BANK0   BANK1   BANK2   BANK3   BANK4   BANK5   BANK6
  7601 ;;      Params:         2       0       0       0       0       0       0       0
  7602 ;;      Locals:         0       0       0       0       0       0       0       0
  7603 ;;      Temps:          0       0       0       0       0       0       0       0
  7604 ;;      Totals:         2       0       0       0       0       0       0       0
  7605 ;;Total ram usage:        2 bytes
  7606 ;; Hardware stack levels used:    1
  7607 ;; Hardware stack levels required when called:    1
  7608 ;; This function calls:
  7609 ;;		Nothing
  7610 ;; This function is called by:
  7611 ;;		_APPL_TASK_10MS
  7612 ;; This function uses a non-reentrant model
  7613 ;;
  7614                           
  7615                           
  7616                           ;psect for function _ClickLed
  7617  07F8                     _ClickLed:
  7618  07F8                     l2480:	
  7619                           ;incstack = 0
  7620                           ; Regs used in _ClickLed: [wreg]
  7621                           
  7622  07F8  0020               	movlb	0	; select bank0
  7623  07F9  01EA               	clrf	_Click
  7624  07FA  0AEA               	incf	_Click,f
  7625  07FB                     l2482:
  7626  07FB  0871               	movf	ClickLed@DurationMs+1,w
  7627  07FC  00E6               	movwf	_Click_Duration+1
  7628  07FD  0870               	movf	ClickLed@DurationMs,w
  7629  07FE  00E5               	movwf	_Click_Duration
  7630  07FF                     l347:
  7631  07FF  0008               	return
  7632  0800                     __end_of_ClickLed:
  7633                           
  7634                           	psect	intentry
  7635  0004                     __pintentry:	
  7636 ;; *************** function _ISR *****************
  7637 ;; Defined at:
  7638 ;;		line 55 in file "02-SRC/04-DRIVER/target.c"
  7639 ;; Parameters:    Size  Location     Type
  7640 ;;		None
  7641 ;; Auto vars:     Size  Location     Type
  7642 ;;		None
  7643 ;; Return value:  Size  Location     Type
  7644 ;;                  1    wreg      void 
  7645 ;; Registers used:
  7646 ;;		wreg
  7647 ;; Tracked objects:
  7648 ;;		On entry : 0/0
  7649 ;;		On exit  : 0/0
  7650 ;;		Unchanged: 0/0
  7651 ;; Data sizes:     COMMON   BANK0   BANK1   BANK2   BANK3   BANK4   BANK5   BANK6
  7652 ;;      Params:         0       0       0       0       0       0       0       0
  7653 ;;      Locals:         0       0       0       0       0       0       0       0
  7654 ;;      Temps:          0       0       0       0       0       0       0       0
  7655 ;;      Totals:         0       0       0       0       0       0       0       0
  7656 ;;Total ram usage:        0 bytes
  7657 ;; Hardware stack levels used:    1
  7658 ;; This function calls:
  7659 ;;		Nothing
  7660 ;; This function is called by:
  7661 ;;		Interrupt level 1
  7662 ;; This function uses a non-reentrant model
  7663 ;;
  7664                           
  7665  0004                     _ISR:
  7666                           
  7667                           ;incstack = 0
  7668  0004  147E               	bsf	int$flags,0	;set compiler interrupt flag (level 1)
  7669                           
  7670                           ; Regs used in _ISR: [wreg]
  7671  0005  3180               	pagesel	$
  7672  0006                     i1l2646:
  7673  0006  1D0B               	btfss	11,2	;volatile
  7674  0007  2809               	goto	u276_21
  7675  0008  280A               	goto	u276_20
  7676  0009                     u276_21:
  7677  0009  2812               	goto	i1l234
  7678  000A                     u276_20:
  7679  000A                     i1l2648:
  7680  000A  3005               	movlw	5
  7681  000B  0020               	movlb	0	; select bank0
  7682  000C  0095               	movwf	21	;volatile
  7683  000D  3001               	movlw	1
  7684  000E  07E7               	addwf	_Tick_1ms,f
  7685  000F  3000               	movlw	0
  7686  0010  3DE8               	addwfc	_Tick_1ms+1,f
  7687  0011                     i1l2650:
  7688  0011  110B               	bcf	11,2	;volatile
  7689  0012                     i1l234:
  7690  0012  107E               	bcf	int$flags,0	;clear compiler interrupt flag (level 1)
  7691  0013  0009               	retfie
  7692  0014                     __end_of_ISR:
  7693  007E                     btemp	set	126	;btemp
  7694  007E                     int$flags	set	126
  7695  007E                     wtemp0	set	126
  7696  20F0                     
  7697                           	psect	config
  7698                           
  7699                           ;Config register CONFIG1 @ 0x8007
  7700                           ;	Oscillator Selection Bits
  7701                           ;	FOSC = HS, HS Oscillator, High-speed crystal/resonator connected between OSC1 and OSC2
      +                           pins
  7702                           ;	Watchdog Timer Enable
  7703                           ;	WDTE = OFF, WDT disabled
  7704                           ;	Power-up Timer Enable
  7705                           ;	PWRTE = ON, PWRT enabled
  7706                           ;	MCLR Pin Function Select
  7707                           ;	MCLRE = ON, MCLR/VPP pin function is MCLR
  7708                           ;	Flash Program Memory Code Protection
  7709                           ;	CP = OFF, Program memory code protection is disabled
  7710                           ;	Brown-out Reset Enable
  7711                           ;	BOREN = OFF, Brown-out Reset disabled
  7712                           ;	Clock Out Enable
  7713                           ;	CLKOUTEN = OFF, CLKOUT function is disabled. I/O or oscillator function on the CLKOUT 
      +                          pin
  7714                           ;	Internal/External Switchover Mode
  7715                           ;	IESO = ON, Internal/External Switchover Mode is enabled
  7716                           ;	Fail-Safe Clock Monitor Enable
  7717                           ;	FCMEN = ON, Fail-Safe Clock Monitor is enabled
  7718  8007                     	org	32775
  7719  8007  39C2               	dw	14786
  7720                           
  7721                           ;Config register CONFIG2 @ 0x8008
  7722                           ;	Flash Memory Self-Write Protection
  7723                           ;	WRT = OFF, Write protection off
  7724                           ;	Stack Overflow/Underflow Reset Enable
  7725                           ;	STVREN = ON, Stack Overflow or Underflow will cause a Reset
  7726                           ;	Brown-out Reset Voltage Selection
  7727                           ;	BORV = HI, Brown-out Reset Voltage (Vbor), high trip point selected.
  7728                           ;	Low-Power Brown Out Reset
  7729                           ;	LPBOR = ON, Low-Power BOR is enabled
  7730                           ;	Low-Voltage Programming Enable
  7731                           ;	LVP = OFF, High-voltage on MCLR/VPP must be used for programming
  7732  8008                     	org	32776
  7733  8008  13FF               	dw	5119

Data Sizes:
    Strings     6
    Constant    512
    Data        0
    BSS         72
    Persistent  34
    Stack       0

Auto Spaces:
    Space          Size  Autos    Used
    COMMON           14     14      14
    BANK0            80     61      77
    BANK1            80      0      58
    BANK2            80      0       0
    BANK3             0      0       0
    BANK4             0      0       0
    BANK5             0      0       0
    BANK6             0      0       0

Pointer List with Targets:

    NRF_Set_SPI_Handler@SPI_Handler	PTR FTN(unsigned char ,)unsigned char  size(2) Largest target is 1
		 -> SPI_Exchange(), 

    NRF_Read_Register@Bytes	PTR unsigned char  size(1) Largest target is 14
		 -> NRF_StatusHandler@NRF_Fifo(COMMON[1]), NRFChip.RF_SETUP(BANK1[1]), NRFChip.CONFIG(BANK1[1]), NRF_PipeDisableAA@AA(COMMON[1]), 
		 -> NRF_PipeEnableAA@AA(COMMON[1]), NRF_PipeDisable@EN(COMMON[1]), NRF_PipeEnable@EN(COMMON[1]), NRFChip(BANK1[14]), 

    NRF_Write_Register@Bytes	PTR unsigned char  size(1) Largest target is 36
		 -> NRFChip.SETUP_RETR(BANK1[1]), NRFChip.RF_SETUP(BANK1[1]), NRFChip.RF_CH(BANK1[1]), NRFChip.CONFIG(BANK1[1]), 
		 -> NRF_PipeDisableAA@AA(COMMON[1]), NRF_PipeEnableAA@AA(COMMON[1]), NRF_PipeDisable@EN(COMMON[1]), NRF_PipeEnable@EN(COMMON[1]), 
		 -> NRFChip.STATUS(BANK1[1]), NFR_RxPipes(BANK1[36]), NRFChip.AW(BANK1[1]), NRFChip(BANK1[14]), 

    NRF_ReadPayload@Payload	PTR unsigned char  size(1) Largest target is 8
		 -> NRF_Payload(BANK1[8]), 

    p_NRF_SPI_Exchange	PTR FTN(unsigned char ,)unsigned char  size(2) Largest target is 1
		 -> Absolute function(), SPI_Exchange(), 

    NRF_OpenReadingPipe@PipeAddr	PTR unsigned char  size(2) Largest target is 6
		 -> STR_1(CODE[6]), 

    NRF24L01_Init@SPI_Exchange	PTR FTN(unsigned char ,)unsigned char  size(2) Largest target is 1
		 -> SPI_Exchange(), 


Critical Paths under _main in COMMON

    _Appl_Init->_NRF_SetART
    _Appl_Init->_SetPWM1
    _NRF_StartListening->_NRF_Write_Register
    _NRF_SetRFPower->_NRF_Write_Register
    _NRF_SetRFDataRate->_NRF_Write_Register
    _NRF_SetRFChannel->_NRF_Write_Register
    _NRF_SetMaskIRQ->_NRF_Write_Register
    _NRF_SetCRCLen->_NRF_Write_Register
    _NRF_SetAddrWidth->_NRF_Write_Register
    _NRF_SetART->_NRF_Write_Register
    _NRF_OpenReadingPipe->_NRF_PipeEnable
    _NRF_OpenReadingPipe->_NRF_PipeEnableAA
    _NRF_PipeEnableAA->_NRF_Write_Register
    _NRF_PipeEnable->_NRF_Write_Register
    _NRF24L01_Init->_NRF_Set_SPI_Handler
    _APPL_TASK_10MS->_NRF_ReadPayload
    _APPL_TASK_10MS->_SetPWM1
    _deQueue->___lwmod
    _SetPWM1->_deQueue
    _NRF_StatusHandler->_NRF_Read_Register
    _NRF_Read_Register->_SPI_Exchange
    _NRF_ReadPayload->_NRF_Write_Register
    _NRF_Write_Register->___bmul
    _NRF_Available->_NRF_GetStatus
    _NRF_GetStatus->_SPI_Exchange
    _LinearTransiant->___xxtofl
    _enQueue->___lwmod
    ___fltol->___xxtofl
    ___flmul->___xxtofl
    ___fldiv->___xxtofl

Critical Paths under _ISR in COMMON

    None.

Critical Paths under _main in BANK0

    _main->_APPL_TASK_10MS
    _Appl_Init->_NRF_OpenReadingPipe
    _APPL_TASK_10MS->_LinearTransiant
    _LinearTransiant->___fltol
    ___fltol->___flmul

Critical Paths under _ISR in BANK0

    None.

Critical Paths under _main in BANK1

    None.

Critical Paths under _ISR in BANK1

    None.

Critical Paths under _main in BANK2

    None.

Critical Paths under _ISR in BANK2

    None.

Critical Paths under _main in BANK3

    None.

Critical Paths under _ISR in BANK3

    None.

Critical Paths under _main in BANK4

    None.

Critical Paths under _ISR in BANK4

    None.

Critical Paths under _main in BANK5

    None.

Critical Paths under _ISR in BANK5

    None.

Critical Paths under _main in BANK6

    None.

Critical Paths under _ISR in BANK6

    None.

Call Graph Tables:

 ---------------------------------------------------------------------------------
 (Depth) Function   	        Calls       Base Space   Used Autos Params    Refs
 ---------------------------------------------------------------------------------
 (0) _main                                                 6     6      0   72092
                                             55 BANK0      6     6      0
                     _APPL_TASK_10MS
                          _Appl_Init
                           _MCU_Init
                    _Task_LedManager
 ---------------------------------------------------------------------------------
 (1) _Task_LedManager                                      0     0      0       0
 ---------------------------------------------------------------------------------
 (1) _MCU_Init                                             0     0      0       0
 ---------------------------------------------------------------------------------
 (1) _Appl_Init                                            1     1      0   56449
                                             15 BANK0      1     1      0
                      _NRF24L01_Init
                _NRF_OpenReadingPipe
                         _NRF_SetART
                   _NRF_SetAddrWidth
                      _NRF_SetCRCLen
                     _NRF_SetMaskIRQ
                   _NRF_SetRFChannel
                  _NRF_SetRFDataRate
                     _NRF_SetRFPower
                 _NRF_StartListening
                          _QueueInit
                            _SetPWM1
                            _SetPWM2
 ---------------------------------------------------------------------------------
 (2) _SetPWM2                                              4     2      2     120
                                              0 COMMON     4     2      2
 ---------------------------------------------------------------------------------
 (2) _QueueInit                                            0     0      0       0
 ---------------------------------------------------------------------------------
 (2) _NRF_StartListening                                   2     2      0    5846
                                             10 COMMON     2     2      0
                  _NRF_Read_Register
                 _NRF_Write_Register
 ---------------------------------------------------------------------------------
 (2) _NRF_SetRFPower                                       5     5      0    5914
                                             10 COMMON     2     2      0
                                              0 BANK0      3     3      0
                  _NRF_Read_Register
                 _NRF_Write_Register
 ---------------------------------------------------------------------------------
 (2) _NRF_SetRFDataRate                                    3     3      0    5868
                                             10 COMMON     3     3      0
                  _NRF_Read_Register
                 _NRF_Write_Register
 ---------------------------------------------------------------------------------
 (2) _NRF_SetRFChannel                                     5     5      0    3447
                                             10 COMMON     2     2      0
                                              0 BANK0      3     3      0
                 _NRF_Write_Register
 ---------------------------------------------------------------------------------
 (2) _NRF_SetMaskIRQ                                       3     3      0    5890
                                             10 COMMON     3     3      0
                  _NRF_Read_Register
                 _NRF_Write_Register
 ---------------------------------------------------------------------------------
 (2) _NRF_SetCRCLen                                        3     3      0    5868
                                             10 COMMON     3     3      0
                  _NRF_Read_Register
                 _NRF_Write_Register
 ---------------------------------------------------------------------------------
 (2) _NRF_SetAddrWidth                                     5     5      0    3471
                                             10 COMMON     2     2      0
                                              0 BANK0      3     3      0
                 _NRF_Write_Register
 ---------------------------------------------------------------------------------
 (2) _NRF_SetART                                           4     3      1    3499
                                             10 COMMON     4     3      1
                 _NRF_Write_Register
 ---------------------------------------------------------------------------------
 (2) _NRF_OpenReadingPipe                                 15    10      5   16134
                                              0 BANK0     15    10      5
                     _NRF_PipeEnable
                   _NRF_PipeEnableAA
                 _NRF_Write_Register
                             ___bmul
 ---------------------------------------------------------------------------------
 (3) ___bmul                                               4     3      1     196
                                              0 COMMON     4     3      1
 ---------------------------------------------------------------------------------
 (3) _NRF_PipeEnableAA                                     4     4      0    5916
                                             10 COMMON     4     4      0
                  _NRF_Read_Register
                 _NRF_Write_Register
 ---------------------------------------------------------------------------------
 (3) _NRF_PipeEnable                                       4     4      0    5916
                                             10 COMMON     4     4      0
                  _NRF_Read_Register
                 _NRF_Write_Register
 ---------------------------------------------------------------------------------
 (2) _NRF24L01_Init                                        2     0      2     196
                                              2 COMMON     2     0      2
                _NRF_Set_SPI_Handler
 ---------------------------------------------------------------------------------
 (3) _NRF_Set_SPI_Handler                                  2     0      2      98
                                              0 COMMON     2     0      2
 ---------------------------------------------------------------------------------
 (1) _APPL_TASK_10MS                                       2     2      0   15571
                                             53 BANK0      2     2      0
                           _ClickLed
                       _KeepDistance
                    _LinearTransiant
                      _NRF_Available
                    _NRF_ReadPayload
                  _NRF_StatusHandler
                            _SetPWM1
                            _deQueue
                            _enQueue
 ---------------------------------------------------------------------------------
 (2) _deQueue                                              4     4      0     487
                                              6 COMMON     4     4      0
                            _IsEmpty
                            ___lwmod
 ---------------------------------------------------------------------------------
 (3) _IsEmpty                                              0     0      0       0
 ---------------------------------------------------------------------------------
 (2) _SetPWM1                                              4     2      2     196
                                             10 COMMON     4     2      2
                            _deQueue (ARG)
 ---------------------------------------------------------------------------------
 (2) _NRF_StatusHandler                                    5     5      0    3088
                                              7 COMMON     5     5      0
                   Absolute function *
                  _NRF_Read_Register
                       _SPI_Exchange *
 ---------------------------------------------------------------------------------
 (3) _NRF_Read_Register                                    6     4      2    2467
                                              1 COMMON     6     4      2
                   Absolute function *
                       _SPI_Exchange *
 ---------------------------------------------------------------------------------
 (2) _NRF_ReadPayload                                      6     5      1    4130
                                             10 COMMON     4     3      1
                                              0 BANK0      2     2      0
                   Absolute function *
                 _NRF_Write_Register
                       _SPI_Exchange *
 ---------------------------------------------------------------------------------
 (3) _NRF_Write_Register                                   6     4      2    3379
                                              4 COMMON     6     4      2
                   Absolute function *
                       _SPI_Exchange *
                             ___bmul (ARG)
 ---------------------------------------------------------------------------------
 (2) _NRF_Available                                        2     2      0     598
                                              3 COMMON     2     2      0
                      _NRF_GetStatus
 ---------------------------------------------------------------------------------
 (3) _NRF_GetStatus                                        2     2      0     552
                                              1 COMMON     2     2      0
                   Absolute function *
                       _SPI_Exchange *
 ---------------------------------------------------------------------------------
 (4) _SPI_Exchange                                         1     0      1     552
                                              0 COMMON     1     0      1
 ---------------------------------------------------------------------------------
 (4) Absolute function(Fake)                               1     0      1       0
 ---------------------------------------------------------------------------------
 (2) _LinearTransiant                                     16    14      2    6396
                                             37 BANK0     16    14      2
                            ___fldiv
                            ___flmul
                            ___fltol
                           ___xxtofl
                            _enQueue
 ---------------------------------------------------------------------------------
 (2) _enQueue                                              5     5      0     509
                                              6 COMMON     5     5      0
                             _IsFull
                            ___lwmod
 ---------------------------------------------------------------------------------
 (3) ___lwmod                                              6     2      4     463
                                              0 COMMON     6     2      4
 ---------------------------------------------------------------------------------
 (3) _IsFull                                               3     3      0      24
                                              0 COMMON     3     3      0
 ---------------------------------------------------------------------------------
 (3) ___xxtofl                                            14    10      4     778
                                              0 COMMON    14    10      4
 ---------------------------------------------------------------------------------
 (3) ___fltol                                             11     7      4     381
                                             26 BANK0     11     7      4
                            ___flmul (ARG)
                           ___xxtofl (ARG)
 ---------------------------------------------------------------------------------
 (3) ___flmul                                             26    18      8    2569
                                              0 BANK0     26    18      8
                          __Umul8_16
                           ___xxtofl (ARG)
 ---------------------------------------------------------------------------------
 (4) __Umul8_16                                            9     7      2     799
                                              0 COMMON     9     7      2
 ---------------------------------------------------------------------------------
 (3) ___fldiv                                             26    18      8    1425
                                              0 BANK0     26    18      8
                           ___xxtofl (ARG)
 ---------------------------------------------------------------------------------
 (2) _KeepDistance                                         5     5      0      69
                                              0 COMMON     5     5      0
 ---------------------------------------------------------------------------------
 (2) _ClickLed                                             2     0      2      98
                                              0 COMMON     2     0      2
 ---------------------------------------------------------------------------------
 Estimated maximum stack depth 4
 ---------------------------------------------------------------------------------
 (Depth) Function   	        Calls       Base Space   Used Autos Params    Refs
 ---------------------------------------------------------------------------------
 (6) _ISR                                                  0     0      0       0
 ---------------------------------------------------------------------------------
 Estimated maximum stack depth 6
 ---------------------------------------------------------------------------------

 Call Graph Graphs:

 _main (ROOT)
   _APPL_TASK_10MS
     _ClickLed
     _KeepDistance
     _LinearTransiant
       ___fldiv
         ___xxtofl (ARG)
       ___flmul
         __Umul8_16
         ___xxtofl (ARG)
       ___fltol
         ___flmul (ARG)
           __Umul8_16
           ___xxtofl (ARG)
         ___xxtofl (ARG)
       ___xxtofl
       _enQueue
         _IsFull
         ___lwmod
     _NRF_Available
       _NRF_GetStatus
         Absolute function(Fake) *
         _SPI_Exchange *
     _NRF_ReadPayload
       Absolute function(Fake) *
       _NRF_Write_Register *
         Absolute function(Fake) *
         _SPI_Exchange *
         ___bmul (ARG) *
       _SPI_Exchange *
     _NRF_StatusHandler
       Absolute function(Fake) *
       _NRF_Read_Register *
         Absolute function(Fake) *
         _SPI_Exchange *
       _SPI_Exchange *
     _SetPWM1
       _deQueue (ARG)
         _IsEmpty
         ___lwmod
     _deQueue
       _IsEmpty
       ___lwmod
     _enQueue
       _IsFull
       ___lwmod
   _Appl_Init
     _NRF24L01_Init
       _NRF_Set_SPI_Handler
     _NRF_OpenReadingPipe
       _NRF_PipeEnable
         _NRF_Read_Register
           Absolute function(Fake) *
           _SPI_Exchange *
         _NRF_Write_Register
           Absolute function(Fake) *
           _SPI_Exchange *
           ___bmul (ARG) *
       _NRF_PipeEnableAA
         _NRF_Read_Register
           Absolute function(Fake) *
           _SPI_Exchange *
         _NRF_Write_Register
           Absolute function(Fake) *
           _SPI_Exchange *
           ___bmul (ARG) *
       _NRF_Write_Register
         Absolute function(Fake) *
         _SPI_Exchange *
         ___bmul (ARG) *
       ___bmul
     _NRF_SetART
       _NRF_Write_Register
         Absolute function(Fake) *
         _SPI_Exchange *
         ___bmul (ARG) *
     _NRF_SetAddrWidth
       _NRF_Write_Register
         Absolute function(Fake) *
         _SPI_Exchange *
         ___bmul (ARG) *
     _NRF_SetCRCLen
       _NRF_Read_Register
         Absolute function(Fake) *
         _SPI_Exchange *
       _NRF_Write_Register
         Absolute function(Fake) *
         _SPI_Exchange *
         ___bmul (ARG) *
     _NRF_SetMaskIRQ
       _NRF_Read_Register
         Absolute function(Fake) *
         _SPI_Exchange *
       _NRF_Write_Register
         Absolute function(Fake) *
         _SPI_Exchange *
         ___bmul (ARG) *
     _NRF_SetRFChannel
       _NRF_Write_Register
         Absolute function(Fake) *
         _SPI_Exchange *
         ___bmul (ARG) *
     _NRF_SetRFDataRate
       _NRF_Read_Register
         Absolute function(Fake) *
         _SPI_Exchange *
       _NRF_Write_Register
         Absolute function(Fake) *
         _SPI_Exchange *
         ___bmul (ARG) *
     _NRF_SetRFPower
       _NRF_Read_Register
         Absolute function(Fake) *
         _SPI_Exchange *
       _NRF_Write_Register
         Absolute function(Fake) *
         _SPI_Exchange *
         ___bmul (ARG) *
     _NRF_StartListening
       _NRF_Read_Register
         Absolute function(Fake) *
         _SPI_Exchange *
       _NRF_Write_Register
         Absolute function(Fake) *
         _SPI_Exchange *
         ___bmul (ARG) *
     _QueueInit
     _SetPWM1
       _deQueue (ARG)
         _IsEmpty
         ___lwmod
     _SetPWM2
   _MCU_Init
   _Task_LedManager

 _ISR (ROOT)

 Address spaces:
Name               Size   Autos  Total    Cost      Usage
BIGRAM             1F0      0       0       0        0.0%
NULL                 0      0       0       0        0.0%
CODE                 0      0       0       0        0.0%
BITCOMMON            E      0       0       1        0.0%
BITSFR0              0      0       0       1        0.0%
SFR0                 0      0       0       1        0.0%
COMMON               E      E       E       2      100.0%
BITSFR1              0      0       0       2        0.0%
SFR1                 0      0       0       2        0.0%
BITSFR2              0      0       0       3        0.0%
SFR2                 0      0       0       3        0.0%
STACK                0      0       0       3        0.0%
BITSFR3              0      0       0       4        0.0%
SFR3                 0      0       0       4        0.0%
ABS                  0      0      95       4        0.0%
BITBANK0            50      0       0       5        0.0%
BITSFR4              0      0       0       5        0.0%
SFR4                 0      0       0       5        0.0%
BANK0               50     3D      4D       6       96.2%
BITSFR5              0      0       0       6        0.0%
SFR5                 0      0       0       6        0.0%
BITBANK1            50      0       0       7        0.0%
BITSFR6              0      0       0       7        0.0%
SFR6                 0      0       0       7        0.0%
BANK1               50      0      3A       8       72.5%
BITSFR7              0      0       0       8        0.0%
SFR7                 0      0       0       8        0.0%
BITBANK2            50      0       0       9        0.0%
BITSFR8              0      0       0       9        0.0%
SFR8                 0      0       0       9        0.0%
BANK2               50      0       0      10        0.0%
BITSFR9              0      0       0      10        0.0%
SFR9                 0      0       0      10        0.0%
BITBANK3            50      0       0      11        0.0%
BITSFR10             0      0       0      11        0.0%
SFR10                0      0       0      11        0.0%
BITSFR11             0      0       0      12        0.0%
SFR11                0      0       0      12        0.0%
BANK3                0      0       0      12        0.0%
BITBANK4            50      0       0      13        0.0%
BITSFR12             0      0       0      13        0.0%
SFR12                0      0       0      13        0.0%
BITSFR13             0      0       0      14        0.0%
SFR13                0      0       0      14        0.0%
BANK4                0      0       0      14        0.0%
BITBANK5            50      0       0      15        0.0%
BITSFR14             0      0       0      15        0.0%
SFR14                0      0       0      15        0.0%
BITSFR15             0      0       0      16        0.0%
SFR15                0      0       0      16        0.0%
BANK5                0      0       0      16        0.0%
BITBANK6            10      0       0      17        0.0%
BITSFR16             0      0       0      17        0.0%
SFR16                0      0       0      17        0.0%
BITSFR17             0      0       0      18        0.0%
SFR17                0      0       0      18        0.0%
BANK6                0      0       0      18        0.0%
BITSFR18             0      0       0      19        0.0%
SFR18                0      0       0      19        0.0%
DATA                 0      0      95      19        0.0%
BITSFR19             0      0       0      20        0.0%
SFR19                0      0       0      20        0.0%
BITSFR20             0      0       0      21        0.0%
SFR20                0      0       0      21        0.0%
BITSFR21             0      0       0      22        0.0%
SFR21                0      0       0      22        0.0%
BITSFR22             0      0       0      23        0.0%
SFR22                0      0       0      23        0.0%
BITSFR23             0      0       0      24        0.0%
SFR23                0      0       0      24        0.0%
BITSFR24             0      0       0      25        0.0%
SFR24                0      0       0      25        0.0%
BITSFR25             0      0       0      26        0.0%
SFR25                0      0       0      26        0.0%
BITSFR26             0      0       0      27        0.0%
SFR26                0      0       0      27        0.0%
BITSFR27             0      0       0      28        0.0%
SFR27                0      0       0      28        0.0%
BITSFR28             0      0       0      29        0.0%
SFR28                0      0       0      29        0.0%
BITSFR29             0      0       0      30        0.0%
SFR29                0      0       0      30        0.0%
BITSFR30             0      0       0      31        0.0%
SFR30                0      0       0      31        0.0%
BITSFR31             0      0       0      32        0.0%
SFR31                0      0       0      32        0.0%


Microchip Technology PIC Macro Assembler V2.31 build 20201012212115 
Symbol Table                                                                                   Mon Mar 29 23:50:46 2021

                    ___fldiv@aexp 0039                      ___fldiv@bexp 0038                      ___fldiv@sign 0031  
              ??_NRF_SetAddrWidth 007A                    ___bmul@product 0072           NRF_Write_Register@Bytes 0074  
                              l63 0F53                                l49 0984                                l90 0B66  
                              l75 0A9A                                l91 0B79                                l84 0A58  
                              l69 0A79                                l98 0D01               __Umul8_16@word_mpld 0076  
        NRF_Write_Register@Length 0075                               l101 0B2A                               l111 0A1A  
                             l121 09D2                               l114 0A38                               l107 0C48  
                             l124 09BD                               l132 0DB4                               l108 0C5F  
                             l301 0BD0                               l133 0DC2                               l150 0C2B  
                             l311 0B51                               l151 0C2E                               l127 0B04  
                             l240 0979                               l144 0BFB                               l304 0990  
                             l145 0BFE                               l225 09E7                               l162 0CCA  
                             l322 0D40                               l219 0BA4                               l316 0D81  
                             l228 07F7                               l237 0974                               l158 0CA2  
                             l335 076D                               l168 0970                               l344 0ABC  
                             l347 07FF                               l620 07E2                               l452 09FC  
                             l293 0E10                               l630 07E2                               l358 0EB9  
                             l296 09AA                               l627 07CD                               l804 0613  
                             l716 0C93                               l805 062D                               l807 063C  
                             l823 0291                               l842 0ACF                               l835 0285  
                             l844 0ADF                               l829 020D                               l783 04E9  
                             l880 0FCB                               l785 0645                               l881 0FD7  
                             l873 0FB1                               l867 0F76                               l869 0FFF  
                             l799 05C7                 ?_NRF_PipeEnableAA 0070                               _PR2 001B  
                             _ISR 0004                  SPI_Exchange@Data 0070          NRF_Write_Register@Status 0079  
      __size_of_NRF_Read_Register 0030                      main@Task10ms 0057                               wreg 0009  
              ??_NRF_PipeEnableAA 007A                      ___flmul@aexp 0032                      ___flmul@bexp 0033  
                    ___flmul@sign 002D                      ___flmul@temp 0038                      ___flmul@prod 0034  
                  _Click_Duration 0065                     _NRF24L01_Init 097A                              ?_ISR 0070  
                    ___fltol@exp1 0044                              l2010 0540                              l2002 0518  
                            l2020 055A                              l2012 0542                              l2004 0528  
                            l2100 0054                              l2014 0547                              l2022 0561  
                            l2030 0580                              l2006 0530                              l2110 006F  
                            l2102 005C                              l2040 059B                              l2032 0586  
                            l2024 0573                              l2016 0555                              l2008 0538  
                            l2200 021F                              l2120 0086                              l2112 0073  
                            l2104 005E                              l2050 05AC                              l2042 059C  
                            l2034 058E                              l2026 0574                              l2018 0559  
                            l2210 0256                              l2202 0223                              l2122 0088  
                            l2114 0074                              l2106 0066                              l2060 05D1  
                            l2052 05B0                              l2044 05A3                              l2036 0590  
                            l2028 057C                              l2220 0280                              l2212 0264  
                            l2204 023B                              l2140 00E4                              l2132 00A3  
                            l2124 0090                              l2116 0079                              l2108 006B  
                            l2300 0F17                              l2070 0606                              l2062 05D9  
                            l2054 05C4                              l2038 0597                              l2046 05A7  
                            l2222 0281                              l2214 026D                              l2206 023F  
                            l2150 012C                              l2142 00FE                              l2134 00B0  
                            l2126 0095                              l2118 007E                              l2230 0F5A  
                            l2302 0F1F                              l2310 0A44                              l2080 0636  
                            l2072 0621                              l2064 05DD                              l2048 05AB  
                            l2224 0289                              l2216 026F                              l2208 024C  
                            l2160 0162                              l2152 0133                              l2144 010B  
                            l2136 00BD                              l2128 009A                              l2240 0F87  
                            l2232 0F5E                              l2304 0F23                              l2312 0A4A  
                            l2320 0B6B                              l2082 0638                              l2074 0624  
                            l2066 05F5                              l2058 05CC                              l2218 027C  
                            l2170 01C3                              l2162 0176                              l2154 0140  
                            l2146 0118                              l2138 00D7                              l2090 0041  
                            l2250 0FAA                              l2242 0F8C                              l2234 0F6E  
                            l2402 0CB1                              l2306 0F39                              l2314 0B54  
                            l2330 0CEA                              l2322 0CCD                              l2410 07E3  
                            l2420 0B44                              l2076 062C                              l2068 05F9  
                            l2180 01E2                              l2172 01CA                              l2164 0183  
                            l2156 0147                              l2148 011F                              l2092 0045  
                            l2260 0FD9                              l2252 0FB8                              l2244 0F97  
                            l2236 0F7E                              l2228 0F55                              l2340 0C31  
                            l2308 0A3A                              l2316 0B5A                              l2332 0CF3  
                            l2324 0CD7                              l2412 099D                              l2500 0B8C  
                            l2422 0B4F                              l2414 0B2C                              l2078 0632  
                            l2190 01F6                              l2182 01E9                              l2174 01D6  
                            l2166 0197                              l2158 015B                              l2094 0049  
                            l2262 0FED                              l2254 0FC1                              l2246 0F9E  
                            l2430 0D03                              l2350 09FE                              l2342 0C3B  
                            l2318 0B62                              l2334 0B06                              l2326 0CDE  
                            l2510 0B99                              l2502 0B8F                              l2424 0B50  
                            l2416 0B2E                              l2192 020A                              l2176 01DD  
                            l2184 01ED                              l2168 01AC                              l2096 004A  
                            l2088 003B                              l2264 0FF2                              l2256 0FC5  
                            l2248 0FA2                              l1800 0C00                              l2408 09D3  
                            l2432 0D0B                              l2440 0D3F                              l2272 097A  
                            l2280 0EC3                              l2352 0A0C                              l2344 0C41  
                            l2336 0B10                              l2328 0CE6                              l2360 0A36  
                            l2520 0BA2                              l2512 0B9B                              l2504 0B91  
                            l2600 0E56                              l2418 0B3D                              l2186 01F1  
                            l2178 01E1                              l2098 004F                              l2266 0FF6  
                            l2258 0FCF                              l2450 065A                              l2370 09CF  
                            l2362 09BF                              l1810 0C2D                              l1802 0C02  
                            l2434 0D1A                              l2274 0981                              l2290 0EFD  
                            l2282 0ED3                              l2346 0C44                              l2338 0B1C  
                            l2354 0A1B                              l2530 0DDF                              l2522 0BA3  
                            l2514 0B9E                              l2506 0B94                              l2196 0212  
                            l2188 01F2                              l2268 0FF7                              l1820 0BBE  
                            l2460 06D6                              l2452 0693                              l2444 0648  
                            l2372 09D1                              l2364 09C0                              l1804 0C10  
                            l2436 0D24                              l2428 0D02                              l2276 0983  
                            l1900 09EA                              l2292 0F02                              l2284 0ED5  
                            l2348 0C51                              l2380 0AF1                              l2356 0A25  
                            l2540 0E00                              l2532 0DE3                              l2524 0DC3  
                            l2516 0BA0                              l2508 0B97                              l2198 0217  
                            l1822 0BCE                              l1814 0BA5                              l1830 0C66  
                            l2470 0723                              l2462 06DC                              l2454 0696  
                            l2446 064E                              l2366 09C3                              l2390 0DAA  
                            l2382 0D84                              l1806 0C20                              l2438 0D2D  
                            l1902 09EE                              l2294 0F06                              l2286 0EF3  
                            l2278 0EBC                              l2358 0A27                              l2542 0E09  
                            l2534 0DE7                              l2526 0DC5                              l2518 0BA1  
                            l2550 0AA2                              l2480 07F8                              l1920 0796  
                            l1912 076E                              l1824 0BCF                              l1816 0BA7  
                            l1840 0C80                              l1832 0C69                              l2472 075A  
                            l2456 06CD                              l2448 0654                              l2464 06E1  
                            l2368 09CB                              l2392 0DAE                              l2384 0D86  
                            l1808 0C24                              l2560 0E5F                              l1904 09F2  
                            l2296 0F0C                              l2288 0EF7                              l2376 0AE1  
                            l2544 0E0D                              l2536 0DEB                              l2528 0DDB  
                            l2552 0AA4                              l2482 07FB                              l1850 0ABE  
                            l1922 0797                              l1914 077A                              l1818 0BB8  
                            l1842 0C84                              l1834 0C6E                              l2474 075E  
                            l2466 06E7                              l2458 06D1                              l2394 0DB8  
                            l2386 0D94                              l2570 0E8D                              l2562 0E68  
                            l1906 09F4                              l2298 0F10                              l2378 0AEB  
                            l2538 0DEF                              l2490 0B82                              l2554 0AAC  
                            l2546 0A9B                              l1860 0ADB                              l1852 0AC0  
                            l1924 079F                              l1844 0C89                              l1836 0C72  
                            l1828 0C60                              l2476 0763                              l2468 0720  
                            l2388 0D97                              l2396 0C94                              l2564 0E6F  
                            l2572 0E93                              l1908 09FB                              l2492 0B83  
                            l2484 0B7A                              l2556 0AB6                              l2548 0AA1  
                            l2580 0E11                              l1950 0498                              l1854 0AC7  
                            l1942 07C4                              l1934 07AD                              l1926 07A1  
                            l1918 0783                              l1838 0C76                              l1846 0C8F  
                            l2478 0769                              l1790 0BF0                              l1782 0BD2  
                            l2398 0CA6                              l2574 0E96                              l2566 0E78  
                            l1870 0A6F                              l2494 0B85                              l2486 0B7D  
                            l2558 0ABB                              l2590 0E32                              l2582 0E1E  
                            l1960 04AB                              l1952 049C                              l1856 0ACB  
                            l1944 07D2                              l1928 07A5                              l1936 07BD  
                            l1776 0971                              l1880 09AD                              l1792 0BF4  
                            l1784 0BD2                              l2672 0CBF                              l2576 0E9F  
                            l2568 0E80                              l1864 096B                              l1872 0A7B  
                            l2496 0B88                              l2488 0B80                              l2592 0E38  
                            l2584 0E21                              l1970 04C3                              l1962 04B3  
                            l1954 04A0                              l1858 0AD6                              l1946 07D7  
                            l1890 0D42                              l1778 0978                              l1882 09BB  
                            l1794 0BFD                              l1786 0BD4                              l2578 0EA4  
                            l1866 0A5A                              l1874 0A85                              l2498 0B8A  
                            l2594 0E3B                              l2586 0E24                              l1980 04D6  
                            l1972 04C7                              l1964 04B4                              l1956 04A1  
                            l1948 0492                              l1892 0D4A                              l1788 0BE3  
                            l1868 0A64                              l1876 0A90                              l2596 0E46  
                            l2588 0E27                              l1990 04FD                              l1982 04DE  
                            l1974 04CB                              l1958 04A6                              l1966 04B6  
                            l1894 0D5B                              l1878 09AB                              l1798 0C00  
                            l1886 0985                              l2598 0E4C                              l1992 0501  
                            l1984 04DF                              l1976 04CC                              l1968 04BE  
                            l1896 0D6D                              l1978 04D1                              l1986 04E1  
                            l1898 09E9                              l1988 04F1                              l1996 050A  
                            l1998 050F                              STR_1 1000                              u2000 0049  
                            u2001 0048                              u2010 004F                              u2011 004E  
                            u2100 01A2                              u2020 0054                              u2021 0053  
                            u2110 01B9                              u2030 0073                              u2031 0072  
                            u2200 0217                              u2040 0079                              u1400 0BB8  
                            u2201 0216                              u2105 019E                              u2041 0078  
                            u1401 0BB7                              u2210 0223                              u2050 007E  
                            u1410 0BBE                              u2211 0222                              u2115 01B5  
                            u2051 007D                              u1411 0BBD                              u2220 0231  
                            u2140 01E1                              u2060 0095                              u2300 0F9D  
                            u1420 0BCE                              u2141 01E0                              u2125 01C4  
                            u2061 0094                              u2301 0F9C                              u1421 0BCD  
                            u1405 0BB4                              u1510 0ADB                              u2230 024C  
                            u2070 009A                              u1430 0C66                              u1511 0ADA  
                            u2231 024B                              u2135 01D7                              u2071 0099  
                            u1431 0C65                              u2240 0264                              u2160 01F1  
                            u2320 0FB7                              u1600 09FB                              u2400 0EFD  
                            u1505 0AD0                              u2241 0263                              u2225 022D  
                            u2161 01F0                              u2321 0FB6                              u1425 0BCA  
                            u1601 09FA                              u2401 0EFC                              u2250 0280  
                            u2170 01F6                              u1610 077A                              u1450 0C76  
                            u1370 0978                              u2410 0F02                              u2251 027F  
                            u2235 0248                              u2171 01F5                              u2155 01E3  
                            u1611 0779                              u2315 0FAB                              u1451 0C75  
                            u1371 0977                              u2411 0F01                              u2180 020A  
                            u1700 07D7                              u1620 0790                              u2340 0FC5  
                            u2260 0F5A                              u1460 0C80                              u2500 09CF  
                            u1380 0BFB                              u1540 098F                              u1524 0A69  
                            u2420 0F0C                              u2245 0260                              u2181 0209  
                            u2085 0119                              u1701 07D6                              u2341 0FC4  
                            u2261 0F59                              u1461 0C7F                              u1445 0C6A  
                            u2501 09CE                              u1381 0BFA                              u1541 098D  
                            u1525 0A68                              u2421 0F0B                              u1710 04A0  
                            u2190 0211                              u1630 07A5                              u2350 0FCB  
                            u2270 0F5E                              u2510 0DB4                              u1390 0C2B  
                            u1550 0990                              u1534 0A8A                              u2430 0F17  
                            u1711 049F                              u2191 0210                              u2095 0148  
                            u1631 07A4                              u2351 0FCA                              u2335 0FBB  
                            u2271 0F5D                              u2511 0DB3                              u1391 0C2A  
                            u1535 0A89                              u2431 0F16                              u1720 04A6  
                            u1640 07AC                              u2360 0FCF                              u2280 0F7E  
                            u1480 0C8F                              u1560 0D4A                              u2600 064E  
                            u2520 0CA6                              u2440 0B5A                              u1721 04A5  
                            u1641 07AB                              u1625 078C                              u2361 0FCE  
                            u2281 0F7D                              u1481 0C8E                              u1465 0C7C  
                            u1561 0D49                              u2601 064D                              u2521 0CA5  
                            u2441 0B59                              u1730 04AB                              u1490 0ACB  
                            u2370 0FE3                              u1570 0D54                              u2610 0654  
                            u2450 0CDE                              u1731 04AA                              u1491 0ACA  
                            u1475 0C85                              u1571 0D52                              u2611 0653  
                            u2451 0CDD                              u1900 05AB                              u1820 0559  
                            u1740 04CB                              u1660 07BC                              u2380 0FF2  
                            u1580 0D55                              u2620 06DC                              u2460 0C37  
                            u2700 0E32                              u1901 05AA                              u1821 0558  
                            u1805 0548                              u1741 04CA                              u1661 07BB  
                            u2381 0FF1                              u2621 06DB                              u2461 0C35  
                            u2701 0E31                              u1910 05B0                              u1750 04D1  
                            u1670 07C3                              u2390 0FF6                              u2630 0769  
                            u1590 09EE                              u2470 0C38                              u2710 0E46  
                            u1911 05AF                              u1815 054F                              u1751 04D0  
                            u1671 07C2                              u1655 07AE                              u2391 0FF5  
                            u2375 0FDF                              u2295 0F91                              u2631 0768  
                            u2535 0CB4                              u1591 09ED                              u2711 0E45  
                            u2560 0B3D                              u1920 05C4                              u1840 0573  
                            u1760 04D6                              u2480 0C41                              u2640 0AA1  
                            u2720 0E56                              u2561 0B3C                              u1921 05C3  
                            u1841 0572                              u1761 04D5                              u2545 09D6  
                            u2481 0C40                              u2641 0AA0                              u2721 0E55  
                            u2705 0E2E                              u2570 0B4F                              u1930 05CB  
                            u1850 0586                              u1770 04F1                              u1690 07D2  
                            u2490 09CB                              u2650 0AB6                              u2571 0B4E  
                            u1931 05CA                              u1851 0585                              u1835 055B  
                            u1771 04F0                              u1691 07D1                              u2491 09CA  
                            u2555 07E6                              u2651 0AB5                              u2715 0E42  
                            u1940 05D1                              u1860 058E                              u1780 050F  
                            u2580 0D0B                              u2660 0ABB                              u2565 0B39  
                            u1941 05D0                              u1861 058D                              u1845 056F  
                            u1781 050E                              u1685 07C5                              u2581 0D0A  
                            u2661 0ABA                              u2725 0E52                              u1950 05DD  
                            u1790 0547                              u2590 0D24                              u2670 0E68  
                            u2575 0B4B                              u1951 05DC                              u1791 0546  
                            u2591 0D23                              u2671 0E67                              u2655 0AB2  
                            u1960 05EB                              u1880 059B                              u2680 0E80  
                            u1881 059A                              u2681 0E7F                              u1970 0606  
                            u2690 0E9F                              u1971 0605                              u1875 0591  
                            u2595 0D20                              u2691 0E9E                              u1980 0621  
                            u1981 0620                              u1965 05E7                              u1990 0636  
                            u1991 0635                              u1975 0602                              u1895 059D  
                            u1985 061D                              _TMR0 0015                              _main 0E11  
                            fsr0h 0005                              fsr1h 0007                              indf0 0000  
                            fsr0l 0004                              indf1 0001                              fsr1l 0006  
                            btemp 007E                     main@Task100ms 0059                              start 0014  
                 ___fldiv@new_exp 0032                 ___bmul@multiplier 0073                   __end_of_IsEmpty 0991  
                           ??_ISR 0070                   __end_of_SetPWM1 09E8                   __end_of_SetPWM2 07F8  
                      _IsFull$564 0072                     ___fltol@sign1 0043                             ?_main 0070  
                ?_Task_LedManager 0070                   __end_of___fldiv 0646                   __end_of___flmul 0292  
                 __end_of___fltol 07E3                             _T2CON 001C                  __end_of_MCU_Init 0BA5  
                           i1l234 0012                   __end_of___lwmod 0C94                   __end_of_deQueue 0D41  
                     ?_NRF_SetART 007A                             _TRISA 008C                             _TRISB 008D  
                           _TRISC 008E                             _Click 006A                   __end_of_enQueue 0D82  
                  ?_NRF24L01_Init 0072                             _gamma 0292      __size_of_NRF_Set_SPI_Handler 0006  
                  main@Task1000ms 005B                             pclath 000A                             status 0003  
  NRF_Set_SPI_Handler@SPI_Handler 0070                             wtemp0 007E                  __end_of_ClickLed 0800  
      __size_of_NRF_SetRFDataRate 0026                   __initialization 0016                      __end_of_main 0E5F  
            __end_of_KeepDistance 0B52         NRF_StatusHandler@NRF_Fifo 007B                            ??_main 007E  
        __size_of_LinearTransiant 0128                __size_of_Appl_Init 004E              NRF_PipeEnable@PipeNo 007C  
         __size_of_NRF_SetRFPower 0037                            _ANSELA 018C                            _ANSELB 018D  
                          _ANSELC 018E             __end_of_NRF_Available 09D3                    enQueue@element 007A  
          NRF_ReadPayload@Payload 0020                            i1l2650 0011                            i1l2646 0006  
                          i1l2648 000A             __end_of_NRF_GetStatus 09BE                            u276_20 000A  
                          u276_21 0009           __size_of_NRF_PipeEnable 0021                            _OSCCON 0099  
                          _TMR0IF 005A                         ??_IsEmpty 0070                  __end_of___xxtofl 1000  
         __size_of_NRF_SetMaskIRQ 0025                            _IsFull 0BA5                         ??_SetPWM1 007C  
                       ??_SetPWM2 0072                  NRF_PipeEnable@EN 007D               __size_of_NRF_SetART 001E  
                          ___bmul 09E8             __end_of_NRF_SetCRCLen 0A59                         ??___fldiv 0028  
                       ??___flmul 0028                         ??___fltol 003E                _p_NRF_SPI_Exchange 006B  
                       ??___lwmod 0074                         ??_deQueue 0076           __size_of_APPL_TASK_10MS 005B  
                       ??_enQueue 0076              NRF_SetRFPower@RF_Pow 0022       __size_of_NRF_Write_Register 002E  
                 ??_NRF24L01_Init 0074                __size_of__Umul8_16 0023         NRF_SetRFDataRate@Datarate 007C  
              __size_of_QueueInit 000E       NRF_OpenReadingPipe@PipeAddr 0020                _NRF_StartListening 0A1B  
                    ___xxtofl@arg 007A                      ___xxtofl@exp 0079                      ___xxtofl@val 0070  
         __end_of__initialization 0037               ?_NRF_StartListening 0070                        ___fltol@f1 003A  
               __end_of_Appl_Init 0E11                         ?_MCU_Init 0070               ___bmul@multiplicand 0070  
      NRF_Write_Register@Register 0078                    __pcstackCOMMON 0070         __size_of_NRF_SetRFChannel 0028  
                   __end_of_gamma 0492              ??_NRF_StartListening 007A         __size_of_NRF_SetAddrWidth 0031  
                       ?_ClickLed 0070      NRF_SetAddrWidth@AddressWidth 0022                 ??_LinearTransiant 0047  
                      __pbssBANK0 005D                        __pbssBANK1 00A0          __size_of_NRF_ReadPayload 0041  
    __size_of_NRF_OpenReadingPipe 009A                    _CircularBuffer 20F0         __size_of_NRF_PipeEnableAA 0021  
                         ?_IsFull 0070                        ??_MCU_Init 0070                 __end_of__Umul8_16 0AE0  
             NRF_Available@PipeNo 0073                        __pmaintext 0E11             __size_of_KeepDistance 0027  
               __end_of_QueueInit 09AB                           ?___bmul 0070               _NRF_Set_SPI_Handler 096B  
                      __pintentry 0004                      ??_NRF_SetART 007B                         ?___xxtofl 0070  
                      ??_ClickLed 0072           LinearTransiant@OldValue 0045           LinearTransiant@NewValue 0054  
                         _PWM1DCH 0612                           _PWM1DCL 0611                           _NRFChip 00C4  
                         _PWM2DCH 0615                           _PWM2DCL 0614                           _PWM1CON 0613  
                         _PWM2CON 0616              ?_NRF_Set_SPI_Handler 0070                  LinearTransiant@a 0052  
                         _SSP1BUF 0211                  LinearTransiant@i 0053                    _NRF_SetRFPower 0CCB  
      NRF_SetRFChannel@RF_Channel 0022                    _NRF_PipeEnable 0A59                      _KeepDistance 0B2B  
                  _NRF_SetMaskIRQ 0AE0                           _IsEmpty 0985                           _SetPWM1 09D3  
                         _SetPWM2 07E3                   __size_of_IsFull 002C                           _MyQueue 005D  
              __end_of_NRF_SetART 0A1B                   __size_of___bmul 0015                           ___fldiv 0492  
                         ___flmul 003B                           ___fltol 076E                    _APPL_TASK_10MS 0E5F  
                         ___lwmod 0C60                           _deQueue 0D02                           _enQueue 0D41  
                KeepDistance@diff 0071                           __ptext1 0A9B                           __ptext2 0B7A  
                         __ptext3 0DC3                           __ptext4 07E3                           __ptext5 099D  
                         __ptext6 0A1B                           __ptext7 0CCB                           __ptext8 0B05  
                         __ptext9 0B52                      __size_of_ISR 0010                        ??___xxtofl 0074  
          __end_of_NRF_SetRFPower 0D02             ??_NRF_Set_SPI_Handler 0072            __end_of_NRF_PipeEnable 0A7A  
        __size_of_Task_LedManager 0022                           clrloop0 0992              end_of_initialization 0037  
          __end_of_NRF_SetMaskIRQ 0B05        NRF_StatusHandler@StatusReg 007A            APPL_TASK_10MS@OldValue 0069  
        NRF_Available@IsAvailable 0074                 ??_NRF_ReadPayload 007B            __end_of_APPL_TASK_10MS 0EBA  
                _NRF_SetRFChannel 0B52              _NRF_SetRFChannel$313 0020                  _NRF_SetAddrWidth 0C2F  
                   ___xxtofl@sign 0078                   ?_NRF_SetRFPower 0070                   NRF_SetART@delay 007A  
                 NRF_SetART@count 007D                       ___fldiv@grs 0034                       ___fldiv@rem 002D  
                 ?_NRF_PipeEnable 0070                   ?_NRF_SetMaskIRQ 0070             NRF_OpenReadingPipe@AW 002C  
                     ___flmul@grs 002E                  _NRF_PipeEnableAA 0A7A                  SetPWM1@DutyCycle 007A  
                   ?_SPI_Exchange 0070                    __end_of_IsFull 0BD1                   ?_APPL_TASK_10MS 0070  
                SetPWM2@DutyCycle 0070                 __size_of_MCU_Init 002B                         _Appl_Init 0DC3  
      __end_of_NRF_Write_Register 0BFF                    __end_of___bmul 09FD               _NRF_OpenReadingPipe 0EBA  
          __size_of_NRF_Available 0015            __size_of_NRF_GetStatus 0013                   _LinearTransiant 0646  
             start_initialization 0016                       __end_of_ISR 0014             __end_of_NRF24L01_Init 0985  
       NRF24L01_Init@SPI_Exchange 0072                 __size_of_ClickLed 0008            __size_of_NRF_SetCRCLen 0020  
            ?_NRF_OpenReadingPipe 0020                 ??_Task_LedManager 0070                    ??_SPI_Exchange 0071  
                        ??_IsFull 0070            NRF_PipeEnableAA@PipeNo 007C                          ??___bmul 0071  
                      ?_Appl_Init 0070                         __Umul8_16 0ABD        NRF_OpenReadingPipe@AutoAck 0023  
                       _QueueInit 099D       __size_of_NRF_StartListening 001E                         ___fldiv@a 0020  
                       ___fldiv@b 0024                       __pbssBIGRAM 20F0                         ___flmul@a 0024  
                       ___flmul@b 0020                         ___latbits 0002                     __pcstackBANK0 0020  
               __size_of___xxtofl 00AC             ??_NRF_OpenReadingPipe 0025                     _NRF_Available 09BE  
                   _NRF_GetStatus 09AB                          ?_IsEmpty 0070                         __pnvBANK0 006B  
                        ?_SetPWM1 007A                          ?_SetPWM2 0070           __end_of_LinearTransiant 076E  
              KeepDistance@amount 0073                          ?___fldiv 0020                          ?___flmul 0020  
                        ?___fltol 003A                KeepDistance@retVal 0074                        ?__Umul8_16 0070  
               _NRF_StatusHandler 0C94                          ?___lwmod 0070                     _NRF_SetCRCLen 0A39  
                        ?_deQueue 0070                        ?_QueueInit 0070                          ?_enQueue 0070  
              ?_NRF_StatusHandler 0070                    deQueue@element 0079               ??_NRF_StatusHandler 0077  
        __end_of_NRF_SetRFChannel 0B7A                   _NRF_ReadPayload 0D82                    ?_NRF_Available 0070  
                  ?_NRF_GetStatus 0070                          _LATCbits 010E         NRF_Read_Register@Register 0075  
                       clear_ram0 0991                          _MCU_Init 0B7A          __end_of_NRF_SetAddrWidth 0C60  
       __end_of_NRF_StatusHandler 0CCB           _NRF_OpenReadingPipe$285 002A                          _SSP1CON1 0215  
                  ?_NRF_SetCRCLen 0070                       ??_Appl_Init 002F                          _SSP1STAT 0214  
                ??_NRF_SetRFPower 007A          __end_of_NRF_PipeEnableAA 0A9B       __end_of_NRF_Set_SPI_Handler 0971  
            NRF_OpenReadingPipe@i 002D                  ??_NRF_PipeEnable 007A              __end_of_SPI_Exchange 097A  
                ??_NRF_SetMaskIRQ 007A                          _ClickLed 07F8            Task_LedManager@Timeout 0063  
         NRF_Read_Register@Length 0072      NRF_ReadPayload@PayloadLength 007A                NRF_PipeEnableAA@AA 007D  
                ??_APPL_TASK_10MS 0055           NRF_Read_Register@Status 0076       LinearTransiant@Duration10ms 0046  
                __size_of_IsEmpty 000C                          _Tick_1ms 0067                  __size_of_SetPWM1 0015  
                __size_of_SetPWM2 0015         NRF_OpenReadingPipe@Enable 0024                  ?_LinearTransiant 0045  
                     ??__Umul8_16 0072         NRF_OpenReadingPipe@PipeNo 002E                  __size_of___fldiv 01B4  
                __size_of___flmul 0257                  __size_of___fltol 0075                       ??_QueueInit 0070  
                __size_of___lwmod 0034                  __size_of_deQueue 003F                  __size_of_enQueue 0041  
         __end_of_NRF_ReadPayload 0DC3                          ___xxtofl 0F54                   _Task_LedManager 0A9B  
              _NRF_Write_Register 0BD1                          __ptext10 0AE0                          __ptext11 0A39  
                        __ptext20 0E5F                          __ptext12 0C2F                          __ptext21 0D02  
                        __ptext13 09FD                          __ptext30 0971                          __ptext22 0985  
                        __ptext14 0EBA                          __ptext31 0646                          __ptext23 09D3  
                        __ptext15 09E8                          __ptext40 0B2B                          __ptext32 0D41  
                        __ptext24 0C94                          __ptext16 0A7A                          __ptext41 07F8  
                        __ptext33 0C60                          __ptext25 0BFF                          __ptext17 0A59  
                        __ptext34 0BA5                          __ptext26 0D82                          __ptext18 097A  
                        __ptext35 0F54                          __ptext27 0BD1                          __ptext19 096B  
                        __ptext36 076E                          __ptext28 09BE                          __ptext37 003B  
                        __ptext29 09AB                          __ptext38 0ABD                          __ptext39 0492  
               _NRF_Read_Register 0BFF                   ??_NRF_Available 0073                ClickLed@DurationMs 0070  
                 ??_NRF_GetStatus 0071                ?_NRF_Read_Register 0071               ?_NRF_Write_Register 0074  
                   __size_of_main 004E               ??_NRF_Read_Register 0073                   ??_NRF_SetCRCLen 007A  
      __size_of_NRF_StatusHandler 0037                          int$flags 007E                       _NFR_RxPipes 00A0  
                    _SSP1STATbits 0214              ??_NRF_Write_Register 0076             NRF_SetMaskIRQ@IRQMask 007C  
          NRF_Read_Register@Bytes 0071                        _INTCONbits 000B         __end_of_NRF_Read_Register 0C2F  
                        intlevel1 0000                     ?_KeepDistance 0070                  ___lwmod@dividend 0072  
            LinearTransiant@Slope 004C                       _NRF_Payload 00D2              _NRF_SetAddrWidth$325 0020  
               _NRF_SetRFDataRate 0B05            __size_of_NRF24L01_Init 000B                ?_NRF_SetRFDataRate 0070  
      __end_of_NRF_StartListening 0A39             __size_of_SPI_Exchange 0009                _NRF_SetRFPower$320 0020  
         __end_of_Task_LedManager 0ABD                     __pstringtext1 0292                     __pstringtext2 1000  
                   __pstringtext3 0000            __Umul8_16@multiplicand 0070                        _OPTION_REG 0095  
             ??_NRF_SetRFDataRate 007A                  ?_NRF_ReadPayload 007A                        _NRF_SetART 09FD  
                 ___lwmod@divisor 0070       __end_of_NRF_OpenReadingPipe 0F54                   ___lwmod@counter 0075  
             LinearTransiant@diff 0050                 ?_NRF_SetRFChannel 0070  NRF_OpenReadingPipe@PayloadLength 0022  
                  ??_KeepDistance 0070                ??_NRF_SetRFChannel 007A                  NRF_SetCRCLen@Len 007C  
                NRF_ReadPayload@i 0021              __Umul8_16@multiplier 0078         __end_of_NRF_SetRFDataRate 0B2B  
                    _SPI_Exchange 0971                 __Umul8_16@product 0074                 ?_NRF_SetAddrWidth 0070  
