

Microchip MPLAB XC8 Assembler V2.31 build 20201012212115 
                                                                                               Sat Apr 03 11:07:37 2021

Microchip MPLAB XC8 C Compiler v2.31 (Free license) build 20201012212115 Og1 
     1                           	processor	16F1509
     2                           	pagewidth 120
     3                           	opt	flic
     4                           	psect	stringtext1,global,class=STRCODE,delta=2,noexec
     5                           	psect	nvCOMMON,global,class=COMMON,space=1,delta=1,noexec
     6                           	psect	stringtext2,global,class=STRCODE,delta=2,noexec
     7                           	psect	stringtext3,global,class=STRCODE,delta=2,noexec
     8                           	psect	cinit,global,class=CODE,merge=1,delta=2
     9                           	psect	bssBANK0,global,class=BANK0,space=1,delta=1,noexec
    10                           	psect	bssBANK1,global,class=BANK1,space=1,delta=1,noexec
    11                           	psect	clrtext,global,class=CODE,delta=2
    12                           	psect	cstackBANK1,global,class=BANK1,space=1,delta=1,noexec
    13                           	psect	cstackCOMMON,global,class=COMMON,space=1,delta=1,noexec
    14                           	psect	cstackBANK0,global,class=BANK0,space=1,delta=1,noexec
    15                           	psect	maintext,global,class=CODE,merge=1,split=1,delta=2
    16                           	psect	text1,local,class=CODE,merge=1,delta=2
    17                           	psect	text2,local,class=CODE,merge=1,delta=2
    18                           	psect	text3,local,class=CODE,merge=1,delta=2
    19                           	psect	text4,local,class=CODE,merge=1,delta=2
    20                           	psect	text5,local,class=CODE,merge=1,delta=2
    21                           	psect	text6,local,class=CODE,merge=1,delta=2
    22                           	psect	text7,local,class=CODE,merge=1,delta=2
    23                           	psect	text8,local,class=CODE,merge=1,delta=2
    24                           	psect	text9,local,class=CODE,merge=1,delta=2
    25                           	psect	text10,local,class=CODE,merge=1,delta=2
    26                           	psect	text11,local,class=CODE,merge=1,delta=2
    27                           	psect	text12,local,class=CODE,merge=1,delta=2
    28                           	psect	text13,local,class=CODE,merge=1,delta=2
    29                           	psect	text14,local,class=CODE,merge=1,delta=2,group=1
    30                           	psect	text15,local,class=CODE,merge=1,delta=2
    31                           	psect	text16,local,class=CODE,merge=1,delta=2
    32                           	psect	text17,local,class=CODE,merge=1,delta=2
    33                           	psect	text18,local,class=CODE,merge=1,delta=2
    34                           	psect	text19,local,class=CODE,merge=1,delta=2
    35                           	psect	text20,local,class=CODE,merge=1,delta=2
    36                           	psect	text21,local,class=CODE,merge=1,delta=2
    37                           	psect	text22,local,class=CODE,merge=1,delta=2
    38                           	psect	text23,local,class=CODE,merge=1,delta=2
    39                           	psect	text24,local,class=CODE,merge=1,delta=2
    40                           	psect	text25,local,class=CODE,merge=1,delta=2
    41                           	psect	text26,local,class=CODE,merge=1,delta=2
    42                           	psect	text27,local,class=CODE,merge=1,delta=2
    43                           	psect	text28,local,class=CODE,merge=1,delta=2,group=1
    44                           	psect	text29,local,class=CODE,merge=1,delta=2
    45                           	psect	text30,local,class=CODE,merge=1,delta=2,group=1
    46                           	psect	text31,local,class=CODE,merge=1,delta=2,group=1
    47                           	psect	text32,local,class=CODE,merge=1,delta=2,group=1
    48                           	psect	text33,local,class=CODE,merge=1,delta=2,group=1
    49                           	psect	text34,local,class=CODE,merge=1,delta=2,group=1
    50                           	psect	text35,local,class=CODE,merge=1,delta=2
    51                           	psect	intentry,global,class=CODE,delta=2
    52                           	psect	text37,local,class=CODE,merge=1,delta=2
    53                           	psect	text38,local,class=CODE,merge=1,delta=2
    54                           	psect	text39,local,class=CODE,merge=1,delta=2
    55                           	psect	text40,local,class=CODE,merge=1,delta=2
    56                           	psect	text41,local,class=CODE,merge=1,delta=2
    57                           	psect	text42,local,class=CODE,merge=1,delta=2
    58                           	psect	config,global,abs,ovrld,class=CONFIG,space=4,delta=2,noexec
    59                           	dabs	1,0x320,16
    60                           	dabs	1,0x2A0,80
    61                           	dabs	1,0x250,32
    62                           	dabs	1,0x2170,0,_CircularBuffer
    63                           	dabs	1,0x7E,2
    64  0000                     
    65                           ; Version 2.31
    66                           ; Generated 13/10/2020 GMT
    67                           ; 
    68                           ; Copyright © 2020, Microchip Technology Inc. and its subsidiaries ("Microchip")
    69                           ; All rights reserved.
    70                           ; 
    71                           ; This software is developed by Microchip Technology Inc. and its subsidiaries ("Microch
      +                          ip").
    72                           ; 
    73                           ; Redistribution and use in source and binary forms, with or without modification, are
    74                           ; permitted provided that the following conditions are met:
    75                           ; 
    76                           ;     1. Redistributions of source code must retain the above copyright notice, this lis
      +                          t of
    77                           ;        conditions and the following disclaimer.
    78                           ; 
    79                           ;     2. Redistributions in binary form must reproduce the above copyright notice, this 
      +                          list
    80                           ;        of conditions and the following disclaimer in the documentation and/or other
    81                           ;        materials provided with the distribution. Publication is not required when
    82                           ;        this file is used in an embedded application.
    83                           ; 
    84                           ;     3. Microchip's name may not be used to endorse or promote products derived from th
      +                          is
    85                           ;        software without specific prior written permission.
    86                           ; 
    87                           ; THIS SOFTWARE IS PROVIDED BY MICROCHIP "AS IS" AND ANY EXPRESS OR IMPLIED WARRANTIES,
    88                           ; INCLUDING, BUT NOT LIMITED TO, THE IMPLIED WARRANTIES OF MERCHANTABILITY AND FITNESS F
      +                          OR
    89                           ; PURPOSE ARE DISCLAIMED.  IN NO EVENT SHALL MICROCHIP BE LIABLE FOR ANY DIRECT, INDIREC
      +                          T,
    90                           ; INCIDENTAL, SPECIAL, EXEMPLARY, OR CONSEQUENTIAL DAMAGES (INCLUDING BUT NOT LIMITED TO
    91                           ; PROCUREMENT OF SUBSTITUTE GOODS OR SERVICES; LOSS OF USE, DATA OR PROFITS; OR BUSINESS
    92                           ; INTERRUPTION) HOWSOEVER CAUSED AND ON ANY THEORY OF LIABILITY, WHETHER IN CONTRACT, ST
      +                          RICT
    93                           ; LIABILITY, OR TORT (INCLUDING NEGLIGENCE OR OTHERWISE) ARISING IN ANY WAY OUT OF THE U
      +                          SE OF
    94                           ; THIS SOFTWARE, EVEN IF ADVISED OF THE POSSIBILITY OF SUCH DAMAGE.
    95                           ; 
    96                           ; 
    97                           ; Code-generator required, PIC16F1509 Definitions
    98                           ; 
    99                           ; SFR Addresses
   100  0000                     	;# 
   101  0001                     	;# 
   102  0002                     	;# 
   103  0003                     	;# 
   104  0004                     	;# 
   105  0005                     	;# 
   106  0006                     	;# 
   107  0007                     	;# 
   108  0008                     	;# 
   109  0009                     	;# 
   110  000A                     	;# 
   111  000B                     	;# 
   112  000C                     	;# 
   113  000D                     	;# 
   114  000E                     	;# 
   115  0011                     	;# 
   116  0012                     	;# 
   117  0013                     	;# 
   118  0015                     	;# 
   119  0016                     	;# 
   120  0016                     	;# 
   121  0017                     	;# 
   122  0018                     	;# 
   123  0019                     	;# 
   124  001A                     	;# 
   125  001B                     	;# 
   126  001C                     	;# 
   127  008C                     	;# 
   128  008D                     	;# 
   129  008E                     	;# 
   130  0091                     	;# 
   131  0092                     	;# 
   132  0093                     	;# 
   133  0095                     	;# 
   134  0096                     	;# 
   135  0097                     	;# 
   136  0099                     	;# 
   137  009A                     	;# 
   138  009B                     	;# 
   139  009B                     	;# 
   140  009C                     	;# 
   141  009D                     	;# 
   142  009E                     	;# 
   143  009F                     	;# 
   144  010C                     	;# 
   145  010D                     	;# 
   146  010E                     	;# 
   147  0111                     	;# 
   148  0112                     	;# 
   149  0113                     	;# 
   150  0114                     	;# 
   151  0115                     	;# 
   152  0116                     	;# 
   153  0117                     	;# 
   154  0118                     	;# 
   155  0119                     	;# 
   156  011D                     	;# 
   157  018C                     	;# 
   158  018D                     	;# 
   159  018E                     	;# 
   160  0191                     	;# 
   161  0191                     	;# 
   162  0192                     	;# 
   163  0193                     	;# 
   164  0193                     	;# 
   165  0194                     	;# 
   166  0195                     	;# 
   167  0196                     	;# 
   168  0197                     	;# 
   169  0199                     	;# 
   170  019A                     	;# 
   171  019B                     	;# 
   172  019B                     	;# 
   173  019C                     	;# 
   174  019D                     	;# 
   175  019E                     	;# 
   176  019F                     	;# 
   177  020C                     	;# 
   178  020D                     	;# 
   179  0211                     	;# 
   180  0211                     	;# 
   181  0212                     	;# 
   182  0212                     	;# 
   183  0213                     	;# 
   184  0213                     	;# 
   185  0214                     	;# 
   186  0214                     	;# 
   187  0215                     	;# 
   188  0215                     	;# 
   189  0215                     	;# 
   190  0216                     	;# 
   191  0216                     	;# 
   192  0217                     	;# 
   193  0217                     	;# 
   194  0391                     	;# 
   195  0392                     	;# 
   196  0393                     	;# 
   197  0394                     	;# 
   198  0395                     	;# 
   199  0396                     	;# 
   200  0498                     	;# 
   201  0498                     	;# 
   202  0499                     	;# 
   203  049A                     	;# 
   204  049B                     	;# 
   205  049B                     	;# 
   206  049C                     	;# 
   207  049D                     	;# 
   208  049E                     	;# 
   209  049F                     	;# 
   210  0611                     	;# 
   211  0612                     	;# 
   212  0613                     	;# 
   213  0613                     	;# 
   214  0614                     	;# 
   215  0615                     	;# 
   216  0616                     	;# 
   217  0616                     	;# 
   218  0617                     	;# 
   219  0618                     	;# 
   220  0619                     	;# 
   221  0619                     	;# 
   222  061A                     	;# 
   223  061B                     	;# 
   224  061C                     	;# 
   225  061C                     	;# 
   226  0691                     	;# 
   227  0692                     	;# 
   228  0693                     	;# 
   229  0694                     	;# 
   230  0695                     	;# 
   231  0F0F                     	;# 
   232  0F10                     	;# 
   233  0F11                     	;# 
   234  0F12                     	;# 
   235  0F13                     	;# 
   236  0F14                     	;# 
   237  0F15                     	;# 
   238  0F16                     	;# 
   239  0F17                     	;# 
   240  0F18                     	;# 
   241  0F19                     	;# 
   242  0F1A                     	;# 
   243  0F1B                     	;# 
   244  0F1C                     	;# 
   245  0F1D                     	;# 
   246  0F1E                     	;# 
   247  0F1F                     	;# 
   248  0F20                     	;# 
   249  0F21                     	;# 
   250  0F22                     	;# 
   251  0F23                     	;# 
   252  0F24                     	;# 
   253  0F25                     	;# 
   254  0F26                     	;# 
   255  0F27                     	;# 
   256  0F28                     	;# 
   257  0F29                     	;# 
   258  0F2A                     	;# 
   259  0F2B                     	;# 
   260  0F2C                     	;# 
   261  0F2D                     	;# 
   262  0F2E                     	;# 
   263  0F2F                     	;# 
   264  0F8C                     	;# 
   265  0F8D                     	;# 
   266  0F91                     	;# 
   267  0F95                     	;# 
   268  0F96                     	;# 
   269  0F97                     	;# 
   270  0F9C                     	;# 
   271  0F9D                     	;# 
   272  0F9E                     	;# 
   273  0FE3                     	;# 
   274  0FE4                     	;# 
   275  0FE5                     	;# 
   276  0FE6                     	;# 
   277  0FE7                     	;# 
   278  0FE8                     	;# 
   279  0FE9                     	;# 
   280  0FEA                     	;# 
   281  0FEB                     	;# 
   282  0FED                     	;# 
   283  0FEE                     	;# 
   284  0FEF                     	;# 
   285  0000                     	;# 
   286  0001                     	;# 
   287  0002                     	;# 
   288  0003                     	;# 
   289  0004                     	;# 
   290  0005                     	;# 
   291  0006                     	;# 
   292  0007                     	;# 
   293  0008                     	;# 
   294  0009                     	;# 
   295  000A                     	;# 
   296  000B                     	;# 
   297  000C                     	;# 
   298  000D                     	;# 
   299  000E                     	;# 
   300  0011                     	;# 
   301  0012                     	;# 
   302  0013                     	;# 
   303  0015                     	;# 
   304  0016                     	;# 
   305  0016                     	;# 
   306  0017                     	;# 
   307  0018                     	;# 
   308  0019                     	;# 
   309  001A                     	;# 
   310  001B                     	;# 
   311  001C                     	;# 
   312  008C                     	;# 
   313  008D                     	;# 
   314  008E                     	;# 
   315  0091                     	;# 
   316  0092                     	;# 
   317  0093                     	;# 
   318  0095                     	;# 
   319  0096                     	;# 
   320  0097                     	;# 
   321  0099                     	;# 
   322  009A                     	;# 
   323  009B                     	;# 
   324  009B                     	;# 
   325  009C                     	;# 
   326  009D                     	;# 
   327  009E                     	;# 
   328  009F                     	;# 
   329  010C                     	;# 
   330  010D                     	;# 
   331  010E                     	;# 
   332  0111                     	;# 
   333  0112                     	;# 
   334  0113                     	;# 
   335  0114                     	;# 
   336  0115                     	;# 
   337  0116                     	;# 
   338  0117                     	;# 
   339  0118                     	;# 
   340  0119                     	;# 
   341  011D                     	;# 
   342  018C                     	;# 
   343  018D                     	;# 
   344  018E                     	;# 
   345  0191                     	;# 
   346  0191                     	;# 
   347  0192                     	;# 
   348  0193                     	;# 
   349  0193                     	;# 
   350  0194                     	;# 
   351  0195                     	;# 
   352  0196                     	;# 
   353  0197                     	;# 
   354  0199                     	;# 
   355  019A                     	;# 
   356  019B                     	;# 
   357  019B                     	;# 
   358  019C                     	;# 
   359  019D                     	;# 
   360  019E                     	;# 
   361  019F                     	;# 
   362  020C                     	;# 
   363  020D                     	;# 
   364  0211                     	;# 
   365  0211                     	;# 
   366  0212                     	;# 
   367  0212                     	;# 
   368  0213                     	;# 
   369  0213                     	;# 
   370  0214                     	;# 
   371  0214                     	;# 
   372  0215                     	;# 
   373  0215                     	;# 
   374  0215                     	;# 
   375  0216                     	;# 
   376  0216                     	;# 
   377  0217                     	;# 
   378  0217                     	;# 
   379  0391                     	;# 
   380  0392                     	;# 
   381  0393                     	;# 
   382  0394                     	;# 
   383  0395                     	;# 
   384  0396                     	;# 
   385  0498                     	;# 
   386  0498                     	;# 
   387  0499                     	;# 
   388  049A                     	;# 
   389  049B                     	;# 
   390  049B                     	;# 
   391  049C                     	;# 
   392  049D                     	;# 
   393  049E                     	;# 
   394  049F                     	;# 
   395  0611                     	;# 
   396  0612                     	;# 
   397  0613                     	;# 
   398  0613                     	;# 
   399  0614                     	;# 
   400  0615                     	;# 
   401  0616                     	;# 
   402  0616                     	;# 
   403  0617                     	;# 
   404  0618                     	;# 
   405  0619                     	;# 
   406  0619                     	;# 
   407  061A                     	;# 
   408  061B                     	;# 
   409  061C                     	;# 
   410  061C                     	;# 
   411  0691                     	;# 
   412  0692                     	;# 
   413  0693                     	;# 
   414  0694                     	;# 
   415  0695                     	;# 
   416  0F0F                     	;# 
   417  0F10                     	;# 
   418  0F11                     	;# 
   419  0F12                     	;# 
   420  0F13                     	;# 
   421  0F14                     	;# 
   422  0F15                     	;# 
   423  0F16                     	;# 
   424  0F17                     	;# 
   425  0F18                     	;# 
   426  0F19                     	;# 
   427  0F1A                     	;# 
   428  0F1B                     	;# 
   429  0F1C                     	;# 
   430  0F1D                     	;# 
   431  0F1E                     	;# 
   432  0F1F                     	;# 
   433  0F20                     	;# 
   434  0F21                     	;# 
   435  0F22                     	;# 
   436  0F23                     	;# 
   437  0F24                     	;# 
   438  0F25                     	;# 
   439  0F26                     	;# 
   440  0F27                     	;# 
   441  0F28                     	;# 
   442  0F29                     	;# 
   443  0F2A                     	;# 
   444  0F2B                     	;# 
   445  0F2C                     	;# 
   446  0F2D                     	;# 
   447  0F2E                     	;# 
   448  0F2F                     	;# 
   449  0F8C                     	;# 
   450  0F8D                     	;# 
   451  0F91                     	;# 
   452  0F95                     	;# 
   453  0F96                     	;# 
   454  0F97                     	;# 
   455  0F9C                     	;# 
   456  0F9D                     	;# 
   457  0F9E                     	;# 
   458  0FE3                     	;# 
   459  0FE4                     	;# 
   460  0FE5                     	;# 
   461  0FE6                     	;# 
   462  0FE7                     	;# 
   463  0FE8                     	;# 
   464  0FE9                     	;# 
   465  0FEA                     	;# 
   466  0FEB                     	;# 
   467  0FED                     	;# 
   468  0FEE                     	;# 
   469  0FEF                     	;# 
   470  0000                     	;# 
   471  0001                     	;# 
   472  0002                     	;# 
   473  0003                     	;# 
   474  0004                     	;# 
   475  0005                     	;# 
   476  0006                     	;# 
   477  0007                     	;# 
   478  0008                     	;# 
   479  0009                     	;# 
   480  000A                     	;# 
   481  000B                     	;# 
   482  000C                     	;# 
   483  000D                     	;# 
   484  000E                     	;# 
   485  0011                     	;# 
   486  0012                     	;# 
   487  0013                     	;# 
   488  0015                     	;# 
   489  0016                     	;# 
   490  0016                     	;# 
   491  0017                     	;# 
   492  0018                     	;# 
   493  0019                     	;# 
   494  001A                     	;# 
   495  001B                     	;# 
   496  001C                     	;# 
   497  008C                     	;# 
   498  008D                     	;# 
   499  008E                     	;# 
   500  0091                     	;# 
   501  0092                     	;# 
   502  0093                     	;# 
   503  0095                     	;# 
   504  0096                     	;# 
   505  0097                     	;# 
   506  0099                     	;# 
   507  009A                     	;# 
   508  009B                     	;# 
   509  009B                     	;# 
   510  009C                     	;# 
   511  009D                     	;# 
   512  009E                     	;# 
   513  009F                     	;# 
   514  010C                     	;# 
   515  010D                     	;# 
   516  010E                     	;# 
   517  0111                     	;# 
   518  0112                     	;# 
   519  0113                     	;# 
   520  0114                     	;# 
   521  0115                     	;# 
   522  0116                     	;# 
   523  0117                     	;# 
   524  0118                     	;# 
   525  0119                     	;# 
   526  011D                     	;# 
   527  018C                     	;# 
   528  018D                     	;# 
   529  018E                     	;# 
   530  0191                     	;# 
   531  0191                     	;# 
   532  0192                     	;# 
   533  0193                     	;# 
   534  0193                     	;# 
   535  0194                     	;# 
   536  0195                     	;# 
   537  0196                     	;# 
   538  0197                     	;# 
   539  0199                     	;# 
   540  019A                     	;# 
   541  019B                     	;# 
   542  019B                     	;# 
   543  019C                     	;# 
   544  019D                     	;# 
   545  019E                     	;# 
   546  019F                     	;# 
   547  020C                     	;# 
   548  020D                     	;# 
   549  0211                     	;# 
   550  0211                     	;# 
   551  0212                     	;# 
   552  0212                     	;# 
   553  0213                     	;# 
   554  0213                     	;# 
   555  0214                     	;# 
   556  0214                     	;# 
   557  0215                     	;# 
   558  0215                     	;# 
   559  0215                     	;# 
   560  0216                     	;# 
   561  0216                     	;# 
   562  0217                     	;# 
   563  0217                     	;# 
   564  0391                     	;# 
   565  0392                     	;# 
   566  0393                     	;# 
   567  0394                     	;# 
   568  0395                     	;# 
   569  0396                     	;# 
   570  0498                     	;# 
   571  0498                     	;# 
   572  0499                     	;# 
   573  049A                     	;# 
   574  049B                     	;# 
   575  049B                     	;# 
   576  049C                     	;# 
   577  049D                     	;# 
   578  049E                     	;# 
   579  049F                     	;# 
   580  0611                     	;# 
   581  0612                     	;# 
   582  0613                     	;# 
   583  0613                     	;# 
   584  0614                     	;# 
   585  0615                     	;# 
   586  0616                     	;# 
   587  0616                     	;# 
   588  0617                     	;# 
   589  0618                     	;# 
   590  0619                     	;# 
   591  0619                     	;# 
   592  061A                     	;# 
   593  061B                     	;# 
   594  061C                     	;# 
   595  061C                     	;# 
   596  0691                     	;# 
   597  0692                     	;# 
   598  0693                     	;# 
   599  0694                     	;# 
   600  0695                     	;# 
   601  0F0F                     	;# 
   602  0F10                     	;# 
   603  0F11                     	;# 
   604  0F12                     	;# 
   605  0F13                     	;# 
   606  0F14                     	;# 
   607  0F15                     	;# 
   608  0F16                     	;# 
   609  0F17                     	;# 
   610  0F18                     	;# 
   611  0F19                     	;# 
   612  0F1A                     	;# 
   613  0F1B                     	;# 
   614  0F1C                     	;# 
   615  0F1D                     	;# 
   616  0F1E                     	;# 
   617  0F1F                     	;# 
   618  0F20                     	;# 
   619  0F21                     	;# 
   620  0F22                     	;# 
   621  0F23                     	;# 
   622  0F24                     	;# 
   623  0F25                     	;# 
   624  0F26                     	;# 
   625  0F27                     	;# 
   626  0F28                     	;# 
   627  0F29                     	;# 
   628  0F2A                     	;# 
   629  0F2B                     	;# 
   630  0F2C                     	;# 
   631  0F2D                     	;# 
   632  0F2E                     	;# 
   633  0F2F                     	;# 
   634  0F8C                     	;# 
   635  0F8D                     	;# 
   636  0F91                     	;# 
   637  0F95                     	;# 
   638  0F96                     	;# 
   639  0F97                     	;# 
   640  0F9C                     	;# 
   641  0F9D                     	;# 
   642  0F9E                     	;# 
   643  0FE3                     	;# 
   644  0FE4                     	;# 
   645  0FE5                     	;# 
   646  0FE6                     	;# 
   647  0FE7                     	;# 
   648  0FE8                     	;# 
   649  0FE9                     	;# 
   650  0FEA                     	;# 
   651  0FEB                     	;# 
   652  0FED                     	;# 
   653  0FEE                     	;# 
   654  0FEF                     	;# 
   655  0000                     	;# 
   656  0001                     	;# 
   657  0002                     	;# 
   658  0003                     	;# 
   659  0004                     	;# 
   660  0005                     	;# 
   661  0006                     	;# 
   662  0007                     	;# 
   663  0008                     	;# 
   664  0009                     	;# 
   665  000A                     	;# 
   666  000B                     	;# 
   667  000C                     	;# 
   668  000D                     	;# 
   669  000E                     	;# 
   670  0011                     	;# 
   671  0012                     	;# 
   672  0013                     	;# 
   673  0015                     	;# 
   674  0016                     	;# 
   675  0016                     	;# 
   676  0017                     	;# 
   677  0018                     	;# 
   678  0019                     	;# 
   679  001A                     	;# 
   680  001B                     	;# 
   681  001C                     	;# 
   682  008C                     	;# 
   683  008D                     	;# 
   684  008E                     	;# 
   685  0091                     	;# 
   686  0092                     	;# 
   687  0093                     	;# 
   688  0095                     	;# 
   689  0096                     	;# 
   690  0097                     	;# 
   691  0099                     	;# 
   692  009A                     	;# 
   693  009B                     	;# 
   694  009B                     	;# 
   695  009C                     	;# 
   696  009D                     	;# 
   697  009E                     	;# 
   698  009F                     	;# 
   699  010C                     	;# 
   700  010D                     	;# 
   701  010E                     	;# 
   702  0111                     	;# 
   703  0112                     	;# 
   704  0113                     	;# 
   705  0114                     	;# 
   706  0115                     	;# 
   707  0116                     	;# 
   708  0117                     	;# 
   709  0118                     	;# 
   710  0119                     	;# 
   711  011D                     	;# 
   712  018C                     	;# 
   713  018D                     	;# 
   714  018E                     	;# 
   715  0191                     	;# 
   716  0191                     	;# 
   717  0192                     	;# 
   718  0193                     	;# 
   719  0193                     	;# 
   720  0194                     	;# 
   721  0195                     	;# 
   722  0196                     	;# 
   723  0197                     	;# 
   724  0199                     	;# 
   725  019A                     	;# 
   726  019B                     	;# 
   727  019B                     	;# 
   728  019C                     	;# 
   729  019D                     	;# 
   730  019E                     	;# 
   731  019F                     	;# 
   732  020C                     	;# 
   733  020D                     	;# 
   734  0211                     	;# 
   735  0211                     	;# 
   736  0212                     	;# 
   737  0212                     	;# 
   738  0213                     	;# 
   739  0213                     	;# 
   740  0214                     	;# 
   741  0214                     	;# 
   742  0215                     	;# 
   743  0215                     	;# 
   744  0215                     	;# 
   745  0216                     	;# 
   746  0216                     	;# 
   747  0217                     	;# 
   748  0217                     	;# 
   749  0391                     	;# 
   750  0392                     	;# 
   751  0393                     	;# 
   752  0394                     	;# 
   753  0395                     	;# 
   754  0396                     	;# 
   755  0498                     	;# 
   756  0498                     	;# 
   757  0499                     	;# 
   758  049A                     	;# 
   759  049B                     	;# 
   760  049B                     	;# 
   761  049C                     	;# 
   762  049D                     	;# 
   763  049E                     	;# 
   764  049F                     	;# 
   765  0611                     	;# 
   766  0612                     	;# 
   767  0613                     	;# 
   768  0613                     	;# 
   769  0614                     	;# 
   770  0615                     	;# 
   771  0616                     	;# 
   772  0616                     	;# 
   773  0617                     	;# 
   774  0618                     	;# 
   775  0619                     	;# 
   776  0619                     	;# 
   777  061A                     	;# 
   778  061B                     	;# 
   779  061C                     	;# 
   780  061C                     	;# 
   781  0691                     	;# 
   782  0692                     	;# 
   783  0693                     	;# 
   784  0694                     	;# 
   785  0695                     	;# 
   786  0F0F                     	;# 
   787  0F10                     	;# 
   788  0F11                     	;# 
   789  0F12                     	;# 
   790  0F13                     	;# 
   791  0F14                     	;# 
   792  0F15                     	;# 
   793  0F16                     	;# 
   794  0F17                     	;# 
   795  0F18                     	;# 
   796  0F19                     	;# 
   797  0F1A                     	;# 
   798  0F1B                     	;# 
   799  0F1C                     	;# 
   800  0F1D                     	;# 
   801  0F1E                     	;# 
   802  0F1F                     	;# 
   803  0F20                     	;# 
   804  0F21                     	;# 
   805  0F22                     	;# 
   806  0F23                     	;# 
   807  0F24                     	;# 
   808  0F25                     	;# 
   809  0F26                     	;# 
   810  0F27                     	;# 
   811  0F28                     	;# 
   812  0F29                     	;# 
   813  0F2A                     	;# 
   814  0F2B                     	;# 
   815  0F2C                     	;# 
   816  0F2D                     	;# 
   817  0F2E                     	;# 
   818  0F2F                     	;# 
   819  0F8C                     	;# 
   820  0F8D                     	;# 
   821  0F91                     	;# 
   822  0F95                     	;# 
   823  0F96                     	;# 
   824  0F97                     	;# 
   825  0F9C                     	;# 
   826  0F9D                     	;# 
   827  0F9E                     	;# 
   828  0FE3                     	;# 
   829  0FE4                     	;# 
   830  0FE5                     	;# 
   831  0FE6                     	;# 
   832  0FE7                     	;# 
   833  0FE8                     	;# 
   834  0FE9                     	;# 
   835  0FEA                     	;# 
   836  0FEB                     	;# 
   837  0FED                     	;# 
   838  0FEE                     	;# 
   839  0FEF                     	;_CircularBuffer
   840                           
   841                           	psect	stringtext1
   842  02BA                     __pstringtext1:
   843  02BA                     _gamma10:
   844  02BA  3400               	retlw	0
   845  02BB  3400               	retlw	0
   846  02BC  3400               	retlw	0
   847  02BD  3400               	retlw	0
   848  02BE  3400               	retlw	0
   849  02BF  3400               	retlw	0
   850  02C0  3400               	retlw	0
   851  02C1  3400               	retlw	0
   852  02C2  3400               	retlw	0
   853  02C3  3400               	retlw	0
   854  02C4  3400               	retlw	0
   855  02C5  3400               	retlw	0
   856  02C6  3401               	retlw	1
   857  02C7  3400               	retlw	0
   858  02C8  3401               	retlw	1
   859  02C9  3400               	retlw	0
   860  02CA  3401               	retlw	1
   861  02CB  3400               	retlw	0
   862  02CC  3401               	retlw	1
   863  02CD  3400               	retlw	0
   864  02CE  3402               	retlw	2
   865  02CF  3400               	retlw	0
   866  02D0  3402               	retlw	2
   867  02D1  3400               	retlw	0
   868  02D2  3402               	retlw	2
   869  02D3  3400               	retlw	0
   870  02D4  3403               	retlw	3
   871  02D5  3400               	retlw	0
   872  02D6  3403               	retlw	3
   873  02D7  3400               	retlw	0
   874  02D8  3404               	retlw	4
   875  02D9  3400               	retlw	0
   876  02DA  3404               	retlw	4
   877  02DB  3400               	retlw	0
   878  02DC  3405               	retlw	5
   879  02DD  3400               	retlw	0
   880  02DE  3405               	retlw	5
   881  02DF  3400               	retlw	0
   882  02E0  3406               	retlw	6
   883  02E1  3400               	retlw	0
   884  02E2  3406               	retlw	6
   885  02E3  3400               	retlw	0
   886  02E4  3407               	retlw	7
   887  02E5  3400               	retlw	0
   888  02E6  3408               	retlw	8
   889  02E7  3400               	retlw	0
   890  02E8  3408               	retlw	8
   891  02E9  3400               	retlw	0
   892  02EA  3409               	retlw	9
   893  02EB  3400               	retlw	0
   894  02EC  340A               	retlw	10
   895  02ED  3400               	retlw	0
   896  02EE  340B               	retlw	11
   897  02EF  3400               	retlw	0
   898  02F0  340B               	retlw	11
   899  02F1  3400               	retlw	0
   900  02F2  340C               	retlw	12
   901  02F3  3400               	retlw	0
   902  02F4  340D               	retlw	13
   903  02F5  3400               	retlw	0
   904  02F6  340E               	retlw	14
   905  02F7  3400               	retlw	0
   906  02F8  340F               	retlw	15
   907  02F9  3400               	retlw	0
   908  02FA  3410               	retlw	16
   909  02FB  3400               	retlw	0
   910  02FC  3411               	retlw	17
   911  02FD  3400               	retlw	0
   912  02FE  3412               	retlw	18
   913  02FF  3400               	retlw	0
   914  0300  3413               	retlw	19
   915  0301  3400               	retlw	0
   916  0302  3414               	retlw	20
   917  0303  3400               	retlw	0
   918  0304  3416               	retlw	22
   919  0305  3400               	retlw	0
   920  0306  3417               	retlw	23
   921  0307  3400               	retlw	0
   922  0308  3418               	retlw	24
   923  0309  3400               	retlw	0
   924  030A  3419               	retlw	25
   925  030B  3400               	retlw	0
   926  030C  341A               	retlw	26
   927  030D  3400               	retlw	0
   928  030E  341C               	retlw	28
   929  030F  3400               	retlw	0
   930  0310  341D               	retlw	29
   931  0311  3400               	retlw	0
   932  0312  341E               	retlw	30
   933  0313  3400               	retlw	0
   934  0314  3420               	retlw	32
   935  0315  3400               	retlw	0
   936  0316  3421               	retlw	33
   937  0317  3400               	retlw	0
   938  0318  3423               	retlw	35
   939  0319  3400               	retlw	0
   940  031A  3424               	retlw	36
   941  031B  3400               	retlw	0
   942  031C  3426               	retlw	38
   943  031D  3400               	retlw	0
   944  031E  3427               	retlw	39
   945  031F  3400               	retlw	0
   946  0320  3429               	retlw	41
   947  0321  3400               	retlw	0
   948  0322  342B               	retlw	43
   949  0323  3400               	retlw	0
   950  0324  342C               	retlw	44
   951  0325  3400               	retlw	0
   952  0326  342E               	retlw	46
   953  0327  3400               	retlw	0
   954  0328  3430               	retlw	48
   955  0329  3400               	retlw	0
   956  032A  3431               	retlw	49
   957  032B  3400               	retlw	0
   958  032C  3433               	retlw	51
   959  032D  3400               	retlw	0
   960  032E  3435               	retlw	53
   961  032F  3400               	retlw	0
   962  0330  3437               	retlw	55
   963  0331  3400               	retlw	0
   964  0332  3439               	retlw	57
   965  0333  3400               	retlw	0
   966  0334  343B               	retlw	59
   967  0335  3400               	retlw	0
   968  0336  343C               	retlw	60
   969  0337  3400               	retlw	0
   970  0338  343E               	retlw	62
   971  0339  3400               	retlw	0
   972  033A  3440               	retlw	64
   973  033B  3400               	retlw	0
   974  033C  3442               	retlw	66
   975  033D  3400               	retlw	0
   976  033E  3445               	retlw	69
   977  033F  3400               	retlw	0
   978  0340  3447               	retlw	71
   979  0341  3400               	retlw	0
   980  0342  3449               	retlw	73
   981  0343  3400               	retlw	0
   982  0344  344B               	retlw	75
   983  0345  3400               	retlw	0
   984  0346  344D               	retlw	77
   985  0347  3400               	retlw	0
   986  0348  344F               	retlw	79
   987  0349  3400               	retlw	0
   988  034A  3452               	retlw	82
   989  034B  3400               	retlw	0
   990  034C  3454               	retlw	84
   991  034D  3400               	retlw	0
   992  034E  3456               	retlw	86
   993  034F  3400               	retlw	0
   994  0350  3458               	retlw	88
   995  0351  3400               	retlw	0
   996  0352  345B               	retlw	91
   997  0353  3400               	retlw	0
   998  0354  345D               	retlw	93
   999  0355  3400               	retlw	0
  1000  0356  3460               	retlw	96
  1001  0357  3400               	retlw	0
  1002  0358  3462               	retlw	98
  1003  0359  3400               	retlw	0
  1004  035A  3465               	retlw	101
  1005  035B  3400               	retlw	0
  1006  035C  3467               	retlw	103
  1007  035D  3400               	retlw	0
  1008  035E  346A               	retlw	106
  1009  035F  3400               	retlw	0
  1010  0360  346C               	retlw	108
  1011  0361  3400               	retlw	0
  1012  0362  346F               	retlw	111
  1013  0363  3400               	retlw	0
  1014  0364  3472               	retlw	114
  1015  0365  3400               	retlw	0
  1016  0366  3474               	retlw	116
  1017  0367  3400               	retlw	0
  1018  0368  3477               	retlw	119
  1019  0369  3400               	retlw	0
  1020  036A  347A               	retlw	122
  1021  036B  3400               	retlw	0
  1022  036C  347D               	retlw	125
  1023  036D  3400               	retlw	0
  1024  036E  347F               	retlw	127
  1025  036F  3400               	retlw	0
  1026  0370  3482               	retlw	130
  1027  0371  3400               	retlw	0
  1028  0372  3485               	retlw	133
  1029  0373  3400               	retlw	0
  1030  0374  3488               	retlw	136
  1031  0375  3400               	retlw	0
  1032  0376  348B               	retlw	139
  1033  0377  3400               	retlw	0
  1034  0378  348E               	retlw	142
  1035  0379  3400               	retlw	0
  1036  037A  3491               	retlw	145
  1037  037B  3400               	retlw	0
  1038  037C  3494               	retlw	148
  1039  037D  3400               	retlw	0
  1040  037E  3497               	retlw	151
  1041  037F  3400               	retlw	0
  1042  0380  349A               	retlw	154
  1043  0381  3400               	retlw	0
  1044  0382  349D               	retlw	157
  1045  0383  3400               	retlw	0
  1046  0384  34A0               	retlw	160
  1047  0385  3400               	retlw	0
  1048  0386  34A4               	retlw	164
  1049  0387  3400               	retlw	0
  1050  0388  34A7               	retlw	167
  1051  0389  3400               	retlw	0
  1052  038A  34AA               	retlw	170
  1053  038B  3400               	retlw	0
  1054  038C  34AD               	retlw	173
  1055  038D  3400               	retlw	0
  1056  038E  34B1               	retlw	177
  1057  038F  3400               	retlw	0
  1058  0390  34B4               	retlw	180
  1059  0391  3400               	retlw	0
  1060  0392  34B8               	retlw	184
  1061  0393  3400               	retlw	0
  1062  0394  34BB               	retlw	187
  1063  0395  3400               	retlw	0
  1064  0396  34BE               	retlw	190
  1065  0397  3400               	retlw	0
  1066  0398  34C2               	retlw	194
  1067  0399  3400               	retlw	0
  1068  039A  34C5               	retlw	197
  1069  039B  3400               	retlw	0
  1070  039C  34C9               	retlw	201
  1071  039D  3400               	retlw	0
  1072  039E  34CC               	retlw	204
  1073  039F  3400               	retlw	0
  1074  03A0  34D0               	retlw	208
  1075  03A1  3400               	retlw	0
  1076  03A2  34D4               	retlw	212
  1077  03A3  3400               	retlw	0
  1078  03A4  34D7               	retlw	215
  1079  03A5  3400               	retlw	0
  1080  03A6  34DB               	retlw	219
  1081  03A7  3400               	retlw	0
  1082  03A8  34DF               	retlw	223
  1083  03A9  3400               	retlw	0
  1084  03AA  34E3               	retlw	227
  1085  03AB  3400               	retlw	0
  1086  03AC  34E6               	retlw	230
  1087  03AD  3400               	retlw	0
  1088  03AE  34EA               	retlw	234
  1089  03AF  3400               	retlw	0
  1090  03B0  34EE               	retlw	238
  1091  03B1  3400               	retlw	0
  1092  03B2  34F2               	retlw	242
  1093  03B3  3400               	retlw	0
  1094  03B4  34F6               	retlw	246
  1095  03B5  3400               	retlw	0
  1096  03B6  34FA               	retlw	250
  1097  03B7  3400               	retlw	0
  1098  03B8  34FE               	retlw	254
  1099  03B9  3400               	retlw	0
  1100  03BA  3402               	retlw	2
  1101  03BB  3401               	retlw	1
  1102  03BC  3406               	retlw	6
  1103  03BD  3401               	retlw	1
  1104  03BE  340A               	retlw	10
  1105  03BF  3401               	retlw	1
  1106  03C0  340E               	retlw	14
  1107  03C1  3401               	retlw	1
  1108  03C2  3412               	retlw	18
  1109  03C3  3401               	retlw	1
  1110  03C4  3416               	retlw	22
  1111  03C5  3401               	retlw	1
  1112  03C6  341A               	retlw	26
  1113  03C7  3401               	retlw	1
  1114  03C8  341F               	retlw	31
  1115  03C9  3401               	retlw	1
  1116  03CA  3423               	retlw	35
  1117  03CB  3401               	retlw	1
  1118  03CC  3427               	retlw	39
  1119  03CD  3401               	retlw	1
  1120  03CE  342C               	retlw	44
  1121  03CF  3401               	retlw	1
  1122  03D0  3430               	retlw	48
  1123  03D1  3401               	retlw	1
  1124  03D2  3434               	retlw	52
  1125  03D3  3401               	retlw	1
  1126  03D4  3439               	retlw	57
  1127  03D5  3401               	retlw	1
  1128  03D6  343D               	retlw	61
  1129  03D7  3401               	retlw	1
  1130  03D8  3442               	retlw	66
  1131  03D9  3401               	retlw	1
  1132  03DA  3446               	retlw	70
  1133  03DB  3401               	retlw	1
  1134  03DC  344B               	retlw	75
  1135  03DD  3401               	retlw	1
  1136  03DE  344F               	retlw	79
  1137  03DF  3401               	retlw	1
  1138  03E0  3454               	retlw	84
  1139  03E1  3401               	retlw	1
  1140  03E2  3459               	retlw	89
  1141  03E3  3401               	retlw	1
  1142  03E4  345D               	retlw	93
  1143  03E5  3401               	retlw	1
  1144  03E6  3462               	retlw	98
  1145  03E7  3401               	retlw	1
  1146  03E8  3467               	retlw	103
  1147  03E9  3401               	retlw	1
  1148  03EA  346B               	retlw	107
  1149  03EB  3401               	retlw	1
  1150  03EC  3470               	retlw	112
  1151  03ED  3401               	retlw	1
  1152  03EE  3475               	retlw	117
  1153  03EF  3401               	retlw	1
  1154  03F0  347A               	retlw	122
  1155  03F1  3401               	retlw	1
  1156  03F2  347F               	retlw	127
  1157  03F3  3401               	retlw	1
  1158  03F4  3484               	retlw	132
  1159  03F5  3401               	retlw	1
  1160  03F6  3489               	retlw	137
  1161  03F7  3401               	retlw	1
  1162  03F8  348E               	retlw	142
  1163  03F9  3401               	retlw	1
  1164  03FA  3493               	retlw	147
  1165  03FB  3401               	retlw	1
  1166  03FC  3498               	retlw	152
  1167  03FD  3401               	retlw	1
  1168  03FE  349D               	retlw	157
  1169  03FF  3401               	retlw	1
  1170  0400  34A2               	retlw	162
  1171  0401  3401               	retlw	1
  1172  0402  34A7               	retlw	167
  1173  0403  3401               	retlw	1
  1174  0404  34AC               	retlw	172
  1175  0405  3401               	retlw	1
  1176  0406  34B2               	retlw	178
  1177  0407  3401               	retlw	1
  1178  0408  34B7               	retlw	183
  1179  0409  3401               	retlw	1
  1180  040A  34BC               	retlw	188
  1181  040B  3401               	retlw	1
  1182  040C  34C1               	retlw	193
  1183  040D  3401               	retlw	1
  1184  040E  34C7               	retlw	199
  1185  040F  3401               	retlw	1
  1186  0410  34CC               	retlw	204
  1187  0411  3401               	retlw	1
  1188  0412  34D1               	retlw	209
  1189  0413  3401               	retlw	1
  1190  0414  34D7               	retlw	215
  1191  0415  3401               	retlw	1
  1192  0416  34DC               	retlw	220
  1193  0417  3401               	retlw	1
  1194  0418  34E2               	retlw	226
  1195  0419  3401               	retlw	1
  1196  041A  34E7               	retlw	231
  1197  041B  3401               	retlw	1
  1198  041C  34ED               	retlw	237
  1199  041D  3401               	retlw	1
  1200  041E  34F2               	retlw	242
  1201  041F  3401               	retlw	1
  1202  0420  34F8               	retlw	248
  1203  0421  3401               	retlw	1
  1204  0422  34FE               	retlw	254
  1205  0423  3401               	retlw	1
  1206  0424  3403               	retlw	3
  1207  0425  3402               	retlw	2
  1208  0426  3409               	retlw	9
  1209  0427  3402               	retlw	2
  1210  0428  340F               	retlw	15
  1211  0429  3402               	retlw	2
  1212  042A  3415               	retlw	21
  1213  042B  3402               	retlw	2
  1214  042C  341A               	retlw	26
  1215  042D  3402               	retlw	2
  1216  042E  3420               	retlw	32
  1217  042F  3402               	retlw	2
  1218  0430  3426               	retlw	38
  1219  0431  3402               	retlw	2
  1220  0432  342C               	retlw	44
  1221  0433  3402               	retlw	2
  1222  0434  3432               	retlw	50
  1223  0435  3402               	retlw	2
  1224  0436  3438               	retlw	56
  1225  0437  3402               	retlw	2
  1226  0438  343E               	retlw	62
  1227  0439  3402               	retlw	2
  1228  043A  3444               	retlw	68
  1229  043B  3402               	retlw	2
  1230  043C  344A               	retlw	74
  1231  043D  3402               	retlw	2
  1232  043E  3450               	retlw	80
  1233  043F  3402               	retlw	2
  1234  0440  3456               	retlw	86
  1235  0441  3402               	retlw	2
  1236  0442  345C               	retlw	92
  1237  0443  3402               	retlw	2
  1238  0444  3463               	retlw	99
  1239  0445  3402               	retlw	2
  1240  0446  3469               	retlw	105
  1241  0447  3402               	retlw	2
  1242  0448  346F               	retlw	111
  1243  0449  3402               	retlw	2
  1244  044A  3475               	retlw	117
  1245  044B  3402               	retlw	2
  1246  044C  347C               	retlw	124
  1247  044D  3402               	retlw	2
  1248  044E  3482               	retlw	130
  1249  044F  3402               	retlw	2
  1250  0450  3488               	retlw	136
  1251  0451  3402               	retlw	2
  1252  0452  348F               	retlw	143
  1253  0453  3402               	retlw	2
  1254  0454  3495               	retlw	149
  1255  0455  3402               	retlw	2
  1256  0456  349C               	retlw	156
  1257  0457  3402               	retlw	2
  1258  0458  34A2               	retlw	162
  1259  0459  3402               	retlw	2
  1260  045A  34A9               	retlw	169
  1261  045B  3402               	retlw	2
  1262  045C  34AF               	retlw	175
  1263  045D  3402               	retlw	2
  1264  045E  34B6               	retlw	182
  1265  045F  3402               	retlw	2
  1266  0460  34BC               	retlw	188
  1267  0461  3402               	retlw	2
  1268  0462  34C3               	retlw	195
  1269  0463  3402               	retlw	2
  1270  0464  34CA               	retlw	202
  1271  0465  3402               	retlw	2
  1272  0466  34D0               	retlw	208
  1273  0467  3402               	retlw	2
  1274  0468  34D7               	retlw	215
  1275  0469  3402               	retlw	2
  1276  046A  34DE               	retlw	222
  1277  046B  3402               	retlw	2
  1278  046C  34E5               	retlw	229
  1279  046D  3402               	retlw	2
  1280  046E  34EC               	retlw	236
  1281  046F  3402               	retlw	2
  1282  0470  34F3               	retlw	243
  1283  0471  3402               	retlw	2
  1284  0472  34F9               	retlw	249
  1285  0473  3402               	retlw	2
  1286  0474  3400               	retlw	0
  1287  0475  3403               	retlw	3
  1288  0476  3407               	retlw	7
  1289  0477  3403               	retlw	3
  1290  0478  340E               	retlw	14
  1291  0479  3403               	retlw	3
  1292  047A  3415               	retlw	21
  1293  047B  3403               	retlw	3
  1294  047C  341C               	retlw	28
  1295  047D  3403               	retlw	3
  1296  047E  3424               	retlw	36
  1297  047F  3403               	retlw	3
  1298  0480  342B               	retlw	43
  1299  0481  3403               	retlw	3
  1300  0482  3432               	retlw	50
  1301  0483  3403               	retlw	3
  1302  0484  3439               	retlw	57
  1303  0485  3403               	retlw	3
  1304  0486  3440               	retlw	64
  1305  0487  3403               	retlw	3
  1306  0488  3447               	retlw	71
  1307  0489  3403               	retlw	3
  1308  048A  344F               	retlw	79
  1309  048B  3403               	retlw	3
  1310  048C  3456               	retlw	86
  1311  048D  3403               	retlw	3
  1312  048E  345D               	retlw	93
  1313  048F  3403               	retlw	3
  1314  0490  3465               	retlw	101
  1315  0491  3403               	retlw	3
  1316  0492  346C               	retlw	108
  1317  0493  3403               	retlw	3
  1318  0494  3474               	retlw	116
  1319  0495  3403               	retlw	3
  1320  0496  347B               	retlw	123
  1321  0497  3403               	retlw	3
  1322  0498  3483               	retlw	131
  1323  0499  3403               	retlw	3
  1324  049A  348A               	retlw	138
  1325  049B  3403               	retlw	3
  1326  049C  3492               	retlw	146
  1327  049D  3403               	retlw	3
  1328  049E  3499               	retlw	153
  1329  049F  3403               	retlw	3
  1330  04A0  34A1               	retlw	161
  1331  04A1  3403               	retlw	3
  1332  04A2  34A9               	retlw	169
  1333  04A3  3403               	retlw	3
  1334  04A4  34B0               	retlw	176
  1335  04A5  3403               	retlw	3
  1336  04A6  34B8               	retlw	184
  1337  04A7  3403               	retlw	3
  1338  04A8  34C0               	retlw	192
  1339  04A9  3403               	retlw	3
  1340  04AA  34C8               	retlw	200
  1341  04AB  3403               	retlw	3
  1342  04AC  34CF               	retlw	207
  1343  04AD  3403               	retlw	3
  1344  04AE  34D7               	retlw	215
  1345  04AF  3403               	retlw	3
  1346  04B0  34DF               	retlw	223
  1347  04B1  3403               	retlw	3
  1348  04B2  34E7               	retlw	231
  1349  04B3  3403               	retlw	3
  1350  04B4  34EF               	retlw	239
  1351  04B5  3403               	retlw	3
  1352  04B6  34F7               	retlw	247
  1353  04B7  3403               	retlw	3
  1354  04B8  34FF               	retlw	255
  1355  04B9  3403               	retlw	3
  1356  04BA                     __end_of_gamma10:
  1357                           
  1358                           	psect	nvCOMMON
  1359  007C                     __pnvCOMMON:
  1360  007C                     _p_NRF_SPI_Exchange:
  1361  007C                     	ds	2
  1362  001C                     _T2CON	set	28
  1363  001B                     _PR2	set	27
  1364  000B                     _INTCONbits	set	11
  1365  0015                     _TMR0	set	21
  1366  0058                     _IOCIF	set	88
  1367  005A                     _TMR0IF	set	90
  1368  0095                     _OPTION_REG	set	149
  1369  008C                     _TRISA	set	140
  1370  008D                     _TRISB	set	141
  1371  008E                     _TRISC	set	142
  1372  0099                     _OSCCON	set	153
  1373  010E                     _LATCbits	set	270
  1374  018E                     _ANSELC	set	398
  1375  018D                     _ANSELB	set	397
  1376  018C                     _ANSELA	set	396
  1377  0214                     _SSP1STATbits	set	532
  1378  0211                     _SSP1BUF	set	529
  1379  0215                     _SSP1CON1	set	533
  1380  0214                     _SSP1STAT	set	532
  1381  0393                     _IOCAF	set	915
  1382  0392                     _IOCAN	set	914
  1383  0615                     _PWM2DCH	set	1557
  1384  0614                     _PWM2DCL	set	1556
  1385  0612                     _PWM1DCH	set	1554
  1386  0611                     _PWM1DCL	set	1553
  1387  0616                     _PWM2CON	set	1558
  1388  0613                     _PWM1CON	set	1555
  1389                           
  1390                           	psect	stringtext2
  1391  1000                     __pstringtext2:
  1392  1000                     STR_1:
  1393  1000  344E               	retlw	78	;'N'
  1394  1001  346F               	retlw	111	;'o'
  1395  1002  3464               	retlw	100	;'d'
  1396  1003  3465               	retlw	101	;'e'
  1397  1004  3430               	retlw	48	;'0'
  1398  1005  3400               	retlw	0
  1399                           
  1400                           	psect	stringtext3
  1401  0000                     __pstringtext3:
  1402                           
  1403                           	psect	cinit
  1404  0041                     start_initialization:	
  1405                           ; #config settings
  1406                           
  1407  0041                     __initialization:	;BIGRAM
  1408                           
  1409                           ; Clear objects allocated to BIGRAM
  1410  0041  3070               	movlw	low (0+8560)
  1411  0042  0084               	movwf	4
  1412  0043  3021               	movlw	high (0+8560)
  1413  0044  0085               	movwf	5
  1414  0045  3080               	movlw	128
  1415  0046  00FE               	movwf	btemp
  1416  0047  3000               	movlw	0
  1417  0048  00FF               	movwf	btemp+1
  1418  0049  3189  2176  3180   	fcall	clear_ram0
  1419                           
  1420                           ; Clear objects allocated to BANK0
  1421  004C  0020               	movlb	0	; select bank0
  1422  004D  01E7               	clrf	__pbssBANK0& (0+127)
  1423  004E  01E8               	clrf	(__pbssBANK0+1)& (0+127)
  1424  004F  01E9               	clrf	(__pbssBANK0+2)& (0+127)
  1425  0050  01EA               	clrf	(__pbssBANK0+3)& (0+127)
  1426  0051  01EB               	clrf	(__pbssBANK0+4)& (0+127)
  1427  0052  01EC               	clrf	(__pbssBANK0+5)& (0+127)
  1428  0053  01ED               	clrf	(__pbssBANK0+6)& (0+127)
  1429                           
  1430                           ; Clear objects allocated to BANK1
  1431  0054  30A0               	movlw	low __pbssBANK1
  1432  0055  0084               	movwf	4
  1433  0056  3000               	movlw	high __pbssBANK1
  1434  0057  0085               	movwf	5
  1435  0058  3041               	movlw	65
  1436  0059  00FE               	movwf	btemp
  1437  005A  3000               	movlw	0
  1438  005B  00FF               	movwf	btemp+1
  1439  005C  3189  2176  3180   	fcall	clear_ram0
  1440  005F                     end_of_initialization:	
  1441                           ;End of C runtime variable initialization code
  1442                           
  1443  005F                     __end_of__initialization:
  1444  005F  107E               	bcf	int$flags,0	;clear compiler interrupt flag (level 1)
  1445  0060  0020               	movlb	0
  1446  0061  318D  2DF6         	ljmp	_main	;jump to C main() function
  1447                           
  1448                           	psect	bssBANK0
  1449  0067                     __pbssBANK0:
  1450  0067                     _MyQueue:
  1451  0067                     	ds	6
  1452  006D                     APPL_TASK_10MS@OldValue:
  1453  006D                     	ds	1
  1454                           
  1455                           	psect	bssBANK1
  1456  00A0                     __pbssBANK1:
  1457  00A0                     Task_LedManager@Timeout:
  1458  00A0                     	ds	2
  1459  00A2                     _Click_Duration:
  1460  00A2                     	ds	2
  1461  00A4                     _Tick_1ms:
  1462  00A4                     	ds	2
  1463  00A6                     _Click:
  1464  00A6                     	ds	1
  1465  00A7                     _NFR_RxPipes:
  1466  00A7                     	ds	36
  1467  00CB                     _NRFChip:
  1468  00CB                     	ds	14
  1469  00D9                     _NRF_Payload:
  1470  00D9                     	ds	8
  1471                           
  1472                           	psect	clrtext
  1473  0976                     clear_ram0:	
  1474                           ;	Called with FSR0 containing the base address, and
  1475                           ;	btemp/btemp+1 has the size to clear
  1476                           
  1477  0976  0064               	clrwdt	;clear the watchdog before getting into this loop
  1478  0977                     clrloop0:
  1479  0977  0180               	clrf	0	;clear RAM location pointed to by FSR
  1480  0978  3101               	addfsr 0,1
  1481  0979  3001               	movlw	1
  1482  097A  02FE               	subwf	btemp,f
  1483  097B  3000               	movlw	0
  1484  097C  3BFF               	subwfb	btemp+1,f
  1485  097D  087F               	movf	btemp+1,w
  1486  097E  047E               	iorwf	btemp,w
  1487  097F  1D03               	skipz
  1488  0980  2977               	goto	clrloop0	;have we reached the end yet?
  1489  0981  3400               	retlw	0	;all done for this memory range, return
  1490                           
  1491                           	psect	cstackBANK1
  1492  00E1                     __pcstackBANK1:
  1493  00E1                     main@Task10ms:
  1494                           
  1495                           ; 2 bytes @ 0x0
  1496  00E1                     	ds	2
  1497  00E3                     main@Task100ms:
  1498                           
  1499                           ; 2 bytes @ 0x2
  1500  00E3                     	ds	2
  1501  00E5                     main@Task1000ms:
  1502                           
  1503                           ; 2 bytes @ 0x4
  1504  00E5                     	ds	2
  1505                           
  1506                           	psect	cstackCOMMON
  1507  0070                     __pcstackCOMMON:
  1508  0070                     ?_MCU_Init:
  1509  0070                     ?_Appl_Init:	
  1510                           ; 1 bytes @ 0x0
  1511                           
  1512  0070                     ?_Task_LedManager:	
  1513                           ; 1 bytes @ 0x0
  1514                           
  1515  0070                     ?_APPL_TASK_10MS:	
  1516                           ; 1 bytes @ 0x0
  1517                           
  1518  0070                     ?_QueueInit:	
  1519                           ; 1 bytes @ 0x0
  1520                           
  1521  0070                     ?_NRF_SetCRCLen:	
  1522                           ; 1 bytes @ 0x0
  1523                           
  1524  0070                     ?_NRF_SetAddrWidth:	
  1525                           ; 1 bytes @ 0x0
  1526                           
  1527  0070                     ?_NRF_SetRFDataRate:	
  1528                           ; 1 bytes @ 0x0
  1529                           
  1530  0070                     ?_NRF_SetRFPower:	
  1531                           ; 1 bytes @ 0x0
  1532                           
  1533  0070                     ?_NRF_SetRFChannel:	
  1534                           ; 1 bytes @ 0x0
  1535                           
  1536  0070                     ?_NRF_StartListening:	
  1537                           ; 1 bytes @ 0x0
  1538                           
  1539  0070                     ?_NRF_PipeEnable:	
  1540                           ; 1 bytes @ 0x0
  1541                           
  1542  0070                     ?_NRF_PipeEnableAA:	
  1543                           ; 1 bytes @ 0x0
  1544                           
  1545  0070                     ?_NRF_GetStatus:	
  1546                           ; 1 bytes @ 0x0
  1547                           
  1548  0070                     ?_main:	
  1549                           ; 1 bytes @ 0x0
  1550                           
  1551  0070                     ?_IsFull:	
  1552                           ; 1 bytes @ 0x0
  1553                           
  1554  0070                     ?_IsEmpty:	
  1555                           ; 1 bytes @ 0x0
  1556                           
  1557  0070                     ?_KeepDistance:	
  1558                           ; 1 bytes @ 0x0
  1559                           
  1560  0070                     ?_enQueue:	
  1561                           ; 1 bytes @ 0x0
  1562                           
  1563  0070                     ?_deQueue:	
  1564                           ; 1 bytes @ 0x0
  1565                           
  1566  0070                     ?_ClickLed:	
  1567                           ; 1 bytes @ 0x0
  1568                           
  1569  0070                     ?_NRF_Available:	
  1570                           ; 1 bytes @ 0x0
  1571                           
  1572  0070                     ?_ISR:	
  1573                           ; 1 bytes @ 0x0
  1574                           
  1575  0070                     ?i1_SPI_Exchange:	
  1576                           ; 1 bytes @ 0x0
  1577                           
  1578  0070                     i1SPI_Exchange@Data:	
  1579                           ; 1 bytes @ 0x0
  1580                           
  1581  0070                     ClickLed@DurationMs:	
  1582                           ; 1 bytes @ 0x0
  1583                           
  1584                           
  1585                           ; 2 bytes @ 0x0
  1586  0070                     	ds	1
  1587  0071                     ??_NRF_GetStatus:
  1588  0071                     ?i1_NRF_Write_Register:	
  1589                           ; 1 bytes @ 0x1
  1590                           
  1591  0071                     ??i1_SPI_Exchange:	
  1592                           ; 1 bytes @ 0x1
  1593                           
  1594  0071                     i1NRF_Write_Register@Bytes:	
  1595                           ; 1 bytes @ 0x1
  1596                           
  1597                           
  1598                           ; 2 bytes @ 0x1
  1599  0071                     	ds	1
  1600  0072                     ??_ClickLed:
  1601                           
  1602                           ; 1 bytes @ 0x2
  1603  0072                     	ds	1
  1604  0073                     ??_NRF_Available:
  1605  0073                     NRF_Available@PipeNo:	
  1606                           ; 1 bytes @ 0x3
  1607                           
  1608  0073                     i1NRF_Write_Register@Length:	
  1609                           ; 1 bytes @ 0x3
  1610                           
  1611                           
  1612                           ; 1 bytes @ 0x3
  1613  0073                     	ds	1
  1614  0074                     ??i1_NRF_Write_Register:
  1615  0074                     NRF_Available@IsAvailable:	
  1616                           ; 1 bytes @ 0x4
  1617                           
  1618                           
  1619                           ; 1 bytes @ 0x4
  1620  0074                     	ds	2
  1621  0076                     i1NRF_Write_Register@Register:
  1622                           
  1623                           ; 1 bytes @ 0x6
  1624  0076                     	ds	1
  1625  0077                     ?_NRF_ReadPayload:
  1626  0077                     NRF_ReadPayload@PayloadLength:	
  1627                           ; 1 bytes @ 0x7
  1628                           
  1629                           
  1630                           ; 1 bytes @ 0x7
  1631  0077                     	ds	1
  1632  0078                     ??_NRF_ReadPayload:
  1633                           
  1634                           ; 1 bytes @ 0x8
  1635  0078                     	ds	3
  1636  007B                     ??_ISR:
  1637                           
  1638                           ; 1 bytes @ 0xB
  1639  007B                     	ds	1
  1640                           
  1641                           	psect	cstackBANK0
  1642  0020                     __pcstackBANK0:
  1643  0020                     NRF_ReadPayload@Payload:
  1644                           
  1645                           ; 1 bytes @ 0x0
  1646  0020                     	ds	1
  1647  0021                     NRF_ReadPayload@i:
  1648                           
  1649                           ; 1 bytes @ 0x1
  1650  0021                     	ds	1
  1651  0022                     ??_MCU_Init:
  1652  0022                     ??_Task_LedManager:	
  1653                           ; 1 bytes @ 0x2
  1654                           
  1655  0022                     ?_SetPWM2:	
  1656                           ; 1 bytes @ 0x2
  1657                           
  1658  0022                     ??_QueueInit:	
  1659                           ; 1 bytes @ 0x2
  1660                           
  1661  0022                     ?_SPI_Exchange:	
  1662                           ; 1 bytes @ 0x2
  1663                           
  1664  0022                     ?_NRF_Set_SPI_Handler:	
  1665                           ; 1 bytes @ 0x2
  1666                           
  1667  0022                     ??_IsFull:	
  1668                           ; 1 bytes @ 0x2
  1669                           
  1670  0022                     ??_IsEmpty:	
  1671                           ; 1 bytes @ 0x2
  1672                           
  1673  0022                     ??_KeepDistance:	
  1674                           ; 1 bytes @ 0x2
  1675                           
  1676  0022                     ?___bmul:	
  1677                           ; 1 bytes @ 0x2
  1678                           
  1679  0022                     ?__Umul8_16:	
  1680                           ; 1 bytes @ 0x2
  1681                           
  1682  0022                     ?___lwmod:	
  1683                           ; 2 bytes @ 0x2
  1684                           
  1685  0022                     ?___xxtofl:	
  1686                           ; 2 bytes @ 0x2
  1687                           
  1688  0022                     SPI_Exchange@Data:	
  1689                           ; 4 bytes @ 0x2
  1690                           
  1691  0022                     ___bmul@multiplicand:	
  1692                           ; 1 bytes @ 0x2
  1693                           
  1694  0022                     __Umul8_16@multiplicand:	
  1695                           ; 1 bytes @ 0x2
  1696                           
  1697  0022                     NRF_Set_SPI_Handler@SPI_Handler:	
  1698                           ; 1 bytes @ 0x2
  1699                           
  1700  0022                     SetPWM2@DutyCycle:	
  1701                           ; 2 bytes @ 0x2
  1702                           
  1703  0022                     ___lwmod@divisor:	
  1704                           ; 2 bytes @ 0x2
  1705                           
  1706  0022                     ___xxtofl@val:	
  1707                           ; 2 bytes @ 0x2
  1708                           
  1709                           
  1710                           ; 4 bytes @ 0x2
  1711  0022                     	ds	1
  1712  0023                     ??_SPI_Exchange:
  1713  0023                     ?_NRF_Read_Register:	
  1714                           ; 1 bytes @ 0x3
  1715                           
  1716  0023                     ??___bmul:	
  1717                           ; 1 bytes @ 0x3
  1718                           
  1719  0023                     NRF_Read_Register@Bytes:	
  1720                           ; 1 bytes @ 0x3
  1721                           
  1722  0023                     KeepDistance@diff:	
  1723                           ; 1 bytes @ 0x3
  1724                           
  1725                           
  1726                           ; 2 bytes @ 0x3
  1727  0023                     	ds	1
  1728  0024                     ??_SetPWM2:
  1729  0024                     ?_NRF24L01_Init:	
  1730                           ; 1 bytes @ 0x4
  1731                           
  1732  0024                     ??_NRF_Set_SPI_Handler:	
  1733                           ; 1 bytes @ 0x4
  1734                           
  1735  0024                     ??__Umul8_16:	
  1736                           ; 1 bytes @ 0x4
  1737                           
  1738  0024                     _IsFull$171:	
  1739                           ; 1 bytes @ 0x4
  1740                           
  1741  0024                     NRF_Read_Register@Length:	
  1742                           ; 1 bytes @ 0x4
  1743                           
  1744  0024                     ___bmul@product:	
  1745                           ; 1 bytes @ 0x4
  1746                           
  1747  0024                     NRF24L01_Init@SPI_Exchange:	
  1748                           ; 1 bytes @ 0x4
  1749                           
  1750  0024                     ___lwmod@dividend:	
  1751                           ; 2 bytes @ 0x4
  1752                           
  1753                           
  1754                           ; 2 bytes @ 0x4
  1755  0024                     	ds	1
  1756  0025                     ??_NRF_Read_Register:
  1757  0025                     KeepDistance@amount:	
  1758                           ; 1 bytes @ 0x5
  1759                           
  1760  0025                     ___bmul@multiplier:	
  1761                           ; 1 bytes @ 0x5
  1762                           
  1763                           
  1764                           ; 1 bytes @ 0x5
  1765  0025                     	ds	1
  1766  0026                     ??_NRF24L01_Init:
  1767  0026                     ?_NRF_Write_Register:	
  1768                           ; 1 bytes @ 0x6
  1769                           
  1770  0026                     ??___lwmod:	
  1771                           ; 1 bytes @ 0x6
  1772                           
  1773  0026                     ??___xxtofl:	
  1774                           ; 1 bytes @ 0x6
  1775                           
  1776  0026                     KeepDistance@retVal:	
  1777                           ; 1 bytes @ 0x6
  1778                           
  1779  0026                     NRF_Write_Register@Bytes:	
  1780                           ; 1 bytes @ 0x6
  1781                           
  1782  0026                     __Umul8_16@product:	
  1783                           ; 2 bytes @ 0x6
  1784                           
  1785                           
  1786                           ; 2 bytes @ 0x6
  1787  0026                     	ds	1
  1788  0027                     NRF_Read_Register@Register:
  1789  0027                     ___lwmod@counter:	
  1790                           ; 1 bytes @ 0x7
  1791                           
  1792                           
  1793                           ; 1 bytes @ 0x7
  1794  0027                     	ds	1
  1795  0028                     ??_enQueue:
  1796  0028                     ??_deQueue:	
  1797                           ; 1 bytes @ 0x8
  1798                           
  1799  0028                     NRF_Write_Register@Length:	
  1800                           ; 1 bytes @ 0x8
  1801                           
  1802  0028                     NRF_Read_Register@Status:	
  1803                           ; 1 bytes @ 0x8
  1804                           
  1805  0028                     __Umul8_16@word_mpld:	
  1806                           ; 1 bytes @ 0x8
  1807                           
  1808                           
  1809                           ; 2 bytes @ 0x8
  1810  0028                     	ds	1
  1811  0029                     ??_NRF_Write_Register:
  1812                           
  1813                           ; 1 bytes @ 0x9
  1814  0029                     	ds	1
  1815  002A                     __Umul8_16@multiplier:
  1816  002A                     ___xxtofl@sign:	
  1817                           ; 1 bytes @ 0xA
  1818                           
  1819                           
  1820                           ; 1 bytes @ 0xA
  1821  002A                     	ds	1
  1822  002B                     deQueue@element:
  1823  002B                     NRF_Write_Register@Register:	
  1824                           ; 1 bytes @ 0xB
  1825                           
  1826  002B                     ___xxtofl@exp:	
  1827                           ; 1 bytes @ 0xB
  1828                           
  1829                           
  1830                           ; 1 bytes @ 0xB
  1831  002B                     	ds	1
  1832  002C                     ?_SetPWM1:
  1833  002C                     enQueue@element:	
  1834                           ; 1 bytes @ 0xC
  1835                           
  1836  002C                     NRF_Write_Register@Status:	
  1837                           ; 1 bytes @ 0xC
  1838                           
  1839  002C                     SetPWM1@DutyCycle:	
  1840                           ; 1 bytes @ 0xC
  1841                           
  1842  002C                     ___xxtofl@arg:	
  1843                           ; 2 bytes @ 0xC
  1844                           
  1845                           
  1846                           ; 4 bytes @ 0xC
  1847  002C                     	ds	1
  1848  002D                     ??_NRF_SetCRCLen:
  1849  002D                     ??_NRF_SetAddrWidth:	
  1850                           ; 1 bytes @ 0xD
  1851                           
  1852  002D                     ??_NRF_SetRFDataRate:	
  1853                           ; 1 bytes @ 0xD
  1854                           
  1855  002D                     ??_NRF_SetRFPower:	
  1856                           ; 1 bytes @ 0xD
  1857                           
  1858  002D                     ??_NRF_SetRFChannel:	
  1859                           ; 1 bytes @ 0xD
  1860                           
  1861  002D                     ?_NRF_SetART:	
  1862                           ; 1 bytes @ 0xD
  1863                           
  1864  002D                     ??_NRF_StartListening:	
  1865                           ; 1 bytes @ 0xD
  1866                           
  1867  002D                     ??_NRF_PipeEnable:	
  1868                           ; 1 bytes @ 0xD
  1869                           
  1870  002D                     ??_NRF_PipeEnableAA:	
  1871                           ; 1 bytes @ 0xD
  1872                           
  1873  002D                     NRF_SetART@delay:	
  1874                           ; 1 bytes @ 0xD
  1875                           
  1876                           
  1877                           ; 1 bytes @ 0xD
  1878  002D                     	ds	1
  1879  002E                     ??_SetPWM1:
  1880  002E                     ??_NRF_SetART:	
  1881                           ; 1 bytes @ 0xE
  1882                           
  1883  002E                     NRF_SetCRCLen@Len:	
  1884                           ; 1 bytes @ 0xE
  1885                           
  1886  002E                     NRF_SetRFDataRate@Datarate:	
  1887                           ; 1 bytes @ 0xE
  1888                           
  1889  002E                     _NRF_SetAddrWidth$456:	
  1890                           ; 1 bytes @ 0xE
  1891                           
  1892                           
  1893                           ; 2 bytes @ 0xE
  1894  002E                     	ds	1
  1895  002F                     NRF_PipeEnable@PipeNo:
  1896  002F                     NRF_PipeEnableAA@PipeNo:	
  1897                           ; 1 bytes @ 0xF
  1898                           
  1899  002F                     NRF_SetART@count:	
  1900                           ; 1 bytes @ 0xF
  1901                           
  1902  002F                     _NRF_SetRFChannel$444:	
  1903                           ; 1 bytes @ 0xF
  1904                           
  1905  002F                     _NRF_SetRFPower$451:	
  1906                           ; 2 bytes @ 0xF
  1907                           
  1908                           
  1909                           ; 2 bytes @ 0xF
  1910  002F                     	ds	1
  1911  0030                     ?___fldiv:
  1912  0030                     ?___flmul:	
  1913                           ; 4 bytes @ 0x10
  1914                           
  1915  0030                     NRF_PipeEnable@EN:	
  1916                           ; 4 bytes @ 0x10
  1917                           
  1918  0030                     NRF_PipeEnableAA@AA:	
  1919                           ; 1 bytes @ 0x10
  1920                           
  1921  0030                     NRF_SetAddrWidth@AddressWidth:	
  1922                           ; 1 bytes @ 0x10
  1923                           
  1924  0030                     ___fldiv@a:	
  1925                           ; 1 bytes @ 0x10
  1926                           
  1927  0030                     ___flmul@b:	
  1928                           ; 4 bytes @ 0x10
  1929                           
  1930                           
  1931                           ; 4 bytes @ 0x10
  1932  0030                     	ds	1
  1933  0031                     ?_NRF_OpenReadingPipe:
  1934  0031                     NRF_SetRFChannel@RF_Channel:	
  1935                           ; 1 bytes @ 0x11
  1936                           
  1937  0031                     NRF_SetRFPower@RF_Pow:	
  1938                           ; 1 bytes @ 0x11
  1939                           
  1940  0031                     NRF_OpenReadingPipe@PipeAddr:	
  1941                           ; 1 bytes @ 0x11
  1942                           
  1943                           
  1944                           ; 2 bytes @ 0x11
  1945  0031                     	ds	2
  1946  0033                     NRF_OpenReadingPipe@PayloadLength:
  1947                           
  1948                           ; 1 bytes @ 0x13
  1949  0033                     	ds	1
  1950  0034                     NRF_OpenReadingPipe@AutoAck:
  1951  0034                     ___fldiv@b:	
  1952                           ; 1 bytes @ 0x14
  1953                           
  1954  0034                     ___flmul@a:	
  1955                           ; 4 bytes @ 0x14
  1956                           
  1957                           
  1958                           ; 4 bytes @ 0x14
  1959  0034                     	ds	1
  1960  0035                     NRF_OpenReadingPipe@Enable:
  1961                           
  1962                           ; 1 bytes @ 0x15
  1963  0035                     	ds	1
  1964  0036                     ??_NRF_OpenReadingPipe:
  1965                           
  1966                           ; 1 bytes @ 0x16
  1967  0036                     	ds	2
  1968  0038                     ??___fldiv:
  1969  0038                     ??___flmul:	
  1970                           ; 1 bytes @ 0x18
  1971                           
  1972                           
  1973                           ; 1 bytes @ 0x18
  1974  0038                     	ds	3
  1975  003B                     _NRF_OpenReadingPipe$416:
  1976                           
  1977                           ; 2 bytes @ 0x1B
  1978  003B                     	ds	2
  1979  003D                     NRF_OpenReadingPipe@AW:
  1980  003D                     ___flmul@sign:	
  1981                           ; 1 bytes @ 0x1D
  1982                           
  1983  003D                     ___fldiv@rem:	
  1984                           ; 1 bytes @ 0x1D
  1985                           
  1986                           
  1987                           ; 4 bytes @ 0x1D
  1988  003D                     	ds	1
  1989  003E                     NRF_OpenReadingPipe@i:
  1990  003E                     ___flmul@grs:	
  1991                           ; 1 bytes @ 0x1E
  1992                           
  1993                           
  1994                           ; 4 bytes @ 0x1E
  1995  003E                     	ds	1
  1996  003F                     NRF_OpenReadingPipe@PipeNo:
  1997                           
  1998                           ; 1 bytes @ 0x1F
  1999  003F                     	ds	1
  2000  0040                     ??_Appl_Init:
  2001                           
  2002                           ; 1 bytes @ 0x20
  2003  0040                     	ds	1
  2004  0041                     ___fldiv@sign:
  2005                           
  2006                           ; 1 bytes @ 0x21
  2007  0041                     	ds	1
  2008  0042                     ___flmul@aexp:
  2009  0042                     ___fldiv@new_exp:	
  2010                           ; 1 bytes @ 0x22
  2011                           
  2012                           
  2013                           ; 2 bytes @ 0x22
  2014  0042                     	ds	1
  2015  0043                     ___flmul@bexp:
  2016                           
  2017                           ; 1 bytes @ 0x23
  2018  0043                     	ds	1
  2019  0044                     ___fldiv@grs:
  2020  0044                     ___flmul@prod:	
  2021                           ; 4 bytes @ 0x24
  2022                           
  2023                           
  2024                           ; 4 bytes @ 0x24
  2025  0044                     	ds	4
  2026  0048                     ___fldiv@bexp:
  2027  0048                     ___flmul@temp:	
  2028                           ; 1 bytes @ 0x28
  2029                           
  2030                           
  2031                           ; 2 bytes @ 0x28
  2032  0048                     	ds	1
  2033  0049                     ___fldiv@aexp:
  2034                           
  2035                           ; 1 bytes @ 0x29
  2036  0049                     	ds	1
  2037  004A                     ?___fltol:
  2038  004A                     ___fltol@f1:	
  2039                           ; 4 bytes @ 0x2A
  2040                           
  2041                           
  2042                           ; 4 bytes @ 0x2A
  2043  004A                     	ds	4
  2044  004E                     ??___fltol:
  2045                           
  2046                           ; 1 bytes @ 0x2E
  2047  004E                     	ds	5
  2048  0053                     ___fltol@sign1:
  2049                           
  2050                           ; 1 bytes @ 0x33
  2051  0053                     	ds	1
  2052  0054                     ___fltol@exp1:
  2053                           
  2054                           ; 1 bytes @ 0x34
  2055  0054                     	ds	1
  2056  0055                     ?_LinearTransiant:
  2057  0055                     LinearTransiant@OldValue:	
  2058                           ; 1 bytes @ 0x35
  2059                           
  2060                           
  2061                           ; 1 bytes @ 0x35
  2062  0055                     	ds	1
  2063  0056                     LinearTransiant@Duration10ms:
  2064                           
  2065                           ; 1 bytes @ 0x36
  2066  0056                     	ds	1
  2067  0057                     ??_LinearTransiant:
  2068                           
  2069                           ; 1 bytes @ 0x37
  2070  0057                     	ds	5
  2071  005C                     LinearTransiant@Slope:
  2072                           
  2073                           ; 4 bytes @ 0x3C
  2074  005C                     	ds	4
  2075  0060                     LinearTransiant@diff:
  2076                           
  2077                           ; 2 bytes @ 0x40
  2078  0060                     	ds	2
  2079  0062                     LinearTransiant@a:
  2080                           
  2081                           ; 1 bytes @ 0x42
  2082  0062                     	ds	1
  2083  0063                     LinearTransiant@i:
  2084                           
  2085                           ; 1 bytes @ 0x43
  2086  0063                     	ds	1
  2087  0064                     LinearTransiant@NewValue:
  2088                           
  2089                           ; 1 bytes @ 0x44
  2090  0064                     	ds	1
  2091  0065                     ??_APPL_TASK_10MS:
  2092                           
  2093                           ; 1 bytes @ 0x45
  2094  0065                     	ds	2
  2095  0067                     ??_main:
  2096                           
  2097                           	psect	maintext
  2098  0DF6                     __pmaintext:	
  2099                           ; 1 bytes @ 0x47
  2100 ;;
  2101 ;;Main: autosize = 0, tempsize = 0, incstack = 0, save=0
  2102 ;;
  2103 ;; *************** function _main *****************
  2104 ;; Defined at:
  2105 ;;		line 10 in file "02-SRC/02-APPLICATION/main.c"
  2106 ;; Parameters:    Size  Location     Type
  2107 ;;		None
  2108 ;; Auto vars:     Size  Location     Type
  2109 ;;  Task1000ms      2    4[BANK1 ] unsigned short 
  2110 ;;  Task100ms       2    2[BANK1 ] unsigned short 
  2111 ;;  Task10ms        2    0[BANK1 ] unsigned short 
  2112 ;; Return value:  Size  Location     Type
  2113 ;;                  1    wreg      void 
  2114 ;; Registers used:
  2115 ;;		wreg, fsr0l, fsr0h, fsr1l, fsr1h, status,2, status,0, pclath, cstack
  2116 ;; Tracked objects:
  2117 ;;		On entry : B1F/0
  2118 ;;		On exit  : 0/0
  2119 ;;		Unchanged: 0/0
  2120 ;; Data sizes:     COMMON   BANK0   BANK1   BANK2   BANK3   BANK4   BANK5   BANK6
  2121 ;;      Params:         0       0       0       0       0       0       0       0
  2122 ;;      Locals:         0       0       6       0       0       0       0       0
  2123 ;;      Temps:          0       0       0       0       0       0       0       0
  2124 ;;      Totals:         0       0       6       0       0       0       0       0
  2125 ;;Total ram usage:        6 bytes
  2126 ;; Hardware stack levels required when called:    9
  2127 ;; This function calls:
  2128 ;;		_APPL_TASK_10MS
  2129 ;;		_Appl_Init
  2130 ;;		_MCU_Init
  2131 ;;		_Task_LedManager
  2132 ;; This function is called by:
  2133 ;;		Startup code after reset
  2134 ;; This function uses a non-reentrant model
  2135 ;;
  2136                           
  2137                           
  2138                           ;psect for function _main
  2139  0DF6                     _main:
  2140  0DF6                     l2892:	
  2141                           ;incstack = 0
  2142                           ; Regs used in _main: [wreg-fsr1h+status,2+status,0+pclath+cstack]
  2143                           
  2144  0DF6  300A               	movlw	10
  2145  0DF7  0021               	movlb	1	; select bank1
  2146  0DF8  00E1               	movwf	main@Task10ms^(0+128)
  2147  0DF9  3000               	movlw	0
  2148  0DFA  00E2               	movwf	(main@Task10ms^(0+128)+1)
  2149  0DFB  3064               	movlw	100
  2150  0DFC  00E3               	movwf	main@Task100ms^(0+128)
  2151  0DFD  3000               	movlw	0
  2152  0DFE  00E4               	movwf	(main@Task100ms^(0+128)+1)
  2153  0DFF  30E8               	movlw	232
  2154  0E00  00E5               	movwf	main@Task1000ms^(0+128)
  2155  0E01  3003               	movlw	3
  2156  0E02  00E6               	movwf	(main@Task1000ms^(0+128)+1)
  2157  0E03                     l2894:
  2158  0E03  318B  23C5  318D   	fcall	_MCU_Init
  2159  0E06                     l2896:
  2160  0E06  3187  2796  318D   	fcall	_Appl_Init
  2161  0E09                     l2898:
  2162  0E09  318A  221A  318D   	fcall	_Task_LedManager
  2163  0E0C                     l2900:
  2164  0E0C  0021               	movlb	1	; select bank1
  2165  0E0D  0862               	movf	(main@Task10ms+1)^(0+128),w
  2166  0E0E  0225               	subwf	(_Tick_1ms+1)^(0+128),w
  2167  0E0F  1D03               	skipz
  2168  0E10  2E13               	goto	u3005
  2169  0E11  0861               	movf	main@Task10ms^(0+128),w
  2170  0E12  0224               	subwf	_Tick_1ms^(0+128),w
  2171  0E13                     u3005:
  2172  0E13  1C03               	skipc
  2173  0E14  2E16               	goto	u3001
  2174  0E15  2E17               	goto	u3000
  2175  0E16                     u3001:
  2176  0E16  2E20               	goto	l2906
  2177  0E17                     u3000:
  2178  0E17                     l2902:
  2179  0E17  0824               	movf	_Tick_1ms^(0+128),w
  2180  0E18  3E0A               	addlw	10
  2181  0E19  00E1               	movwf	main@Task10ms^(0+128)
  2182  0E1A  3000               	movlw	0
  2183  0E1B  3D25               	addwfc	(_Tick_1ms+1)^(0+128),w
  2184  0E1C  00E2               	movwf	(main@Task10ms+1)^(0+128)
  2185  0E1D                     l2904:
  2186  0E1D  318C  24C0  318D   	fcall	_APPL_TASK_10MS
  2187  0E20                     l2906:
  2188  0E20  0021               	movlb	1	; select bank1
  2189  0E21  0864               	movf	(main@Task100ms+1)^(0+128),w
  2190  0E22  0225               	subwf	(_Tick_1ms+1)^(0+128),w
  2191  0E23  1D03               	skipz
  2192  0E24  2E27               	goto	u3015
  2193  0E25  0863               	movf	main@Task100ms^(0+128),w
  2194  0E26  0224               	subwf	_Tick_1ms^(0+128),w
  2195  0E27                     u3015:
  2196  0E27  1C03               	skipc
  2197  0E28  2E2A               	goto	u3011
  2198  0E29  2E2B               	goto	u3010
  2199  0E2A                     u3011:
  2200  0E2A  2E31               	goto	l2910
  2201  0E2B                     u3010:
  2202  0E2B                     l2908:
  2203  0E2B  0824               	movf	_Tick_1ms^(0+128),w
  2204  0E2C  3E64               	addlw	100
  2205  0E2D  00E3               	movwf	main@Task100ms^(0+128)
  2206  0E2E  3000               	movlw	0
  2207  0E2F  3D25               	addwfc	(_Tick_1ms+1)^(0+128),w
  2208  0E30  00E4               	movwf	(main@Task100ms+1)^(0+128)
  2209  0E31                     l2910:
  2210  0E31  0866               	movf	(main@Task1000ms+1)^(0+128),w
  2211  0E32  0225               	subwf	(_Tick_1ms+1)^(0+128),w
  2212  0E33  1D03               	skipz
  2213  0E34  2E37               	goto	u3025
  2214  0E35  0865               	movf	main@Task1000ms^(0+128),w
  2215  0E36  0224               	subwf	_Tick_1ms^(0+128),w
  2216  0E37                     u3025:
  2217  0E37  1C03               	skipc
  2218  0E38  2E3A               	goto	u3021
  2219  0E39  2E3B               	goto	u3020
  2220  0E3A                     u3021:
  2221  0E3A  2E09               	goto	l2898
  2222  0E3B                     u3020:
  2223  0E3B                     l2912:
  2224  0E3B  0824               	movf	_Tick_1ms^(0+128),w
  2225  0E3C  3EE8               	addlw	232
  2226  0E3D  00E5               	movwf	main@Task1000ms^(0+128)
  2227  0E3E  3003               	movlw	3
  2228  0E3F  3D25               	addwfc	(_Tick_1ms+1)^(0+128),w
  2229  0E40  00E6               	movwf	(main@Task1000ms+1)^(0+128)
  2230  0E41  2E09               	goto	l2898
  2231  0E42  3180  283F         	ljmp	start
  2232  0E44                     __end_of_main:
  2233                           
  2234                           	psect	text1
  2235  0A1A                     __ptext1:	
  2236 ;; *************** function _Task_LedManager *****************
  2237 ;; Defined at:
  2238 ;;		line 159 in file "02-SRC/02-APPLICATION/Appl.c"
  2239 ;; Parameters:    Size  Location     Type
  2240 ;;		None
  2241 ;; Auto vars:     Size  Location     Type
  2242 ;;		None
  2243 ;; Return value:  Size  Location     Type
  2244 ;;                  1    wreg      void 
  2245 ;; Registers used:
  2246 ;;		wreg, status,2, status,0
  2247 ;; Tracked objects:
  2248 ;;		On entry : 0/0
  2249 ;;		On exit  : 0/0
  2250 ;;		Unchanged: 0/0
  2251 ;; Data sizes:     COMMON   BANK0   BANK1   BANK2   BANK3   BANK4   BANK5   BANK6
  2252 ;;      Params:         0       0       0       0       0       0       0       0
  2253 ;;      Locals:         0       0       0       0       0       0       0       0
  2254 ;;      Temps:          0       0       0       0       0       0       0       0
  2255 ;;      Totals:         0       0       0       0       0       0       0       0
  2256 ;;Total ram usage:        0 bytes
  2257 ;; Hardware stack levels used:    1
  2258 ;; Hardware stack levels required when called:    4
  2259 ;; This function calls:
  2260 ;;		Nothing
  2261 ;; This function is called by:
  2262 ;;		_main
  2263 ;; This function uses a non-reentrant model
  2264 ;;
  2265                           
  2266                           
  2267                           ;psect for function _Task_LedManager
  2268  0A1A                     _Task_LedManager:
  2269  0A1A                     l2520:	
  2270                           ;incstack = 0
  2271                           ; Regs used in _Task_LedManager: [wreg+status,2+status,0]
  2272                           
  2273  0A1A  0021               	movlb	1	; select bank1
  2274  0A1B  0826               	movf	_Click^(0+128),w
  2275  0A1C  1903               	btfsc	3,2
  2276  0A1D  2A1F               	goto	u2631
  2277  0A1E  2A20               	goto	u2630
  2278  0A1F                     u2631:
  2279  0A1F  2A2B               	goto	l2528
  2280  0A20                     u2630:
  2281  0A20                     l2522:
  2282  0A20  01A6               	clrf	_Click^(0+128)
  2283  0A21                     l2524:
  2284  0A21  0022               	movlb	2	; select bank2
  2285  0A22  160E               	bsf	14,4	;volatile
  2286  0A23                     l2526:
  2287  0A23  0021               	movlb	1	; select bank1
  2288  0A24  0822               	movf	_Click_Duration^(0+128),w
  2289  0A25  0724               	addwf	_Tick_1ms^(0+128),w
  2290  0A26  00A0               	movwf	Task_LedManager@Timeout^(0+128)
  2291  0A27  0823               	movf	(_Click_Duration+1)^(0+128),w
  2292  0A28  3D25               	addwfc	(_Tick_1ms+1)^(0+128),w
  2293  0A29  00A1               	movwf	(Task_LedManager@Timeout+1)^(0+128)
  2294  0A2A  2A3B               	goto	l122
  2295  0A2B                     l2528:
  2296  0A2B  0821               	movf	(Task_LedManager@Timeout+1)^(0+128),w
  2297  0A2C  0225               	subwf	(_Tick_1ms+1)^(0+128),w
  2298  0A2D  1D03               	skipz
  2299  0A2E  2A31               	goto	u2645
  2300  0A2F  0820               	movf	Task_LedManager@Timeout^(0+128),w
  2301  0A30  0224               	subwf	_Tick_1ms^(0+128),w
  2302  0A31                     u2645:
  2303  0A31  1C03               	skipc
  2304  0A32  2A34               	goto	u2641
  2305  0A33  2A35               	goto	u2640
  2306  0A34                     u2641:
  2307  0A34  2A3B               	goto	l122
  2308  0A35                     u2640:
  2309  0A35                     l2530:
  2310  0A35  0022               	movlb	2	; select bank2
  2311  0A36  1E0E               	btfss	14,4	;volatile
  2312  0A37  2A39               	goto	u2651
  2313  0A38  2A3A               	goto	u2650
  2314  0A39                     u2651:
  2315  0A39  2A3B               	goto	l122
  2316  0A3A                     u2650:
  2317  0A3A                     l2532:
  2318  0A3A  120E               	bcf	14,4	;volatile
  2319  0A3B                     l122:
  2320  0A3B  0008               	return
  2321  0A3C                     __end_of_Task_LedManager:
  2322                           
  2323                           	psect	text2
  2324  0BC5                     __ptext2:	
  2325 ;; *************** function _MCU_Init *****************
  2326 ;; Defined at:
  2327 ;;		line 10 in file "02-SRC/04-DRIVER/target.c"
  2328 ;; Parameters:    Size  Location     Type
  2329 ;;		None
  2330 ;; Auto vars:     Size  Location     Type
  2331 ;;		None
  2332 ;; Return value:  Size  Location     Type
  2333 ;;                  1    wreg      void 
  2334 ;; Registers used:
  2335 ;;		wreg, status,2
  2336 ;; Tracked objects:
  2337 ;;		On entry : 0/0
  2338 ;;		On exit  : 0/0
  2339 ;;		Unchanged: 0/0
  2340 ;; Data sizes:     COMMON   BANK0   BANK1   BANK2   BANK3   BANK4   BANK5   BANK6
  2341 ;;      Params:         0       0       0       0       0       0       0       0
  2342 ;;      Locals:         0       0       0       0       0       0       0       0
  2343 ;;      Temps:          0       0       0       0       0       0       0       0
  2344 ;;      Totals:         0       0       0       0       0       0       0       0
  2345 ;;Total ram usage:        0 bytes
  2346 ;; Hardware stack levels used:    1
  2347 ;; Hardware stack levels required when called:    4
  2348 ;; This function calls:
  2349 ;;		Nothing
  2350 ;; This function is called by:
  2351 ;;		_main
  2352 ;; This function uses a non-reentrant model
  2353 ;;
  2354                           
  2355                           
  2356                           ;psect for function _MCU_Init
  2357  0BC5                     _MCU_Init:
  2358  0BC5                     l2454:	
  2359                           ;incstack = 0
  2360                           ; Regs used in _MCU_Init: [wreg+status,2]
  2361                           
  2362  0BC5  0021               	movlb	1	; select bank1
  2363  0BC6  01A4               	clrf	_Tick_1ms^(0+128)
  2364  0BC7  01A5               	clrf	(_Tick_1ms+1)^(0+128)
  2365  0BC8                     l2456:
  2366  0BC8  3078               	movlw	120
  2367  0BC9  0099               	movwf	25	;volatile
  2368  0BCA                     l2458:
  2369  0BCA  0023               	movlb	3	; select bank3
  2370  0BCB  018C               	clrf	12	;volatile
  2371  0BCC                     l2460:
  2372  0BCC  018D               	clrf	13	;volatile
  2373  0BCD                     l2462:
  2374  0BCD  3044               	movlw	68
  2375  0BCE  008E               	movwf	14	;volatile
  2376  0BCF                     l2464:
  2377  0BCF  3044               	movlw	68
  2378  0BD0  0021               	movlb	1	; select bank1
  2379  0BD1  008E               	movwf	14	;volatile
  2380  0BD2                     l2466:
  2381  0BD2  303F               	movlw	63
  2382  0BD3  008D               	movwf	13	;volatile
  2383  0BD4                     l2468:
  2384  0BD4  30FF               	movlw	255
  2385  0BD5  008C               	movwf	12	;volatile
  2386  0BD6                     l2470:
  2387  0BD6  3040               	movlw	64
  2388  0BD7  0024               	movlb	4	; select bank4
  2389  0BD8  0094               	movwf	20	;volatile
  2390  0BD9                     l2472:
  2391  0BD9  3021               	movlw	33
  2392  0BDA  0095               	movwf	21	;volatile
  2393  0BDB                     l2474:
  2394  0BDB  3083               	movlw	131
  2395  0BDC  0021               	movlb	1	; select bank1
  2396  0BDD  0095               	movwf	21	;volatile
  2397  0BDE                     l2476:
  2398  0BDE  3005               	movlw	5
  2399  0BDF  0020               	movlb	0	; select bank0
  2400  0BE0  0095               	movwf	21	;volatile
  2401  0BE1                     l2478:
  2402  0BE1  168B               	bsf	11,5	;volatile
  2403  0BE2                     l2480:
  2404  0BE2  30FF               	movlw	255
  2405  0BE3  009B               	movwf	27	;volatile
  2406  0BE4                     l2482:
  2407  0BE4  3004               	movlw	4
  2408  0BE5  009C               	movwf	28	;volatile
  2409  0BE6                     l2484:
  2410  0BE6  30C0               	movlw	192
  2411  0BE7  002C               	movlb	12	; select bank12
  2412  0BE8  0093               	movwf	19	;volatile
  2413  0BE9                     l2486:
  2414  0BE9  30C0               	movlw	192
  2415  0BEA  0096               	movwf	22	;volatile
  2416  0BEB                     l2488:
  2417  0BEB  3004               	movlw	4
  2418  0BEC  0027               	movlb	7	; select bank7
  2419  0BED  0092               	movwf	18	;volatile
  2420  0BEE                     l2490:
  2421  0BEE  158B               	bsf	11,3	;volatile
  2422  0BEF                     l2492:
  2423  0BEF  100B               	bcf	11,0	;volatile
  2424  0BF0                     l2494:
  2425  0BF0  170B               	bsf	11,6	;volatile
  2426  0BF1                     l2496:
  2427  0BF1  178B               	bsf	11,7	;volatile
  2428  0BF2                     l340:
  2429  0BF2  0008               	return
  2430  0BF3                     __end_of_MCU_Init:
  2431                           
  2432                           	psect	text3
  2433  0796                     __ptext3:	
  2434 ;; *************** function _Appl_Init *****************
  2435 ;; Defined at:
  2436 ;;		line 40 in file "02-SRC/02-APPLICATION/Appl.c"
  2437 ;; Parameters:    Size  Location     Type
  2438 ;;		None
  2439 ;; Auto vars:     Size  Location     Type
  2440 ;;		None
  2441 ;; Return value:  Size  Location     Type
  2442 ;;                  1    wreg      void 
  2443 ;; Registers used:
  2444 ;;		wreg, fsr0l, fsr0h, fsr1l, fsr1h, status,2, status,0, pclath, cstack
  2445 ;; Tracked objects:
  2446 ;;		On entry : 0/0
  2447 ;;		On exit  : 0/0
  2448 ;;		Unchanged: 0/0
  2449 ;; Data sizes:     COMMON   BANK0   BANK1   BANK2   BANK3   BANK4   BANK5   BANK6
  2450 ;;      Params:         0       0       0       0       0       0       0       0
  2451 ;;      Locals:         0       0       0       0       0       0       0       0
  2452 ;;      Temps:          0       1       0       0       0       0       0       0
  2453 ;;      Totals:         0       1       0       0       0       0       0       0
  2454 ;;Total ram usage:        1 bytes
  2455 ;; Hardware stack levels used:    1
  2456 ;; Hardware stack levels required when called:    8
  2457 ;; This function calls:
  2458 ;;		_NRF24L01_Init
  2459 ;;		_NRF_OpenReadingPipe
  2460 ;;		_NRF_SetART
  2461 ;;		_NRF_SetAddrWidth
  2462 ;;		_NRF_SetCRCLen
  2463 ;;		_NRF_SetRFChannel
  2464 ;;		_NRF_SetRFDataRate
  2465 ;;		_NRF_SetRFPower
  2466 ;;		_NRF_StartListening
  2467 ;;		_NRF_Write_Register
  2468 ;;		_QueueInit
  2469 ;;		_SetPWM1
  2470 ;;		_SetPWM2
  2471 ;; This function is called by:
  2472 ;;		_main
  2473 ;; This function uses a non-reentrant model
  2474 ;;
  2475                           
  2476                           
  2477                           ;psect for function _Appl_Init
  2478  0796                     _Appl_Init:
  2479  0796                     l2828:	
  2480                           ;incstack = 0
  2481                           ; Regs used in _Appl_Init: [wreg-fsr1h+status,2+status,0+pclath+cstack]
  2482                           
  2483  0796  0022               	movlb	2	; select bank2
  2484  0797  120E               	bcf	14,4	;volatile
  2485  0798                     l2830:
  2486  0798  3000               	movlw	0
  2487  0799  0020               	movlb	0	; select bank0
  2488  079A  00AC               	movwf	SetPWM1@DutyCycle
  2489  079B  00AD               	movwf	SetPWM1@DutyCycle+1
  2490  079C  3189  21C9  3187   	fcall	_SetPWM1
  2491  079F  3000               	movlw	0
  2492  07A0  0020               	movlb	0	; select bank0
  2493  07A1  00A2               	movwf	SetPWM2@DutyCycle
  2494  07A2  00A3               	movwf	SetPWM2@DutyCycle+1
  2495  07A3  3189  21E1  3187   	fcall	_SetPWM2
  2496  07A6  3189  2190  3187   	fcall	_QueueInit
  2497  07A9  3082               	movlw	low _SPI_Exchange
  2498  07AA  0020               	movlb	0	; select bank0
  2499  07AB  00A4               	movwf	NRF24L01_Init@SPI_Exchange
  2500  07AC  3009               	movlw	high _SPI_Exchange
  2501  07AD  00A5               	movwf	NRF24L01_Init@SPI_Exchange+1
  2502  07AE  3189  216A  3187   	fcall	_NRF24L01_Init
  2503  07B1                     l2832:
  2504  07B1  3001               	movlw	1
  2505  07B2  318A  22A6  3187   	fcall	_NRF_SetCRCLen
  2506  07B5                     l2834:
  2507  07B5  3005               	movlw	5
  2508  07B6  318C  2458  3187   	fcall	_NRF_SetAddrWidth
  2509  07B9                     l2836:
  2510  07B9  3000               	movlw	0
  2511  07BA  318B  2399  3187   	fcall	_NRF_SetRFDataRate
  2512  07BD                     l2838:
  2513  07BD  3003               	movlw	3
  2514  07BE  318C  24F8  3187   	fcall	_NRF_SetRFPower
  2515  07C1                     l2840:
  2516  07C1  3064               	movlw	100
  2517  07C2  318B  2343  3187   	fcall	_NRF_SetRFChannel
  2518  07C5                     l2842:
  2519  07C5  3000               	movlw	low (STR_1| (0+32768))
  2520  07C6  0020               	movlb	0	; select bank0
  2521  07C7  00B1               	movwf	NRF_OpenReadingPipe@PipeAddr
  2522  07C8  3090               	movlw	high (STR_1| (0+32768))
  2523  07C9  00B2               	movwf	NRF_OpenReadingPipe@PipeAddr+1
  2524  07CA  3008               	movlw	8
  2525  07CB  00C0               	movwf	??_Appl_Init
  2526  07CC  0840               	movf	??_Appl_Init,w
  2527  07CD  00B3               	movwf	NRF_OpenReadingPipe@PayloadLength
  2528  07CE  01B4               	clrf	NRF_OpenReadingPipe@AutoAck
  2529  07CF  0AB4               	incf	NRF_OpenReadingPipe@AutoAck,f
  2530  07D0  01B5               	clrf	NRF_OpenReadingPipe@Enable
  2531  07D1  0AB5               	incf	NRF_OpenReadingPipe@Enable,f
  2532  07D2  3000               	movlw	0
  2533  07D3  318E  26B9  3187   	fcall	_NRF_OpenReadingPipe
  2534  07D6                     l2844:
  2535  07D6  3004               	movlw	4
  2536  07D7  0020               	movlb	0	; select bank0
  2537  07D8  00C0               	movwf	??_Appl_Init
  2538  07D9  0840               	movf	??_Appl_Init,w
  2539  07DA  00AD               	movwf	NRF_SetART@delay
  2540  07DB  300A               	movlw	10
  2541  07DC  318A  22CA  3187   	fcall	_NRF_SetART
  2542  07DF                     l2846:
  2543  07DF  3070               	movlw	112
  2544  07E0  0020               	movlb	0	; select bank0
  2545  07E1  00A6               	movwf	NRF_Write_Register@Bytes
  2546  07E2  3000               	movlw	0
  2547  07E3  00A7               	movwf	NRF_Write_Register@Bytes+1
  2548  07E4  01A8               	clrf	NRF_Write_Register@Length
  2549  07E5  0AA8               	incf	NRF_Write_Register@Length,f
  2550  07E6  3007               	movlw	7
  2551  07E7  318B  23F3  3187   	fcall	_NRF_Write_Register
  2552  07EA                     l2848:
  2553  07EA  3189  21F9  3187   	fcall	_NRF_StartListening
  2554  07ED                     l71:
  2555  07ED  0008               	return
  2556  07EE                     __end_of_Appl_Init:
  2557                           
  2558                           	psect	text4
  2559  09E1                     __ptext4:	
  2560 ;; *************** function _SetPWM2 *****************
  2561 ;; Defined at:
  2562 ;;		line 60 in file "02-SRC/04-DRIVER/target.c"
  2563 ;; Parameters:    Size  Location     Type
  2564 ;;  DutyCycle       2    2[BANK0 ] unsigned short 
  2565 ;; Auto vars:     Size  Location     Type
  2566 ;;		None
  2567 ;; Return value:  Size  Location     Type
  2568 ;;                  1    wreg      void 
  2569 ;; Registers used:
  2570 ;;		wreg, status,2, status,0
  2571 ;; Tracked objects:
  2572 ;;		On entry : 0/0
  2573 ;;		On exit  : 0/0
  2574 ;;		Unchanged: 0/0
  2575 ;; Data sizes:     COMMON   BANK0   BANK1   BANK2   BANK3   BANK4   BANK5   BANK6
  2576 ;;      Params:         0       2       0       0       0       0       0       0
  2577 ;;      Locals:         0       0       0       0       0       0       0       0
  2578 ;;      Temps:          0       2       0       0       0       0       0       0
  2579 ;;      Totals:         0       4       0       0       0       0       0       0
  2580 ;;Total ram usage:        4 bytes
  2581 ;; Hardware stack levels used:    1
  2582 ;; Hardware stack levels required when called:    4
  2583 ;; This function calls:
  2584 ;;		Nothing
  2585 ;; This function is called by:
  2586 ;;		_Appl_Init
  2587 ;; This function uses a non-reentrant model
  2588 ;;
  2589                           
  2590                           
  2591                           ;psect for function _SetPWM2
  2592  09E1                     _SetPWM2:
  2593  09E1                     l2274:	
  2594                           ;incstack = 0
  2595                           ; Regs used in _SetPWM2: [wreg+status,2+status,0]
  2596                           
  2597  09E1  0020               	movlb	0	; select bank0
  2598  09E2  0822               	movf	SetPWM2@DutyCycle,w
  2599  09E3  00A4               	movwf	??_SetPWM2
  2600  09E4  3005               	movlw	5
  2601  09E5                     u2445:
  2602  09E5  35A4               	lslf	??_SetPWM2,f
  2603  09E6  3EFF               	addlw	-1
  2604  09E7  1D03               	skipz
  2605  09E8  29E5               	goto	u2445
  2606  09E9  3524               	lslf	??_SetPWM2,w
  2607  09EA  002C               	movlb	12	; select bank12
  2608  09EB  0094               	movwf	20	;volatile
  2609  09EC  0020               	movlb	0	; select bank0
  2610  09ED  0823               	movf	SetPWM2@DutyCycle+1,w
  2611  09EE  00A5               	movwf	??_SetPWM2+1
  2612  09EF  0822               	movf	SetPWM2@DutyCycle,w
  2613  09F0  00A4               	movwf	??_SetPWM2
  2614  09F1  36A5               	lsrf	??_SetPWM2+1,f
  2615  09F2  0CA4               	rrf	??_SetPWM2,f
  2616  09F3  36A5               	lsrf	??_SetPWM2+1,f
  2617  09F4  0CA4               	rrf	??_SetPWM2,f
  2618  09F5  0824               	movf	??_SetPWM2,w
  2619  09F6  002C               	movlb	12	; select bank12
  2620  09F7  0095               	movwf	21	;volatile
  2621  09F8                     l349:
  2622  09F8  0008               	return
  2623  09F9                     __end_of_SetPWM2:
  2624                           
  2625                           	psect	text5
  2626  0990                     __ptext5:	
  2627 ;; *************** function _QueueInit *****************
  2628 ;; Defined at:
  2629 ;;		line 58 in file "02-SRC/02-APPLICATION/Appl.c"
  2630 ;; Parameters:    Size  Location     Type
  2631 ;;		None
  2632 ;; Auto vars:     Size  Location     Type
  2633 ;;		None
  2634 ;; Return value:  Size  Location     Type
  2635 ;;                  1    wreg      void 
  2636 ;; Registers used:
  2637 ;;		wreg
  2638 ;; Tracked objects:
  2639 ;;		On entry : 0/0
  2640 ;;		On exit  : 0/0
  2641 ;;		Unchanged: 0/0
  2642 ;; Data sizes:     COMMON   BANK0   BANK1   BANK2   BANK3   BANK4   BANK5   BANK6
  2643 ;;      Params:         0       0       0       0       0       0       0       0
  2644 ;;      Locals:         0       0       0       0       0       0       0       0
  2645 ;;      Temps:          0       0       0       0       0       0       0       0
  2646 ;;      Totals:         0       0       0       0       0       0       0       0
  2647 ;;Total ram usage:        0 bytes
  2648 ;; Hardware stack levels used:    1
  2649 ;; Hardware stack levels required when called:    4
  2650 ;; This function calls:
  2651 ;;		Nothing
  2652 ;; This function is called by:
  2653 ;;		_Appl_Init
  2654 ;; This function uses a non-reentrant model
  2655 ;;
  2656                           
  2657                           
  2658                           ;psect for function _QueueInit
  2659  0990                     _QueueInit:
  2660  0990                     l2276:	
  2661                           ;incstack = 0
  2662                           ; Regs used in _QueueInit: [wreg]
  2663                           
  2664  0990  3080               	movlw	128
  2665  0991  0020               	movlb	0	; select bank0
  2666  0992  00EB               	movwf	_MyQueue+4
  2667  0993  3000               	movlw	0
  2668  0994  00EC               	movwf	_MyQueue+5
  2669  0995  30FF               	movlw	255
  2670  0996  00E7               	movwf	_MyQueue
  2671  0997  30FF               	movlw	255
  2672  0998  00E8               	movwf	_MyQueue+1
  2673  0999  30FF               	movlw	255
  2674  099A  00E9               	movwf	_MyQueue+2
  2675  099B  30FF               	movlw	255
  2676  099C  00EA               	movwf	_MyQueue+3
  2677  099D                     l74:
  2678  099D  0008               	return
  2679  099E                     __end_of_QueueInit:
  2680                           
  2681                           	psect	text6
  2682  09F9                     __ptext6:	
  2683 ;; *************** function _NRF_StartListening *****************
  2684 ;; Defined at:
  2685 ;;		line 129 in file "02-SRC/04-DRIVER/NRF24L01/NRF24L01.c"
  2686 ;; Parameters:    Size  Location     Type
  2687 ;;		None
  2688 ;; Auto vars:     Size  Location     Type
  2689 ;;		None
  2690 ;; Return value:  Size  Location     Type
  2691 ;;                  1    wreg      void 
  2692 ;; Registers used:
  2693 ;;		wreg, fsr1l, fsr1h, status,2, status,0, pclath, cstack
  2694 ;; Tracked objects:
  2695 ;;		On entry : 0/0
  2696 ;;		On exit  : 0/0
  2697 ;;		Unchanged: 0/0
  2698 ;; Data sizes:     COMMON   BANK0   BANK1   BANK2   BANK3   BANK4   BANK5   BANK6
  2699 ;;      Params:         0       0       0       0       0       0       0       0
  2700 ;;      Locals:         0       0       0       0       0       0       0       0
  2701 ;;      Temps:          0       1       0       0       0       0       0       0
  2702 ;;      Totals:         0       1       0       0       0       0       0       0
  2703 ;;Total ram usage:        1 bytes
  2704 ;; Hardware stack levels used:    1
  2705 ;; Hardware stack levels required when called:    6
  2706 ;; This function calls:
  2707 ;;		_NRF_Read_Register
  2708 ;;		_NRF_Write_Register
  2709 ;; This function is called by:
  2710 ;;		_Appl_Init
  2711 ;; This function uses a non-reentrant model
  2712 ;;
  2713                           
  2714                           
  2715                           ;psect for function _NRF_StartListening
  2716  09F9                     _NRF_StartListening:
  2717  09F9                     l2800:	
  2718                           ;incstack = 0
  2719                           ; Regs used in _NRF_StartListening: [wreg+fsr1l+fsr1h+status,2+status,0+pclath+cstack]
  2720                           
  2721  09F9  30CB               	movlw	(low (_NRFChip| 0))& (0+255)
  2722  09FA  0020               	movlb	0	; select bank0
  2723  09FB  00AD               	movwf	??_NRF_StartListening
  2724  09FC  082D               	movf	??_NRF_StartListening,w
  2725  09FD  00A3               	movwf	NRF_Read_Register@Bytes
  2726  09FE  01A4               	clrf	NRF_Read_Register@Length
  2727  09FF  0AA4               	incf	NRF_Read_Register@Length,f
  2728  0A00  3000               	movlw	0
  2729  0A01  318C  2425  3189   	fcall	_NRF_Read_Register
  2730  0A04                     l2802:
  2731  0A04  0021               	movlb	1	; select bank1
  2732  0A05  144B               	bsf	_NRFChip^(0+128),0
  2733  0A06                     l2804:
  2734  0A06  14CB               	bsf	_NRFChip^(0+128),1
  2735  0A07  30CB               	movlw	low _NRFChip
  2736  0A08  0020               	movlb	0	; select bank0
  2737  0A09  00A6               	movwf	NRF_Write_Register@Bytes
  2738  0A0A  3000               	movlw	high _NRFChip
  2739  0A0B  00A7               	movwf	NRF_Write_Register@Bytes+1
  2740  0A0C  01A8               	clrf	NRF_Write_Register@Length
  2741  0A0D  0AA8               	incf	NRF_Write_Register@Length,f
  2742  0A0E  3000               	movlw	0
  2743  0A0F  318B  23F3  3189   	fcall	_NRF_Write_Register
  2744  0A12  0020               	movlb	0	; select bank0
  2745  0A13  00AD               	movwf	??_NRF_StartListening
  2746  0A14  082D               	movf	??_NRF_StartListening,w
  2747  0A15  0021               	movlb	1	; select bank1
  2748  0A16  00D0               	movwf	(_NRFChip^(0+128)+5)
  2749  0A17                     l2806:
  2750  0A17  0022               	movlb	2	; select bank2
  2751  0A18  140E               	bsf	14,0	;volatile
  2752  0A19                     l222:
  2753  0A19  0008               	return
  2754  0A1A                     __end_of_NRF_StartListening:
  2755                           
  2756                           	psect	text7
  2757  0CF8                     __ptext7:	
  2758 ;; *************** function _NRF_SetRFPower *****************
  2759 ;; Defined at:
  2760 ;;		line 100 in file "02-SRC/04-DRIVER/NRF24L01/NRF24L01.c"
  2761 ;; Parameters:    Size  Location     Type
  2762 ;;  RF_Pow          1    wreg     unsigned char 
  2763 ;; Auto vars:     Size  Location     Type
  2764 ;;  RF_Pow          1   17[BANK0 ] unsigned char 
  2765 ;; Return value:  Size  Location     Type
  2766 ;;                  1    wreg      void 
  2767 ;; Registers used:
  2768 ;;		wreg, fsr1l, fsr1h, status,2, status,0, pclath, cstack
  2769 ;; Tracked objects:
  2770 ;;		On entry : 0/0
  2771 ;;		On exit  : 0/0
  2772 ;;		Unchanged: 0/0
  2773 ;; Data sizes:     COMMON   BANK0   BANK1   BANK2   BANK3   BANK4   BANK5   BANK6
  2774 ;;      Params:         0       0       0       0       0       0       0       0
  2775 ;;      Locals:         0       3       0       0       0       0       0       0
  2776 ;;      Temps:          0       2       0       0       0       0       0       0
  2777 ;;      Totals:         0       5       0       0       0       0       0       0
  2778 ;;Total ram usage:        5 bytes
  2779 ;; Hardware stack levels used:    1
  2780 ;; Hardware stack levels required when called:    6
  2781 ;; This function calls:
  2782 ;;		_NRF_Read_Register
  2783 ;;		_NRF_Write_Register
  2784 ;; This function is called by:
  2785 ;;		_Appl_Init
  2786 ;; This function uses a non-reentrant model
  2787 ;;
  2788                           
  2789                           
  2790                           ;psect for function _NRF_SetRFPower
  2791  0CF8                     _NRF_SetRFPower:
  2792                           
  2793                           ;incstack = 0
  2794                           ; Regs used in _NRF_SetRFPower: [wreg+fsr1l+fsr1h+status,2+status,0+pclath+cstack]
  2795                           ;NRF_SetRFPower@RF_Pow stored from wreg
  2796  0CF8  0020               	movlb	0	; select bank0
  2797  0CF9  00B1               	movwf	NRF_SetRFPower@RF_Pow
  2798  0CFA                     l2746:
  2799  0CFA  30CF               	movlw	(low ((_NRFChip| 0+4)))& (0+255)
  2800  0CFB  00AD               	movwf	??_NRF_SetRFPower
  2801  0CFC  082D               	movf	??_NRF_SetRFPower,w
  2802  0CFD  00A3               	movwf	NRF_Read_Register@Bytes
  2803  0CFE  01A4               	clrf	NRF_Read_Register@Length
  2804  0CFF  0AA4               	incf	NRF_Read_Register@Length,f
  2805  0D00  3006               	movlw	6
  2806  0D01  318C  2425  318C   	fcall	_NRF_Read_Register
  2807  0D04                     l2748:
  2808  0D04  3004               	movlw	4
  2809  0D05  0020               	movlb	0	; select bank0
  2810  0D06  0231               	subwf	NRF_SetRFPower@RF_Pow,w
  2811  0D07  1803               	skipnc
  2812  0D08  2D0A               	goto	u2891
  2813  0D09  2D0B               	goto	u2890
  2814  0D0A                     u2891:
  2815  0D0A  2D13               	goto	l2752
  2816  0D0B                     u2890:
  2817  0D0B                     l2750:
  2818  0D0B  0831               	movf	NRF_SetRFPower@RF_Pow,w
  2819  0D0C  00AD               	movwf	??_NRF_SetRFPower
  2820  0D0D  01AE               	clrf	??_NRF_SetRFPower+1
  2821  0D0E  082D               	movf	??_NRF_SetRFPower,w
  2822  0D0F  00AF               	movwf	_NRF_SetRFPower$451
  2823  0D10  082E               	movf	??_NRF_SetRFPower+1,w
  2824  0D11  00B0               	movwf	_NRF_SetRFPower$451+1
  2825  0D12  2D17               	goto	l2754
  2826  0D13                     l2752:
  2827  0D13  3003               	movlw	3
  2828  0D14  00AF               	movwf	_NRF_SetRFPower$451
  2829  0D15  3000               	movlw	0
  2830  0D16  00B0               	movwf	_NRF_SetRFPower$451+1
  2831  0D17                     l2754:
  2832  0D17  082F               	movf	_NRF_SetRFPower$451,w
  2833  0D18  00AD               	movwf	??_NRF_SetRFPower
  2834  0D19  0DAD               	rlf	??_NRF_SetRFPower,f
  2835  0D1A  0021               	movlb	1	; select bank1
  2836  0D1B  084F               	movf	(_NRFChip^(0+128)+4),w
  2837  0D1C  0020               	movlb	0	; select bank0
  2838  0D1D  062D               	xorwf	??_NRF_SetRFPower,w
  2839  0D1E  39F9               	andlw	-7
  2840  0D1F  062D               	xorwf	??_NRF_SetRFPower,w
  2841  0D20  0021               	movlb	1	; select bank1
  2842  0D21  00CF               	movwf	(_NRFChip^(0+128)+4)
  2843  0D22                     l2756:
  2844  0D22  30CF               	movlw	low (_NRFChip+4)
  2845  0D23  0020               	movlb	0	; select bank0
  2846  0D24  00A6               	movwf	NRF_Write_Register@Bytes
  2847  0D25  3000               	movlw	high (_NRFChip+4)
  2848  0D26  00A7               	movwf	NRF_Write_Register@Bytes+1
  2849  0D27  01A8               	clrf	NRF_Write_Register@Length
  2850  0D28  0AA8               	incf	NRF_Write_Register@Length,f
  2851  0D29  3006               	movlw	6
  2852  0D2A  318B  23F3  318C   	fcall	_NRF_Write_Register
  2853  0D2D  0020               	movlb	0	; select bank0
  2854  0D2E  00AD               	movwf	??_NRF_SetRFPower
  2855  0D2F  082D               	movf	??_NRF_SetRFPower,w
  2856  0D30  0021               	movlb	1	; select bank1
  2857  0D31  00D0               	movwf	(_NRFChip^(0+128)+5)
  2858  0D32                     l206:
  2859  0D32  0008               	return
  2860  0D33                     __end_of_NRF_SetRFPower:
  2861                           
  2862                           	psect	text8
  2863  0B99                     __ptext8:	
  2864 ;; *************** function _NRF_SetRFDataRate *****************
  2865 ;; Defined at:
  2866 ;;		line 107 in file "02-SRC/04-DRIVER/NRF24L01/NRF24L01.c"
  2867 ;; Parameters:    Size  Location     Type
  2868 ;;  Datarate        1    wreg     unsigned char 
  2869 ;; Auto vars:     Size  Location     Type
  2870 ;;  Datarate        1   14[BANK0 ] unsigned char 
  2871 ;; Return value:  Size  Location     Type
  2872 ;;                  1    wreg      void 
  2873 ;; Registers used:
  2874 ;;		wreg, fsr1l, fsr1h, status,2, status,0, pclath, cstack
  2875 ;; Tracked objects:
  2876 ;;		On entry : 0/0
  2877 ;;		On exit  : 0/0
  2878 ;;		Unchanged: 0/0
  2879 ;; Data sizes:     COMMON   BANK0   BANK1   BANK2   BANK3   BANK4   BANK5   BANK6
  2880 ;;      Params:         0       0       0       0       0       0       0       0
  2881 ;;      Locals:         0       1       0       0       0       0       0       0
  2882 ;;      Temps:          0       1       0       0       0       0       0       0
  2883 ;;      Totals:         0       2       0       0       0       0       0       0
  2884 ;;Total ram usage:        2 bytes
  2885 ;; Hardware stack levels used:    1
  2886 ;; Hardware stack levels required when called:    6
  2887 ;; This function calls:
  2888 ;;		_NRF_Read_Register
  2889 ;;		_NRF_Write_Register
  2890 ;; This function is called by:
  2891 ;;		_Appl_Init
  2892 ;; This function uses a non-reentrant model
  2893 ;;
  2894                           
  2895                           
  2896                           ;psect for function _NRF_SetRFDataRate
  2897  0B99                     _NRF_SetRFDataRate:
  2898                           
  2899                           ;incstack = 0
  2900                           ; Regs used in _NRF_SetRFDataRate: [wreg+fsr1l+fsr1h+status,2+status,0+pclath+cstack]
  2901                           ;NRF_SetRFDataRate@Datarate stored from wreg
  2902  0B99  0020               	movlb	0	; select bank0
  2903  0B9A  00AE               	movwf	NRF_SetRFDataRate@Datarate
  2904  0B9B                     l2740:
  2905  0B9B  30CF               	movlw	(low ((_NRFChip| 0+4)))& (0+255)
  2906  0B9C  00AD               	movwf	??_NRF_SetRFDataRate
  2907  0B9D  082D               	movf	??_NRF_SetRFDataRate,w
  2908  0B9E  00A3               	movwf	NRF_Read_Register@Bytes
  2909  0B9F  01A4               	clrf	NRF_Read_Register@Length
  2910  0BA0  0AA4               	incf	NRF_Read_Register@Length,f
  2911  0BA1  3006               	movlw	6
  2912  0BA2  318C  2425  318B   	fcall	_NRF_Read_Register
  2913  0BA5                     l2742:
  2914  0BA5  0020               	movlb	0	; select bank0
  2915  0BA6  082E               	movf	NRF_SetRFDataRate@Datarate,w
  2916  0BA7  3901               	andlw	1
  2917  0BA8  00AD               	movwf	??_NRF_SetRFDataRate
  2918  0BA9  0DAD               	rlf	??_NRF_SetRFDataRate,f
  2919  0BAA  0DAD               	rlf	??_NRF_SetRFDataRate,f
  2920  0BAB  0DAD               	rlf	??_NRF_SetRFDataRate,f
  2921  0BAC  0021               	movlb	1	; select bank1
  2922  0BAD  084F               	movf	(_NRFChip^(0+128)+4),w
  2923  0BAE  0020               	movlb	0	; select bank0
  2924  0BAF  062D               	xorwf	??_NRF_SetRFDataRate,w
  2925  0BB0  39F7               	andlw	-9
  2926  0BB1  062D               	xorwf	??_NRF_SetRFDataRate,w
  2927  0BB2  0021               	movlb	1	; select bank1
  2928  0BB3  00CF               	movwf	(_NRFChip^(0+128)+4)
  2929  0BB4                     l2744:
  2930  0BB4  30CF               	movlw	low (_NRFChip+4)
  2931  0BB5  0020               	movlb	0	; select bank0
  2932  0BB6  00A6               	movwf	NRF_Write_Register@Bytes
  2933  0BB7  3000               	movlw	high (_NRFChip+4)
  2934  0BB8  00A7               	movwf	NRF_Write_Register@Bytes+1
  2935  0BB9  01A8               	clrf	NRF_Write_Register@Length
  2936  0BBA  0AA8               	incf	NRF_Write_Register@Length,f
  2937  0BBB  3006               	movlw	6
  2938  0BBC  318B  23F3  318B   	fcall	_NRF_Write_Register
  2939  0BBF  0020               	movlb	0	; select bank0
  2940  0BC0  00AD               	movwf	??_NRF_SetRFDataRate
  2941  0BC1  082D               	movf	??_NRF_SetRFDataRate,w
  2942  0BC2  0021               	movlb	1	; select bank1
  2943  0BC3  00D0               	movwf	(_NRFChip^(0+128)+5)
  2944  0BC4                     l209:
  2945  0BC4  0008               	return
  2946  0BC5                     __end_of_NRF_SetRFDataRate:
  2947                           
  2948                           	psect	text9
  2949  0B43                     __ptext9:	
  2950 ;; *************** function _NRF_SetRFChannel *****************
  2951 ;; Defined at:
  2952 ;;		line 94 in file "02-SRC/04-DRIVER/NRF24L01/NRF24L01.c"
  2953 ;; Parameters:    Size  Location     Type
  2954 ;;  RF_Channel      1    wreg     unsigned char 
  2955 ;; Auto vars:     Size  Location     Type
  2956 ;;  RF_Channel      1   17[BANK0 ] unsigned char 
  2957 ;; Return value:  Size  Location     Type
  2958 ;;                  1    wreg      void 
  2959 ;; Registers used:
  2960 ;;		wreg, fsr1l, fsr1h, status,2, status,0, pclath, cstack
  2961 ;; Tracked objects:
  2962 ;;		On entry : 0/0
  2963 ;;		On exit  : 0/0
  2964 ;;		Unchanged: 0/0
  2965 ;; Data sizes:     COMMON   BANK0   BANK1   BANK2   BANK3   BANK4   BANK5   BANK6
  2966 ;;      Params:         0       0       0       0       0       0       0       0
  2967 ;;      Locals:         0       3       0       0       0       0       0       0
  2968 ;;      Temps:          0       2       0       0       0       0       0       0
  2969 ;;      Totals:         0       5       0       0       0       0       0       0
  2970 ;;Total ram usage:        5 bytes
  2971 ;; Hardware stack levels used:    1
  2972 ;; Hardware stack levels required when called:    6
  2973 ;; This function calls:
  2974 ;;		_NRF_Write_Register
  2975 ;; This function is called by:
  2976 ;;		_Appl_Init
  2977 ;; This function uses a non-reentrant model
  2978 ;;
  2979                           
  2980                           
  2981                           ;psect for function _NRF_SetRFChannel
  2982  0B43                     _NRF_SetRFChannel:
  2983                           
  2984                           ;incstack = 0
  2985                           ; Regs used in _NRF_SetRFChannel: [wreg+fsr1l+fsr1h+status,2+status,0+pclath+cstack]
  2986                           ;NRF_SetRFChannel@RF_Channel stored from wreg
  2987  0B43  0020               	movlb	0	; select bank0
  2988  0B44  00B1               	movwf	NRF_SetRFChannel@RF_Channel
  2989  0B45                     l2758:
  2990  0B45  307E               	movlw	126
  2991  0B46  0231               	subwf	NRF_SetRFChannel@RF_Channel,w
  2992  0B47  1803               	skipnc
  2993  0B48  2B4A               	goto	u2901
  2994  0B49  2B4B               	goto	u2900
  2995  0B4A                     u2901:
  2996  0B4A  2B53               	goto	l2762
  2997  0B4B                     u2900:
  2998  0B4B                     l2760:
  2999  0B4B  0831               	movf	NRF_SetRFChannel@RF_Channel,w
  3000  0B4C  00AD               	movwf	??_NRF_SetRFChannel
  3001  0B4D  01AE               	clrf	??_NRF_SetRFChannel+1
  3002  0B4E  082D               	movf	??_NRF_SetRFChannel,w
  3003  0B4F  00AF               	movwf	_NRF_SetRFChannel$444
  3004  0B50  082E               	movf	??_NRF_SetRFChannel+1,w
  3005  0B51  00B0               	movwf	_NRF_SetRFChannel$444+1
  3006  0B52  2B57               	goto	l198
  3007  0B53                     l2762:
  3008  0B53  307D               	movlw	125
  3009  0B54  00AF               	movwf	_NRF_SetRFChannel$444
  3010  0B55  3000               	movlw	0
  3011  0B56  00B0               	movwf	_NRF_SetRFChannel$444+1
  3012  0B57                     l198:
  3013  0B57  082F               	movf	_NRF_SetRFChannel$444,w
  3014  0B58  00AD               	movwf	??_NRF_SetRFChannel
  3015  0B59  082D               	movf	??_NRF_SetRFChannel,w
  3016  0B5A  0021               	movlb	1	; select bank1
  3017  0B5B  00CE               	movwf	(_NRFChip^(0+128)+3)
  3018  0B5C                     l2764:
  3019  0B5C  30CE               	movlw	low (_NRFChip+3)
  3020  0B5D  0020               	movlb	0	; select bank0
  3021  0B5E  00A6               	movwf	NRF_Write_Register@Bytes
  3022  0B5F  3000               	movlw	high (_NRFChip+3)
  3023  0B60  00A7               	movwf	NRF_Write_Register@Bytes+1
  3024  0B61  01A8               	clrf	NRF_Write_Register@Length
  3025  0B62  0AA8               	incf	NRF_Write_Register@Length,f
  3026  0B63  3005               	movlw	5
  3027  0B64  318B  23F3  318B   	fcall	_NRF_Write_Register
  3028  0B67  0020               	movlb	0	; select bank0
  3029  0B68  00AD               	movwf	??_NRF_SetRFChannel
  3030  0B69  082D               	movf	??_NRF_SetRFChannel,w
  3031  0B6A  0021               	movlb	1	; select bank1
  3032  0B6B  00D0               	movwf	(_NRFChip^(0+128)+5)
  3033  0B6C                     l199:
  3034  0B6C  0008               	return
  3035  0B6D                     __end_of_NRF_SetRFChannel:
  3036                           
  3037                           	psect	text10
  3038  0AA6                     __ptext10:	
  3039 ;; *************** function _NRF_SetCRCLen *****************
  3040 ;; Defined at:
  3041 ;;		line 87 in file "02-SRC/04-DRIVER/NRF24L01/NRF24L01.c"
  3042 ;; Parameters:    Size  Location     Type
  3043 ;;  Len             1    wreg     unsigned char 
  3044 ;; Auto vars:     Size  Location     Type
  3045 ;;  Len             1   14[BANK0 ] unsigned char 
  3046 ;; Return value:  Size  Location     Type
  3047 ;;                  1    wreg      void 
  3048 ;; Registers used:
  3049 ;;		wreg, fsr1l, fsr1h, status,2, status,0, pclath, cstack
  3050 ;; Tracked objects:
  3051 ;;		On entry : 0/0
  3052 ;;		On exit  : 0/0
  3053 ;;		Unchanged: 0/0
  3054 ;; Data sizes:     COMMON   BANK0   BANK1   BANK2   BANK3   BANK4   BANK5   BANK6
  3055 ;;      Params:         0       0       0       0       0       0       0       0
  3056 ;;      Locals:         0       1       0       0       0       0       0       0
  3057 ;;      Temps:          0       1       0       0       0       0       0       0
  3058 ;;      Totals:         0       2       0       0       0       0       0       0
  3059 ;;Total ram usage:        2 bytes
  3060 ;; Hardware stack levels used:    1
  3061 ;; Hardware stack levels required when called:    6
  3062 ;; This function calls:
  3063 ;;		_NRF_Read_Register
  3064 ;;		_NRF_Write_Register
  3065 ;; This function is called by:
  3066 ;;		_Appl_Init
  3067 ;; This function uses a non-reentrant model
  3068 ;;
  3069                           
  3070                           
  3071                           ;psect for function _NRF_SetCRCLen
  3072  0AA6                     _NRF_SetCRCLen:
  3073                           
  3074                           ;incstack = 0
  3075                           ; Regs used in _NRF_SetCRCLen: [wreg+fsr1l+fsr1h+status,2+status,0+pclath+cstack]
  3076                           ;NRF_SetCRCLen@Len stored from wreg
  3077  0AA6  0020               	movlb	0	; select bank0
  3078  0AA7  00AE               	movwf	NRF_SetCRCLen@Len
  3079  0AA8                     l2724:
  3080  0AA8  30CB               	movlw	(low (_NRFChip| 0))& (0+255)
  3081  0AA9  00AD               	movwf	??_NRF_SetCRCLen
  3082  0AAA  082D               	movf	??_NRF_SetCRCLen,w
  3083  0AAB  00A3               	movwf	NRF_Read_Register@Bytes
  3084  0AAC  01A4               	clrf	NRF_Read_Register@Length
  3085  0AAD  0AA4               	incf	NRF_Read_Register@Length,f
  3086  0AAE  3000               	movlw	0
  3087  0AAF  318C  2425  318A   	fcall	_NRF_Read_Register
  3088  0AB2                     l2726:
  3089  0AB2  0020               	movlb	0	; select bank0
  3090  0AB3  082E               	movf	NRF_SetCRCLen@Len,w
  3091  0AB4  3901               	andlw	1
  3092  0AB5  0021               	movlb	1	; select bank1
  3093  0AB6  114B               	bcf	_NRFChip^(0+128),2
  3094  0AB7  1D03               	skipz
  3095  0AB8  154B               	bsf	_NRFChip^(0+128),2
  3096  0AB9                     l2728:
  3097  0AB9  30CB               	movlw	low _NRFChip
  3098  0ABA  0020               	movlb	0	; select bank0
  3099  0ABB  00A6               	movwf	NRF_Write_Register@Bytes
  3100  0ABC  3000               	movlw	high _NRFChip
  3101  0ABD  00A7               	movwf	NRF_Write_Register@Bytes+1
  3102  0ABE  01A8               	clrf	NRF_Write_Register@Length
  3103  0ABF  0AA8               	incf	NRF_Write_Register@Length,f
  3104  0AC0  3000               	movlw	0
  3105  0AC1  318B  23F3  318A   	fcall	_NRF_Write_Register
  3106  0AC4  0020               	movlb	0	; select bank0
  3107  0AC5  00AD               	movwf	??_NRF_SetCRCLen
  3108  0AC6  082D               	movf	??_NRF_SetCRCLen,w
  3109  0AC7  0021               	movlb	1	; select bank1
  3110  0AC8  00D0               	movwf	(_NRFChip^(0+128)+5)
  3111  0AC9                     l192:
  3112  0AC9  0008               	return
  3113  0ACA                     __end_of_NRF_SetCRCLen:
  3114                           
  3115                           	psect	text11
  3116  0C58                     __ptext11:	
  3117 ;; *************** function _NRF_SetAddrWidth *****************
  3118 ;; Defined at:
  3119 ;;		line 114 in file "02-SRC/04-DRIVER/NRF24L01/NRF24L01.c"
  3120 ;; Parameters:    Size  Location     Type
  3121 ;;  AddressWidth    1    wreg     unsigned char 
  3122 ;; Auto vars:     Size  Location     Type
  3123 ;;  AddressWidth    1   16[BANK0 ] unsigned char 
  3124 ;; Return value:  Size  Location     Type
  3125 ;;                  1    wreg      void 
  3126 ;; Registers used:
  3127 ;;		wreg, fsr1l, fsr1h, status,2, status,0, pclath, cstack
  3128 ;; Tracked objects:
  3129 ;;		On entry : 0/0
  3130 ;;		On exit  : 0/0
  3131 ;;		Unchanged: 0/0
  3132 ;; Data sizes:     COMMON   BANK0   BANK1   BANK2   BANK3   BANK4   BANK5   BANK6
  3133 ;;      Params:         0       0       0       0       0       0       0       0
  3134 ;;      Locals:         0       3       0       0       0       0       0       0
  3135 ;;      Temps:          0       1       0       0       0       0       0       0
  3136 ;;      Totals:         0       4       0       0       0       0       0       0
  3137 ;;Total ram usage:        4 bytes
  3138 ;; Hardware stack levels used:    1
  3139 ;; Hardware stack levels required when called:    6
  3140 ;; This function calls:
  3141 ;;		_NRF_Write_Register
  3142 ;; This function is called by:
  3143 ;;		_Appl_Init
  3144 ;; This function uses a non-reentrant model
  3145 ;;
  3146                           
  3147                           
  3148                           ;psect for function _NRF_SetAddrWidth
  3149  0C58                     _NRF_SetAddrWidth:
  3150                           
  3151                           ;incstack = 0
  3152                           ; Regs used in _NRF_SetAddrWidth: [wreg+fsr1l+fsr1h+status,2+status,0+pclath+cstack]
  3153                           ;NRF_SetAddrWidth@AddressWidth stored from wreg
  3154  0C58  0020               	movlb	0	; select bank0
  3155  0C59  00B0               	movwf	NRF_SetAddrWidth@AddressWidth
  3156  0C5A                     l2730:
  3157  0C5A  0830               	movf	NRF_SetAddrWidth@AddressWidth,w
  3158  0C5B  1903               	btfsc	3,2
  3159  0C5C  2C5E               	goto	u2861
  3160  0C5D  2C60               	goto	u2860
  3161  0C5E                     u2861:
  3162  0C5E  3001               	movlw	1
  3163  0C5F  2C61               	goto	u2870
  3164  0C60                     u2860:
  3165  0C60  3000               	movlw	0
  3166  0C61                     u2870:
  3167  0C61  00AD               	movwf	??_NRF_SetAddrWidth
  3168  0C62  082D               	movf	??_NRF_SetAddrWidth,w
  3169  0C63  07B0               	addwf	NRF_SetAddrWidth@AddressWidth,f
  3170  0C64                     l2732:
  3171  0C64  3004               	movlw	4
  3172  0C65  0230               	subwf	NRF_SetAddrWidth@AddressWidth,w
  3173  0C66  1803               	skipnc
  3174  0C67  2C69               	goto	u2881
  3175  0C68  2C6A               	goto	u2880
  3176  0C69                     u2881:
  3177  0C69  2C6D               	goto	l2736
  3178  0C6A                     u2880:
  3179  0C6A                     l2734:
  3180  0C6A  01AE               	clrf	_NRF_SetAddrWidth$456
  3181  0C6B  01AF               	clrf	_NRF_SetAddrWidth$456+1
  3182  0C6C  2C71               	goto	l215
  3183  0C6D                     l2736:
  3184  0C6D  3003               	movlw	3
  3185  0C6E  00AE               	movwf	_NRF_SetAddrWidth$456
  3186  0C6F  3000               	movlw	0
  3187  0C70  00AF               	movwf	_NRF_SetAddrWidth$456+1
  3188  0C71                     l215:
  3189  0C71  082E               	movf	_NRF_SetAddrWidth$456,w
  3190  0C72  00AD               	movwf	??_NRF_SetAddrWidth
  3191  0C73  082D               	movf	??_NRF_SetAddrWidth,w
  3192  0C74  00B0               	movwf	NRF_SetAddrWidth@AddressWidth
  3193  0C75  0830               	movf	NRF_SetAddrWidth@AddressWidth,w
  3194  0C76  00AD               	movwf	??_NRF_SetAddrWidth
  3195  0C77  082D               	movf	??_NRF_SetAddrWidth,w
  3196  0C78  0021               	movlb	1	; select bank1
  3197  0C79  00CC               	movwf	(_NRFChip^(0+128)+1)
  3198  0C7A                     l2738:
  3199  0C7A  30CC               	movlw	low (_NRFChip+1)
  3200  0C7B  0020               	movlb	0	; select bank0
  3201  0C7C  00A6               	movwf	NRF_Write_Register@Bytes
  3202  0C7D  3000               	movlw	high (_NRFChip+1)
  3203  0C7E  00A7               	movwf	NRF_Write_Register@Bytes+1
  3204  0C7F  01A8               	clrf	NRF_Write_Register@Length
  3205  0C80  0AA8               	incf	NRF_Write_Register@Length,f
  3206  0C81  3003               	movlw	3
  3207  0C82  318B  23F3  318C   	fcall	_NRF_Write_Register
  3208  0C85  0020               	movlb	0	; select bank0
  3209  0C86  00AD               	movwf	??_NRF_SetAddrWidth
  3210  0C87  082D               	movf	??_NRF_SetAddrWidth,w
  3211  0C88  0021               	movlb	1	; select bank1
  3212  0C89  00D0               	movwf	(_NRFChip^(0+128)+5)
  3213  0C8A                     l216:
  3214  0C8A  0008               	return
  3215  0C8B                     __end_of_NRF_SetAddrWidth:
  3216                           
  3217                           	psect	text12
  3218  0ACA                     __ptext12:	
  3219 ;; *************** function _NRF_SetART *****************
  3220 ;; Defined at:
  3221 ;;		line 122 in file "02-SRC/04-DRIVER/NRF24L01/NRF24L01.c"
  3222 ;; Parameters:    Size  Location     Type
  3223 ;;  count           1    wreg     unsigned char 
  3224 ;;  delay           1   13[BANK0 ] unsigned char 
  3225 ;; Auto vars:     Size  Location     Type
  3226 ;;  count           1   15[BANK0 ] unsigned char 
  3227 ;; Return value:  Size  Location     Type
  3228 ;;                  1    wreg      void 
  3229 ;; Registers used:
  3230 ;;		wreg, fsr1l, fsr1h, status,2, status,0, pclath, cstack
  3231 ;; Tracked objects:
  3232 ;;		On entry : 0/0
  3233 ;;		On exit  : 0/0
  3234 ;;		Unchanged: 0/0
  3235 ;; Data sizes:     COMMON   BANK0   BANK1   BANK2   BANK3   BANK4   BANK5   BANK6
  3236 ;;      Params:         0       1       0       0       0       0       0       0
  3237 ;;      Locals:         0       1       0       0       0       0       0       0
  3238 ;;      Temps:          0       1       0       0       0       0       0       0
  3239 ;;      Totals:         0       3       0       0       0       0       0       0
  3240 ;;Total ram usage:        3 bytes
  3241 ;; Hardware stack levels used:    1
  3242 ;; Hardware stack levels required when called:    6
  3243 ;; This function calls:
  3244 ;;		_NRF_Write_Register
  3245 ;; This function is called by:
  3246 ;;		_Appl_Init
  3247 ;; This function uses a non-reentrant model
  3248 ;;
  3249                           
  3250                           
  3251                           ;psect for function _NRF_SetART
  3252  0ACA                     _NRF_SetART:
  3253                           
  3254                           ;incstack = 0
  3255                           ; Regs used in _NRF_SetART: [wreg+fsr1l+fsr1h+status,2+status,0+pclath+cstack]
  3256                           ;NRF_SetART@count stored from wreg
  3257  0ACA  0020               	movlb	0	; select bank0
  3258  0ACB  00AF               	movwf	NRF_SetART@count
  3259  0ACC                     l2796:
  3260  0ACC  0021               	movlb	1	; select bank1
  3261  0ACD  084D               	movf	(_NRFChip^(0+128)+2),w
  3262  0ACE  0020               	movlb	0	; select bank0
  3263  0ACF  062F               	xorwf	NRF_SetART@count,w
  3264  0AD0  39F0               	andlw	-16
  3265  0AD1  062F               	xorwf	NRF_SetART@count,w
  3266  0AD2  0021               	movlb	1	; select bank1
  3267  0AD3  00CD               	movwf	(_NRFChip^(0+128)+2)
  3268  0AD4  0020               	movlb	0	; select bank0
  3269  0AD5  082D               	movf	NRF_SetART@delay,w
  3270  0AD6  00AE               	movwf	??_NRF_SetART
  3271  0AD7  0EAE               	swapf	??_NRF_SetART,f
  3272  0AD8  0021               	movlb	1	; select bank1
  3273  0AD9  084D               	movf	(_NRFChip^(0+128)+2),w
  3274  0ADA  0020               	movlb	0	; select bank0
  3275  0ADB  062E               	xorwf	??_NRF_SetART,w
  3276  0ADC  390F               	andlw	-241
  3277  0ADD  062E               	xorwf	??_NRF_SetART,w
  3278  0ADE  0021               	movlb	1	; select bank1
  3279  0ADF  00CD               	movwf	(_NRFChip^(0+128)+2)
  3280  0AE0                     l2798:
  3281  0AE0  30CD               	movlw	low (_NRFChip+2)
  3282  0AE1  0020               	movlb	0	; select bank0
  3283  0AE2  00A6               	movwf	NRF_Write_Register@Bytes
  3284  0AE3  3000               	movlw	high (_NRFChip+2)
  3285  0AE4  00A7               	movwf	NRF_Write_Register@Bytes+1
  3286  0AE5  01A8               	clrf	NRF_Write_Register@Length
  3287  0AE6  0AA8               	incf	NRF_Write_Register@Length,f
  3288  0AE7  3004               	movlw	4
  3289  0AE8  318B  23F3  318A   	fcall	_NRF_Write_Register
  3290  0AEB  0020               	movlb	0	; select bank0
  3291  0AEC  00AE               	movwf	??_NRF_SetART
  3292  0AED  082E               	movf	??_NRF_SetART,w
  3293  0AEE  0021               	movlb	1	; select bank1
  3294  0AEF  00D0               	movwf	(_NRFChip^(0+128)+5)
  3295  0AF0                     l219:
  3296  0AF0  0008               	return
  3297  0AF1                     __end_of_NRF_SetART:
  3298                           
  3299                           	psect	text13
  3300  0EB9                     __ptext13:	
  3301 ;; *************** function _NRF_OpenReadingPipe *****************
  3302 ;; Defined at:
  3303 ;;		line 16 in file "02-SRC/04-DRIVER/NRF24L01/NRF24L01.c"
  3304 ;; Parameters:    Size  Location     Type
  3305 ;;  PipeNo          1    wreg     unsigned char 
  3306 ;;  PipeAddr        2   17[BANK0 ] PTR unsigned char 
  3307 ;;		 -> STR_1(6), 
  3308 ;;  PayloadLengt    1   19[BANK0 ] unsigned char 
  3309 ;;  AutoAck         1   20[BANK0 ] unsigned char 
  3310 ;;  Enable          1   21[BANK0 ] unsigned char 
  3311 ;; Auto vars:     Size  Location     Type
  3312 ;;  PipeNo          1   31[BANK0 ] unsigned char 
  3313 ;;  i               1   30[BANK0 ] unsigned char 
  3314 ;;  AW              1   29[BANK0 ] unsigned char 
  3315 ;; Return value:  Size  Location     Type
  3316 ;;                  1    wreg      void 
  3317 ;; Registers used:
  3318 ;;		wreg, fsr0l, fsr0h, fsr1l, fsr1h, status,2, status,0, pclath, cstack
  3319 ;; Tracked objects:
  3320 ;;		On entry : 0/0
  3321 ;;		On exit  : 0/0
  3322 ;;		Unchanged: 0/0
  3323 ;; Data sizes:     COMMON   BANK0   BANK1   BANK2   BANK3   BANK4   BANK5   BANK6
  3324 ;;      Params:         0       5       0       0       0       0       0       0
  3325 ;;      Locals:         0       5       0       0       0       0       0       0
  3326 ;;      Temps:          0       5       0       0       0       0       0       0
  3327 ;;      Totals:         0      15       0       0       0       0       0       0
  3328 ;;Total ram usage:       15 bytes
  3329 ;; Hardware stack levels used:    1
  3330 ;; Hardware stack levels required when called:    7
  3331 ;; This function calls:
  3332 ;;		_NRF_PipeEnable
  3333 ;;		_NRF_PipeEnableAA
  3334 ;;		_NRF_Write_Register
  3335 ;;		___bmul
  3336 ;; This function is called by:
  3337 ;;		_Appl_Init
  3338 ;; This function uses a non-reentrant model
  3339 ;;
  3340                           
  3341                           
  3342                           ;psect for function _NRF_OpenReadingPipe
  3343  0EB9                     _NRF_OpenReadingPipe:
  3344                           
  3345                           ;incstack = 0
  3346                           ; Regs used in _NRF_OpenReadingPipe: [wreg-fsr1h+status,2+status,0+pclath+cstack]
  3347                           ;NRF_OpenReadingPipe@PipeNo stored from wreg
  3348  0EB9  0020               	movlb	0	; select bank0
  3349  0EBA  00BF               	movwf	NRF_OpenReadingPipe@PipeNo
  3350  0EBB                     l2766:
  3351  0EBB  0021               	movlb	1	; select bank1
  3352  0EBC  084C               	movf	(_NRFChip^(0+128)+1),w
  3353  0EBD  3E02               	addlw	2
  3354  0EBE  0020               	movlb	0	; select bank0
  3355  0EBF  00B6               	movwf	??_NRF_OpenReadingPipe
  3356  0EC0  0836               	movf	??_NRF_OpenReadingPipe,w
  3357  0EC1  00BD               	movwf	NRF_OpenReadingPipe@AW
  3358  0EC2                     l2768:
  3359  0EC2  0833               	movf	NRF_OpenReadingPipe@PayloadLength,w
  3360  0EC3  00B6               	movwf	??_NRF_OpenReadingPipe
  3361  0EC4  3006               	movlw	6
  3362  0EC5  00B7               	movwf	??_NRF_OpenReadingPipe+1
  3363  0EC6  0837               	movf	??_NRF_OpenReadingPipe+1,w
  3364  0EC7  00A2               	movwf	___bmul@multiplicand
  3365  0EC8  083F               	movf	NRF_OpenReadingPipe@PipeNo,w
  3366  0EC9  3189  21B3  318E   	fcall	___bmul
  3367  0ECC  3EA7               	addlw	(low (_NFR_RxPipes| 0))& (0+255)
  3368  0ECD  0086               	movwf	6
  3369  0ECE  0187               	clrf	7
  3370  0ECF  0020               	movlb	0	; select bank0
  3371  0ED0  0836               	movf	??_NRF_OpenReadingPipe,w
  3372  0ED1  0081               	movwf	1
  3373  0ED2                     l2770:
  3374  0ED2  01BE               	clrf	NRF_OpenReadingPipe@i
  3375  0ED3  2EF6               	goto	l2776
  3376  0ED4                     l2772:
  3377  0ED4  0832               	movf	NRF_OpenReadingPipe@PipeAddr+1,w
  3378  0ED5  00B7               	movwf	??_NRF_OpenReadingPipe+1
  3379  0ED6  0831               	movf	NRF_OpenReadingPipe@PipeAddr,w
  3380  0ED7  00B6               	movwf	??_NRF_OpenReadingPipe
  3381  0ED8  083E               	movf	NRF_OpenReadingPipe@i,w
  3382  0ED9  0736               	addwf	??_NRF_OpenReadingPipe,w
  3383  0EDA  0084               	movwf	4
  3384  0EDB  0837               	movf	??_NRF_OpenReadingPipe+1,w
  3385  0EDC  1803               	skipnc
  3386  0EDD  0A37               	incf	??_NRF_OpenReadingPipe+1,w
  3387  0EDE  0085               	movwf	5
  3388  0EDF  0800               	movf	0,w	;code access
  3389  0EE0  00B8               	movwf	??_NRF_OpenReadingPipe+2
  3390  0EE1  3006               	movlw	6
  3391  0EE2  00B9               	movwf	??_NRF_OpenReadingPipe+3
  3392  0EE3  0839               	movf	??_NRF_OpenReadingPipe+3,w
  3393  0EE4  00A2               	movwf	___bmul@multiplicand
  3394  0EE5  083F               	movf	NRF_OpenReadingPipe@PipeNo,w
  3395  0EE6  3189  21B3  318E   	fcall	___bmul
  3396  0EE9  3EA8               	addlw	(low ((_NFR_RxPipes| 0+1)))& (0+255)
  3397  0EEA  0020               	movlb	0	; select bank0
  3398  0EEB  073E               	addwf	NRF_OpenReadingPipe@i,w
  3399  0EEC  00BA               	movwf	??_NRF_OpenReadingPipe+4
  3400  0EED  083A               	movf	??_NRF_OpenReadingPipe+4,w
  3401  0EEE  0086               	movwf	6
  3402  0EEF  0187               	clrf	7
  3403  0EF0  0838               	movf	??_NRF_OpenReadingPipe+2,w
  3404  0EF1  0081               	movwf	1
  3405  0EF2                     l2774:
  3406  0EF2  3001               	movlw	1
  3407  0EF3  00B6               	movwf	??_NRF_OpenReadingPipe
  3408  0EF4  0836               	movf	??_NRF_OpenReadingPipe,w
  3409  0EF5  07BE               	addwf	NRF_OpenReadingPipe@i,f
  3410  0EF6                     l2776:
  3411  0EF6  083D               	movf	NRF_OpenReadingPipe@AW,w
  3412  0EF7  023E               	subwf	NRF_OpenReadingPipe@i,w
  3413  0EF8  1C03               	skipc
  3414  0EF9  2EFB               	goto	u2911
  3415  0EFA  2EFC               	goto	u2910
  3416  0EFB                     u2911:
  3417  0EFB  2ED4               	goto	l2772
  3418  0EFC                     u2910:
  3419  0EFC                     l2778:
  3420  0EFC  0835               	movf	NRF_OpenReadingPipe@Enable,w
  3421  0EFD  1903               	btfsc	3,2
  3422  0EFE  2F00               	goto	u2921
  3423  0EFF  2F01               	goto	u2920
  3424  0F00                     u2921:
  3425  0F00  2F05               	goto	l2782
  3426  0F01                     u2920:
  3427  0F01                     l2780:
  3428  0F01  083F               	movf	NRF_OpenReadingPipe@PipeNo,w
  3429  0F02  318A  223C  318E   	fcall	_NRF_PipeEnable
  3430  0F05                     l2782:
  3431  0F05  0020               	movlb	0	; select bank0
  3432  0F06  0834               	movf	NRF_OpenReadingPipe@AutoAck,w
  3433  0F07  1903               	btfsc	3,2
  3434  0F08  2F0A               	goto	u2931
  3435  0F09  2F0B               	goto	u2930
  3436  0F0A                     u2931:
  3437  0F0A  2F0F               	goto	l2786
  3438  0F0B                     u2930:
  3439  0F0B                     l2784:
  3440  0F0B  083F               	movf	NRF_OpenReadingPipe@PipeNo,w
  3441  0F0C  318A  225F  318E   	fcall	_NRF_PipeEnableAA
  3442  0F0F                     l2786:
  3443  0F0F  3002               	movlw	2
  3444  0F10  0020               	movlb	0	; select bank0
  3445  0F11  023F               	subwf	NRF_OpenReadingPipe@PipeNo,w
  3446  0F12  1803               	skipnc
  3447  0F13  2F15               	goto	u2941
  3448  0F14  2F16               	goto	u2940
  3449  0F15                     u2941:
  3450  0F15  2F1E               	goto	l2790
  3451  0F16                     u2940:
  3452  0F16                     l2788:
  3453  0F16  083D               	movf	NRF_OpenReadingPipe@AW,w
  3454  0F17  00B6               	movwf	??_NRF_OpenReadingPipe
  3455  0F18  01B7               	clrf	??_NRF_OpenReadingPipe+1
  3456  0F19  0836               	movf	??_NRF_OpenReadingPipe,w
  3457  0F1A  00BB               	movwf	_NRF_OpenReadingPipe$416
  3458  0F1B  0837               	movf	??_NRF_OpenReadingPipe+1,w
  3459  0F1C  00BC               	movwf	_NRF_OpenReadingPipe$416+1
  3460  0F1D  2F22               	goto	l2792
  3461  0F1E                     l2790:
  3462  0F1E  3001               	movlw	1
  3463  0F1F  00BB               	movwf	_NRF_OpenReadingPipe$416
  3464  0F20  3000               	movlw	0
  3465  0F21  00BC               	movwf	_NRF_OpenReadingPipe$416+1
  3466  0F22                     l2792:
  3467  0F22  3006               	movlw	6
  3468  0F23  00B6               	movwf	??_NRF_OpenReadingPipe
  3469  0F24  0836               	movf	??_NRF_OpenReadingPipe,w
  3470  0F25  00A2               	movwf	___bmul@multiplicand
  3471  0F26  083F               	movf	NRF_OpenReadingPipe@PipeNo,w
  3472  0F27  3189  21B3  318E   	fcall	___bmul
  3473  0F2A  3EA8               	addlw	(low ((_NFR_RxPipes| 0+1)))& (0+255)
  3474  0F2B  0020               	movlb	0	; select bank0
  3475  0F2C  00A6               	movwf	NRF_Write_Register@Bytes
  3476  0F2D  3000               	movlw	0
  3477  0F2E  00A7               	movwf	NRF_Write_Register@Bytes+1
  3478  0F2F  083B               	movf	_NRF_OpenReadingPipe$416,w
  3479  0F30  00B7               	movwf	??_NRF_OpenReadingPipe+1
  3480  0F31  0837               	movf	??_NRF_OpenReadingPipe+1,w
  3481  0F32  00A8               	movwf	NRF_Write_Register@Length
  3482  0F33  083F               	movf	NRF_OpenReadingPipe@PipeNo,w
  3483  0F34  3E0A               	addlw	10
  3484  0F35  318B  23F3  318E   	fcall	_NRF_Write_Register
  3485  0F38                     l2794:
  3486  0F38  3006               	movlw	6
  3487  0F39  0020               	movlb	0	; select bank0
  3488  0F3A  00B6               	movwf	??_NRF_OpenReadingPipe
  3489  0F3B  0836               	movf	??_NRF_OpenReadingPipe,w
  3490  0F3C  00A2               	movwf	___bmul@multiplicand
  3491  0F3D  083F               	movf	NRF_OpenReadingPipe@PipeNo,w
  3492  0F3E  3189  21B3  318E   	fcall	___bmul
  3493  0F41  3EA7               	addlw	(low (_NFR_RxPipes| 0))& (0+255)
  3494  0F42  0020               	movlb	0	; select bank0
  3495  0F43  00A6               	movwf	NRF_Write_Register@Bytes
  3496  0F44  3000               	movlw	0
  3497  0F45  00A7               	movwf	NRF_Write_Register@Bytes+1
  3498  0F46  01A8               	clrf	NRF_Write_Register@Length
  3499  0F47  0AA8               	incf	NRF_Write_Register@Length,f
  3500  0F48  083F               	movf	NRF_OpenReadingPipe@PipeNo,w
  3501  0F49  3E11               	addlw	17
  3502  0F4A  318B  23F3  318E   	fcall	_NRF_Write_Register
  3503  0F4D  0020               	movlb	0	; select bank0
  3504  0F4E  00B7               	movwf	??_NRF_OpenReadingPipe+1
  3505  0F4F  0837               	movf	??_NRF_OpenReadingPipe+1,w
  3506  0F50  0021               	movlb	1	; select bank1
  3507  0F51  00D0               	movwf	(_NRFChip^(0+128)+5)
  3508  0F52                     l171:
  3509  0F52  0008               	return
  3510  0F53                     __end_of_NRF_OpenReadingPipe:
  3511                           
  3512                           	psect	text14
  3513  09B3                     __ptext14:	
  3514 ;; *************** function ___bmul *****************
  3515 ;; Defined at:
  3516 ;;		line 4 in file "C:\Program Files (x86)\Microchip\xc8\pic\sources\c99\common\Umul8.c"
  3517 ;; Parameters:    Size  Location     Type
  3518 ;;  multiplier      1    wreg     unsigned char 
  3519 ;;  multiplicand    1    2[BANK0 ] unsigned char 
  3520 ;; Auto vars:     Size  Location     Type
  3521 ;;  multiplier      1    5[BANK0 ] unsigned char 
  3522 ;;  product         1    4[BANK0 ] unsigned char 
  3523 ;; Return value:  Size  Location     Type
  3524 ;;                  1    wreg      unsigned char 
  3525 ;; Registers used:
  3526 ;;		wreg, status,2, status,0
  3527 ;; Tracked objects:
  3528 ;;		On entry : 0/0
  3529 ;;		On exit  : 0/0
  3530 ;;		Unchanged: 0/0
  3531 ;; Data sizes:     COMMON   BANK0   BANK1   BANK2   BANK3   BANK4   BANK5   BANK6
  3532 ;;      Params:         0       1       0       0       0       0       0       0
  3533 ;;      Locals:         0       2       0       0       0       0       0       0
  3534 ;;      Temps:          0       1       0       0       0       0       0       0
  3535 ;;      Totals:         0       4       0       0       0       0       0       0
  3536 ;;Total ram usage:        4 bytes
  3537 ;; Hardware stack levels used:    1
  3538 ;; Hardware stack levels required when called:    4
  3539 ;; This function calls:
  3540 ;;		Nothing
  3541 ;; This function is called by:
  3542 ;;		_NRF_OpenReadingPipe
  3543 ;; This function uses a non-reentrant model
  3544 ;;
  3545                           
  3546                           
  3547                           ;psect for function ___bmul
  3548  09B3                     ___bmul:
  3549                           
  3550                           ;incstack = 0
  3551                           ; Regs used in ___bmul: [wreg+status,2+status,0]
  3552                           ;___bmul@multiplier stored from wreg
  3553  09B3  0020               	movlb	0	; select bank0
  3554  09B4  00A5               	movwf	___bmul@multiplier
  3555  09B5                     l1892:
  3556  09B5  01A4               	clrf	___bmul@product
  3557  09B6                     l1894:
  3558  09B6  1C25               	btfss	___bmul@multiplier,0
  3559  09B7  29B9               	goto	u1611
  3560  09B8  29BA               	goto	u1610
  3561  09B9                     u1611:
  3562  09B9  29BE               	goto	l1898
  3563  09BA                     u1610:
  3564  09BA                     l1896:
  3565  09BA  0822               	movf	___bmul@multiplicand,w
  3566  09BB  00A3               	movwf	??___bmul
  3567  09BC  0823               	movf	??___bmul,w
  3568  09BD  07A4               	addwf	___bmul@product,f
  3569  09BE                     l1898:
  3570  09BE  1003               	clrc
  3571  09BF  0DA2               	rlf	___bmul@multiplicand,f
  3572  09C0                     l1900:
  3573  09C0  1003               	clrc
  3574  09C1  0CA5               	rrf	___bmul@multiplier,f
  3575  09C2  0825               	movf	___bmul@multiplier,w
  3576  09C3  1D03               	btfss	3,2
  3577  09C4  29C6               	goto	u1621
  3578  09C5  29C7               	goto	u1620
  3579  09C6                     u1621:
  3580  09C6  29B6               	goto	l1894
  3581  09C7                     u1620:
  3582  09C7                     l1902:
  3583  09C7  0824               	movf	___bmul@product,w
  3584  09C8                     l458:
  3585  09C8  0008               	return
  3586  09C9                     __end_of___bmul:
  3587                           
  3588                           	psect	text15
  3589  0A5F                     __ptext15:	
  3590 ;; *************** function _NRF_PipeEnableAA *****************
  3591 ;; Defined at:
  3592 ;;		line 64 in file "02-SRC/04-DRIVER/NRF24L01/NRF24L01.c"
  3593 ;; Parameters:    Size  Location     Type
  3594 ;;  PipeNo          1    wreg     unsigned char 
  3595 ;; Auto vars:     Size  Location     Type
  3596 ;;  PipeNo          1   15[BANK0 ] unsigned char 
  3597 ;;  AA              1   16[BANK0 ] unsigned char 
  3598 ;; Return value:  Size  Location     Type
  3599 ;;                  1    wreg      void 
  3600 ;; Registers used:
  3601 ;;		wreg, fsr1l, fsr1h, status,2, status,0, pclath, cstack
  3602 ;; Tracked objects:
  3603 ;;		On entry : 0/0
  3604 ;;		On exit  : 0/0
  3605 ;;		Unchanged: 0/0
  3606 ;; Data sizes:     COMMON   BANK0   BANK1   BANK2   BANK3   BANK4   BANK5   BANK6
  3607 ;;      Params:         0       0       0       0       0       0       0       0
  3608 ;;      Locals:         0       2       0       0       0       0       0       0
  3609 ;;      Temps:          0       2       0       0       0       0       0       0
  3610 ;;      Totals:         0       4       0       0       0       0       0       0
  3611 ;;Total ram usage:        4 bytes
  3612 ;; Hardware stack levels used:    1
  3613 ;; Hardware stack levels required when called:    6
  3614 ;; This function calls:
  3615 ;;		_NRF_Read_Register
  3616 ;;		_NRF_Write_Register
  3617 ;; This function is called by:
  3618 ;;		_NRF_OpenReadingPipe
  3619 ;; This function uses a non-reentrant model
  3620 ;;
  3621                           
  3622                           
  3623                           ;psect for function _NRF_PipeEnableAA
  3624  0A5F                     _NRF_PipeEnableAA:
  3625                           
  3626                           ;incstack = 0
  3627                           ; Regs used in _NRF_PipeEnableAA: [wreg+fsr1l+fsr1h+status,2+status,0+pclath+cstack]
  3628                           ;NRF_PipeEnableAA@PipeNo stored from wreg
  3629  0A5F  0020               	movlb	0	; select bank0
  3630  0A60  00AF               	movwf	NRF_PipeEnableAA@PipeNo
  3631  0A61                     l2712:
  3632  0A61  3030               	movlw	(low (NRF_PipeEnableAA@AA| 0))& (0+255)
  3633  0A62  00AD               	movwf	??_NRF_PipeEnableAA
  3634  0A63  082D               	movf	??_NRF_PipeEnableAA,w
  3635  0A64  00A3               	movwf	NRF_Read_Register@Bytes
  3636  0A65  01A4               	clrf	NRF_Read_Register@Length
  3637  0A66  0AA4               	incf	NRF_Read_Register@Length,f
  3638  0A67  3001               	movlw	1
  3639  0A68  318C  2425  318A   	fcall	_NRF_Read_Register
  3640  0A6B                     l2714:
  3641  0A6B  3001               	movlw	1
  3642  0A6C  0020               	movlb	0	; select bank0
  3643  0A6D  00AD               	movwf	??_NRF_PipeEnableAA
  3644  0A6E  0A2F               	incf	NRF_PipeEnableAA@PipeNo,w
  3645  0A6F  2A71               	goto	u2844
  3646  0A70                     u2845:
  3647  0A70  35AD               	lslf	??_NRF_PipeEnableAA,f
  3648  0A71                     u2844:
  3649  0A71  0B89               	decfsz	9,f
  3650  0A72  2A70               	goto	u2845
  3651  0A73  082D               	movf	??_NRF_PipeEnableAA,w
  3652  0A74  00AE               	movwf	??_NRF_PipeEnableAA+1
  3653  0A75  082E               	movf	??_NRF_PipeEnableAA+1,w
  3654  0A76  04B0               	iorwf	NRF_PipeEnableAA@AA,f
  3655  0A77                     l2716:
  3656  0A77  3030               	movlw	low NRF_PipeEnableAA@AA
  3657  0A78  00A6               	movwf	NRF_Write_Register@Bytes
  3658  0A79  3000               	movlw	high NRF_PipeEnableAA@AA
  3659  0A7A  00A7               	movwf	NRF_Write_Register@Bytes+1
  3660  0A7B  01A8               	clrf	NRF_Write_Register@Length
  3661  0A7C  0AA8               	incf	NRF_Write_Register@Length,f
  3662  0A7D  3001               	movlw	1
  3663  0A7E  318B  23F3  318A   	fcall	_NRF_Write_Register
  3664  0A81                     l183:
  3665  0A81  0008               	return
  3666  0A82                     __end_of_NRF_PipeEnableAA:
  3667                           
  3668                           	psect	text16
  3669  0A3C                     __ptext16:	
  3670 ;; *************** function _NRF_PipeEnable *****************
  3671 ;; Defined at:
  3672 ;;		line 48 in file "02-SRC/04-DRIVER/NRF24L01/NRF24L01.c"
  3673 ;; Parameters:    Size  Location     Type
  3674 ;;  PipeNo          1    wreg     unsigned char 
  3675 ;; Auto vars:     Size  Location     Type
  3676 ;;  PipeNo          1   15[BANK0 ] unsigned char 
  3677 ;;  EN              1   16[BANK0 ] unsigned char 
  3678 ;; Return value:  Size  Location     Type
  3679 ;;                  1    wreg      void 
  3680 ;; Registers used:
  3681 ;;		wreg, fsr1l, fsr1h, status,2, status,0, pclath, cstack
  3682 ;; Tracked objects:
  3683 ;;		On entry : 0/0
  3684 ;;		On exit  : 0/0
  3685 ;;		Unchanged: 0/0
  3686 ;; Data sizes:     COMMON   BANK0   BANK1   BANK2   BANK3   BANK4   BANK5   BANK6
  3687 ;;      Params:         0       0       0       0       0       0       0       0
  3688 ;;      Locals:         0       2       0       0       0       0       0       0
  3689 ;;      Temps:          0       2       0       0       0       0       0       0
  3690 ;;      Totals:         0       4       0       0       0       0       0       0
  3691 ;;Total ram usage:        4 bytes
  3692 ;; Hardware stack levels used:    1
  3693 ;; Hardware stack levels required when called:    6
  3694 ;; This function calls:
  3695 ;;		_NRF_Read_Register
  3696 ;;		_NRF_Write_Register
  3697 ;; This function is called by:
  3698 ;;		_NRF_OpenReadingPipe
  3699 ;; This function uses a non-reentrant model
  3700 ;;
  3701                           
  3702                           
  3703                           ;psect for function _NRF_PipeEnable
  3704  0A3C                     _NRF_PipeEnable:
  3705                           
  3706                           ;incstack = 0
  3707                           ; Regs used in _NRF_PipeEnable: [wreg+fsr1l+fsr1h+status,2+status,0+pclath+cstack]
  3708                           ;NRF_PipeEnable@PipeNo stored from wreg
  3709  0A3C  0020               	movlb	0	; select bank0
  3710  0A3D  00AF               	movwf	NRF_PipeEnable@PipeNo
  3711  0A3E                     l2706:
  3712  0A3E  3030               	movlw	(low (NRF_PipeEnable@EN| 0))& (0+255)
  3713  0A3F  00AD               	movwf	??_NRF_PipeEnable
  3714  0A40  082D               	movf	??_NRF_PipeEnable,w
  3715  0A41  00A3               	movwf	NRF_Read_Register@Bytes
  3716  0A42  01A4               	clrf	NRF_Read_Register@Length
  3717  0A43  0AA4               	incf	NRF_Read_Register@Length,f
  3718  0A44  3002               	movlw	2
  3719  0A45  318C  2425  318A   	fcall	_NRF_Read_Register
  3720  0A48                     l2708:
  3721  0A48  3001               	movlw	1
  3722  0A49  0020               	movlb	0	; select bank0
  3723  0A4A  00AD               	movwf	??_NRF_PipeEnable
  3724  0A4B  0A2F               	incf	NRF_PipeEnable@PipeNo,w
  3725  0A4C  2A4E               	goto	u2834
  3726  0A4D                     u2835:
  3727  0A4D  35AD               	lslf	??_NRF_PipeEnable,f
  3728  0A4E                     u2834:
  3729  0A4E  0B89               	decfsz	9,f
  3730  0A4F  2A4D               	goto	u2835
  3731  0A50  082D               	movf	??_NRF_PipeEnable,w
  3732  0A51  00AE               	movwf	??_NRF_PipeEnable+1
  3733  0A52  082E               	movf	??_NRF_PipeEnable+1,w
  3734  0A53  04B0               	iorwf	NRF_PipeEnable@EN,f
  3735  0A54                     l2710:
  3736  0A54  3030               	movlw	low NRF_PipeEnable@EN
  3737  0A55  00A6               	movwf	NRF_Write_Register@Bytes
  3738  0A56  3000               	movlw	high NRF_PipeEnable@EN
  3739  0A57  00A7               	movwf	NRF_Write_Register@Bytes+1
  3740  0A58  01A8               	clrf	NRF_Write_Register@Length
  3741  0A59  0AA8               	incf	NRF_Write_Register@Length,f
  3742  0A5A  3002               	movlw	2
  3743  0A5B  318B  23F3  318A   	fcall	_NRF_Write_Register
  3744  0A5E                     l177:
  3745  0A5E  0008               	return
  3746  0A5F                     __end_of_NRF_PipeEnable:
  3747                           
  3748                           	psect	text17
  3749  0BF3                     __ptext17:	
  3750 ;; *************** function _NRF_Write_Register *****************
  3751 ;; Defined at:
  3752 ;;		line 202 in file "02-SRC/04-DRIVER/NRF24L01/NRF24L01.c"
  3753 ;; Parameters:    Size  Location     Type
  3754 ;;  Register        1    wreg     unsigned char 
  3755 ;;  Bytes           2    6[BANK0 ] PTR unsigned char 
  3756 ;;		 -> NRFChip.SETUP_RETR(1), NRFChip.RF_SETUP(1), NRFChip.RF_CH(1), NRFChip.CONFIG(1), 
  3757 ;;		 -> NRF_PipeDisableAA@AA(1), NRF_PipeEnableAA@AA(1), NRF_PipeDisable@EN(1), NRF_PipeEnable@EN(1), 
  3758 ;;		 -> NFR_RxPipes(36), NRFChip.AW(1), NRFChip(14), RAM(4096), 
  3759 ;;  Length          1    8[BANK0 ] unsigned char 
  3760 ;; Auto vars:     Size  Location     Type
  3761 ;;  Register        1   11[BANK0 ] unsigned char 
  3762 ;;  Status          1   12[BANK0 ] unsigned char 
  3763 ;; Return value:  Size  Location     Type
  3764 ;;                  1    wreg      unsigned char 
  3765 ;; Registers used:
  3766 ;;		wreg, fsr1l, fsr1h, status,2, status,0, pclath, cstack
  3767 ;; Tracked objects:
  3768 ;;		On entry : 0/0
  3769 ;;		On exit  : 0/0
  3770 ;;		Unchanged: 0/0
  3771 ;; Data sizes:     COMMON   BANK0   BANK1   BANK2   BANK3   BANK4   BANK5   BANK6
  3772 ;;      Params:         0       3       0       0       0       0       0       0
  3773 ;;      Locals:         0       2       0       0       0       0       0       0
  3774 ;;      Temps:          0       2       0       0       0       0       0       0
  3775 ;;      Totals:         0       7       0       0       0       0       0       0
  3776 ;;Total ram usage:        7 bytes
  3777 ;; Hardware stack levels used:    1
  3778 ;; Hardware stack levels required when called:    5
  3779 ;; This function calls:
  3780 ;;		Absolute function
  3781 ;;		_SPI_Exchange
  3782 ;; This function is called by:
  3783 ;;		_Appl_Init
  3784 ;;		_NRF_OpenReadingPipe
  3785 ;;		_NRF_PipeEnable
  3786 ;;		_NRF_PipeEnableAA
  3787 ;;		_NRF_SetCRCLen
  3788 ;;		_NRF_SetRFChannel
  3789 ;;		_NRF_SetRFPower
  3790 ;;		_NRF_SetRFDataRate
  3791 ;;		_NRF_SetAddrWidth
  3792 ;;		_NRF_SetART
  3793 ;;		_NRF_StartListening
  3794 ;;		_NRF_SetTxAddr
  3795 ;;		_NRF_PipeDisable
  3796 ;;		_NRF_PipeDisableAA
  3797 ;;		_NRF_SetPrimaryAs
  3798 ;;		_NRF_StopListening
  3799 ;;		_NRF_SetMaskIRQ
  3800 ;; This function uses a non-reentrant model
  3801 ;;
  3802                           
  3803                           
  3804                           ;psect for function _NRF_Write_Register
  3805  0BF3                     _NRF_Write_Register:
  3806                           
  3807                           ;incstack = 0
  3808                           ; Regs used in _NRF_Write_Register: [wreg+fsr1l+fsr1h+status,2+status,0+pclath+cstack]
  3809                           ;NRF_Write_Register@Register stored from wreg
  3810  0BF3  0020               	movlb	0	; select bank0
  3811  0BF4  00AB               	movwf	NRF_Write_Register@Register
  3812  0BF5                     l2674:
  3813  0BF5                     l2676:
  3814  0BF5  0022               	movlb	2	; select bank2
  3815  0BF6  108E               	bcf	14,1	;volatile
  3816  0BF7                     l2678:
  3817  0BF7  0020               	movlb	0	; select bank0
  3818  0BF8  082B               	movf	NRF_Write_Register@Register,w
  3819  0BF9  3820               	iorlw	32
  3820  0BFA  00A9               	movwf	??_NRF_Write_Register
  3821  0BFB  0829               	movf	??_NRF_Write_Register,w
  3822  0BFC  00A2               	movwf	SPI_Exchange@Data
  3823  0BFD  087D               	movf	_p_NRF_SPI_Exchange+1,w
  3824  0BFE  008A               	movwf	10
  3825  0BFF  087C               	movf	_p_NRF_SPI_Exchange,w
  3826  0C00  000A               	callw
  3827  0C01  318B               	pagesel	$
  3828  0C02  0020               	movlb	0	; select bank0
  3829  0C03  00AA               	movwf	??_NRF_Write_Register+1
  3830  0C04  082A               	movf	??_NRF_Write_Register+1,w
  3831  0C05  00AC               	movwf	NRF_Write_Register@Status
  3832  0C06  2C19               	goto	l2684
  3833  0C07                     l2680:
  3834  0C07  0826               	movf	NRF_Write_Register@Bytes,w
  3835  0C08  0086               	movwf	6
  3836  0C09  0827               	movf	NRF_Write_Register@Bytes+1,w
  3837  0C0A  0087               	movwf	7
  3838  0C0B  0801               	movf	1,w
  3839  0C0C  00A9               	movwf	??_NRF_Write_Register
  3840  0C0D  0829               	movf	??_NRF_Write_Register,w
  3841  0C0E  00A2               	movwf	SPI_Exchange@Data
  3842  0C0F  087D               	movf	_p_NRF_SPI_Exchange+1,w
  3843  0C10  008A               	movwf	10
  3844  0C11  087C               	movf	_p_NRF_SPI_Exchange,w
  3845  0C12  000A               	callw
  3846  0C13  318B               	pagesel	$
  3847  0C14                     l2682:
  3848  0C14  3001               	movlw	1
  3849  0C15  0020               	movlb	0	; select bank0
  3850  0C16  07A6               	addwf	NRF_Write_Register@Bytes,f
  3851  0C17  3000               	movlw	0
  3852  0C18  3DA7               	addwfc	NRF_Write_Register@Bytes+1,f
  3853  0C19                     l2684:
  3854  0C19  3001               	movlw	1
  3855  0C1A  02A8               	subwf	NRF_Write_Register@Length,f
  3856  0C1B  0A28               	incf	NRF_Write_Register@Length,w
  3857  0C1C  1D03               	btfss	3,2
  3858  0C1D  2C1F               	goto	u2811
  3859  0C1E  2C20               	goto	u2810
  3860  0C1F                     u2811:
  3861  0C1F  2C07               	goto	l2680
  3862  0C20                     u2810:
  3863  0C20                     l252:
  3864  0C20  0022               	movlb	2	; select bank2
  3865  0C21  148E               	bsf	14,1	;volatile
  3866  0C22                     l2686:
  3867  0C22  0020               	movlb	0	; select bank0
  3868  0C23  082C               	movf	NRF_Write_Register@Status,w
  3869  0C24                     l253:
  3870  0C24  0008               	return
  3871  0C25                     __end_of_NRF_Write_Register:
  3872                           
  3873                           	psect	text18
  3874  0C25                     __ptext18:	
  3875 ;; *************** function _NRF_Read_Register *****************
  3876 ;; Defined at:
  3877 ;;		line 215 in file "02-SRC/04-DRIVER/NRF24L01/NRF24L01.c"
  3878 ;; Parameters:    Size  Location     Type
  3879 ;;  Register        1    wreg     unsigned char 
  3880 ;;  Bytes           1    3[BANK0 ] PTR unsigned char 
  3881 ;;		 -> NRF_StatusHandler@NRF_Fifo(1), NRFChip.RF_SETUP(1), NRFChip.CONFIG(1), NRF_PipeDisableAA@AA(1), 
  3882 ;;		 -> NRF_PipeEnableAA@AA(1), NRF_PipeDisable@EN(1), NRF_PipeEnable@EN(1), NRFChip(14), 
  3883 ;;  Length          1    4[BANK0 ] unsigned char 
  3884 ;; Auto vars:     Size  Location     Type
  3885 ;;  Register        1    7[BANK0 ] unsigned char 
  3886 ;;  Status          1    8[BANK0 ] unsigned char 
  3887 ;; Return value:  Size  Location     Type
  3888 ;;                  1    wreg      unsigned char 
  3889 ;; Registers used:
  3890 ;;		wreg, fsr1l, fsr1h, status,2, status,0, pclath, cstack
  3891 ;; Tracked objects:
  3892 ;;		On entry : 0/0
  3893 ;;		On exit  : 0/0
  3894 ;;		Unchanged: 0/0
  3895 ;; Data sizes:     COMMON   BANK0   BANK1   BANK2   BANK3   BANK4   BANK5   BANK6
  3896 ;;      Params:         0       2       0       0       0       0       0       0
  3897 ;;      Locals:         0       2       0       0       0       0       0       0
  3898 ;;      Temps:          0       2       0       0       0       0       0       0
  3899 ;;      Totals:         0       6       0       0       0       0       0       0
  3900 ;;Total ram usage:        6 bytes
  3901 ;; Hardware stack levels used:    1
  3902 ;; Hardware stack levels required when called:    5
  3903 ;; This function calls:
  3904 ;;		Absolute function
  3905 ;;		_SPI_Exchange
  3906 ;; This function is called by:
  3907 ;;		_NRF_PipeEnable
  3908 ;;		_NRF_PipeEnableAA
  3909 ;;		_NRF_SetCRCLen
  3910 ;;		_NRF_SetRFPower
  3911 ;;		_NRF_SetRFDataRate
  3912 ;;		_NRF_StartListening
  3913 ;;		_NRF_PipeDisable
  3914 ;;		_NRF_PipeDisableAA
  3915 ;;		_NRF_SetPrimaryAs
  3916 ;;		_NRF_StopListening
  3917 ;;		_NRF_SetMaskIRQ
  3918 ;;		_NRF_StatusHandler
  3919 ;; This function uses a non-reentrant model
  3920 ;;
  3921                           
  3922                           
  3923                           ;psect for function _NRF_Read_Register
  3924  0C25                     _NRF_Read_Register:
  3925                           
  3926                           ;incstack = 0
  3927                           ; Regs used in _NRF_Read_Register: [wreg+fsr1l+fsr1h+status,2+status,0+pclath+cstack]
  3928                           ;NRF_Read_Register@Register stored from wreg
  3929  0C25  0020               	movlb	0	; select bank0
  3930  0C26  00A7               	movwf	NRF_Read_Register@Register
  3931  0C27                     l2690:
  3932  0C27                     l2692:
  3933  0C27  0022               	movlb	2	; select bank2
  3934  0C28  108E               	bcf	14,1	;volatile
  3935  0C29                     l2694:
  3936  0C29  0020               	movlb	0	; select bank0
  3937  0C2A  0827               	movf	NRF_Read_Register@Register,w
  3938  0C2B  00A5               	movwf	??_NRF_Read_Register
  3939  0C2C  0825               	movf	??_NRF_Read_Register,w
  3940  0C2D  00A2               	movwf	SPI_Exchange@Data
  3941  0C2E  087D               	movf	_p_NRF_SPI_Exchange+1,w
  3942  0C2F  008A               	movwf	10
  3943  0C30  087C               	movf	_p_NRF_SPI_Exchange,w
  3944  0C31  000A               	callw
  3945  0C32  318C               	pagesel	$
  3946  0C33  0020               	movlb	0	; select bank0
  3947  0C34  00A6               	movwf	??_NRF_Read_Register+1
  3948  0C35  0826               	movf	??_NRF_Read_Register+1,w
  3949  0C36  00A8               	movwf	NRF_Read_Register@Status
  3950  0C37  2C4C               	goto	l2700
  3951  0C38                     l2696:
  3952  0C38  30FF               	movlw	255
  3953  0C39  00A5               	movwf	??_NRF_Read_Register
  3954  0C3A  0825               	movf	??_NRF_Read_Register,w
  3955  0C3B  00A2               	movwf	SPI_Exchange@Data
  3956  0C3C  087D               	movf	_p_NRF_SPI_Exchange+1,w
  3957  0C3D  008A               	movwf	10
  3958  0C3E  087C               	movf	_p_NRF_SPI_Exchange,w
  3959  0C3F  000A               	callw
  3960  0C40  318C               	pagesel	$
  3961  0C41  0020               	movlb	0	; select bank0
  3962  0C42  00A6               	movwf	??_NRF_Read_Register+1
  3963  0C43  0823               	movf	NRF_Read_Register@Bytes,w
  3964  0C44  0086               	movwf	6
  3965  0C45  0187               	clrf	7
  3966  0C46  0826               	movf	??_NRF_Read_Register+1,w
  3967  0C47  0081               	movwf	1
  3968  0C48                     l2698:
  3969  0C48  3001               	movlw	1
  3970  0C49  00A5               	movwf	??_NRF_Read_Register
  3971  0C4A  0825               	movf	??_NRF_Read_Register,w
  3972  0C4B  07A3               	addwf	NRF_Read_Register@Bytes,f
  3973  0C4C                     l2700:
  3974  0C4C  3001               	movlw	1
  3975  0C4D  02A4               	subwf	NRF_Read_Register@Length,f
  3976  0C4E  0A24               	incf	NRF_Read_Register@Length,w
  3977  0C4F  1D03               	btfss	3,2
  3978  0C50  2C52               	goto	u2821
  3979  0C51  2C53               	goto	u2820
  3980  0C52                     u2821:
  3981  0C52  2C38               	goto	l2696
  3982  0C53                     u2820:
  3983  0C53                     l258:
  3984  0C53  0022               	movlb	2	; select bank2
  3985  0C54  148E               	bsf	14,1	;volatile
  3986  0C55                     l2702:
  3987  0C55  0020               	movlb	0	; select bank0
  3988  0C56  0828               	movf	NRF_Read_Register@Status,w
  3989  0C57                     l259:
  3990  0C57  0008               	return
  3991  0C58                     __end_of_NRF_Read_Register:
  3992                           
  3993                           	psect	text19
  3994  0982                     __ptext19:	
  3995 ;; *************** function _SPI_Exchange *****************
  3996 ;; Defined at:
  3997 ;;		line 65 in file "02-SRC/04-DRIVER/target.c"
  3998 ;; Parameters:    Size  Location     Type
  3999 ;;  Data            1    2[BANK0 ] unsigned char 
  4000 ;; Auto vars:     Size  Location     Type
  4001 ;;		None
  4002 ;; Return value:  Size  Location     Type
  4003 ;;                  1    wreg      unsigned char 
  4004 ;; Registers used:
  4005 ;;		wreg
  4006 ;; Tracked objects:
  4007 ;;		On entry : 0/0
  4008 ;;		On exit  : 0/0
  4009 ;;		Unchanged: 0/0
  4010 ;; Data sizes:     COMMON   BANK0   BANK1   BANK2   BANK3   BANK4   BANK5   BANK6
  4011 ;;      Params:         0       1       0       0       0       0       0       0
  4012 ;;      Locals:         0       0       0       0       0       0       0       0
  4013 ;;      Temps:          0       0       0       0       0       0       0       0
  4014 ;;      Totals:         0       1       0       0       0       0       0       0
  4015 ;;Total ram usage:        1 bytes
  4016 ;; Hardware stack levels used:    1
  4017 ;; Hardware stack levels required when called:    4
  4018 ;; This function calls:
  4019 ;;		Nothing
  4020 ;; This function is called by:
  4021 ;;		_Appl_Init
  4022 ;;		_NRF_Write_Register
  4023 ;;		_NRF_Read_Register
  4024 ;;		_NRF_GetStatus
  4025 ;;		i1_NRF_Write_Register
  4026 ;;		_NRF_ReadPayload
  4027 ;;		_NRF_WritePayload
  4028 ;;		_NRF_StatusHandler
  4029 ;; This function uses a non-reentrant model
  4030 ;;
  4031                           
  4032                           
  4033                           ;psect for function _SPI_Exchange
  4034  0982                     _SPI_Exchange:
  4035                           
  4036                           ;Skip over the trampoline to the duplicate function for level 1
  4037  0982  1C7E               	btfss	int$flags,0
  4038  0983  2986               	goto	_SPI_Exchange$intlevel0
  4039  0984  3189  2955         	ljmp	i1_SPI_Exchange
  4040  0986                     _SPI_Exchange$intlevel0:
  4041  0986                     l1778:	
  4042                           ;incstack = 0
  4043                           ; Regs used in _SPI_Exchange: [wreg]
  4044                           
  4045  0986  0020               	movlb	0	; select bank0
  4046  0987  0822               	movf	SPI_Exchange@Data,w
  4047  0988  0024               	movlb	4	; select bank4
  4048  0989  0091               	movwf	17	;volatile
  4049  098A                     l352:
  4050  098A  1C14               	btfss	20,0	;volatile
  4051  098B  298D               	goto	u1391
  4052  098C  298E               	goto	u1390
  4053  098D                     u1391:
  4054  098D  298A               	goto	l352
  4055  098E                     u1390:
  4056  098E                     l1780:
  4057  098E  0811               	movf	17,w	;volatile
  4058  098F                     l355:
  4059  098F  0008               	return
  4060  0990                     __end_of_SPI_Exchange:
  4061                           
  4062                           	psect	text20
  4063  096A                     __ptext20:	
  4064 ;; *************** function _NRF24L01_Init *****************
  4065 ;; Defined at:
  4066 ;;		line 9 in file "02-SRC/04-DRIVER/NRF24L01/NRF24L01.c"
  4067 ;; Parameters:    Size  Location     Type
  4068 ;;  SPI_Exchange    2    4[BANK0 ] PTR FTN(unsigned char ,)
  4069 ;;		 -> SPI_Exchange(1), 
  4070 ;; Auto vars:     Size  Location     Type
  4071 ;;		None
  4072 ;; Return value:  Size  Location     Type
  4073 ;;                  1    wreg      void 
  4074 ;; Registers used:
  4075 ;;		wreg, status,2, status,0, pclath, cstack
  4076 ;; Tracked objects:
  4077 ;;		On entry : 0/0
  4078 ;;		On exit  : 0/0
  4079 ;;		Unchanged: 0/0
  4080 ;; Data sizes:     COMMON   BANK0   BANK1   BANK2   BANK3   BANK4   BANK5   BANK6
  4081 ;;      Params:         0       2       0       0       0       0       0       0
  4082 ;;      Locals:         0       0       0       0       0       0       0       0
  4083 ;;      Temps:          0       0       0       0       0       0       0       0
  4084 ;;      Totals:         0       2       0       0       0       0       0       0
  4085 ;;Total ram usage:        2 bytes
  4086 ;; Hardware stack levels used:    1
  4087 ;; Hardware stack levels required when called:    5
  4088 ;; This function calls:
  4089 ;;		_NRF_Set_SPI_Handler
  4090 ;; This function is called by:
  4091 ;;		_Appl_Init
  4092 ;; This function uses a non-reentrant model
  4093 ;;
  4094                           
  4095                           
  4096                           ;psect for function _NRF24L01_Init
  4097  096A                     _NRF24L01_Init:
  4098  096A                     l2278:	
  4099                           ;incstack = 0
  4100                           ; Regs used in _NRF24L01_Init: [wreg+status,2+status,0+pclath+cstack]
  4101                           
  4102  096A  0020               	movlb	0	; select bank0
  4103  096B  0825               	movf	NRF24L01_Init@SPI_Exchange+1,w
  4104  096C  00A3               	movwf	NRF_Set_SPI_Handler@SPI_Handler+1
  4105  096D  0824               	movf	NRF24L01_Init@SPI_Exchange,w
  4106  096E  00A2               	movwf	NRF_Set_SPI_Handler@SPI_Handler
  4107  096F  3189  2147  3189   	fcall	_NRF_Set_SPI_Handler
  4108  0972                     l2280:
  4109  0972  0022               	movlb	2	; select bank2
  4110  0973  100E               	bcf	14,0	;volatile
  4111  0974                     l2282:
  4112  0974  148E               	bsf	14,1	;volatile
  4113  0975                     l157:
  4114  0975  0008               	return
  4115  0976                     __end_of_NRF24L01_Init:
  4116                           
  4117                           	psect	text21
  4118  0947                     __ptext21:	
  4119 ;; *************** function _NRF_Set_SPI_Handler *****************
  4120 ;; Defined at:
  4121 ;;		line 251 in file "02-SRC/04-DRIVER/NRF24L01/NRF24L01.c"
  4122 ;; Parameters:    Size  Location     Type
  4123 ;;  SPI_Handler     2    2[BANK0 ] PTR FTN(unsigned char ,)
  4124 ;;		 -> SPI_Exchange(1), 
  4125 ;; Auto vars:     Size  Location     Type
  4126 ;;		None
  4127 ;; Return value:  Size  Location     Type
  4128 ;;                  1    wreg      void 
  4129 ;; Registers used:
  4130 ;;		wreg
  4131 ;; Tracked objects:
  4132 ;;		On entry : 0/0
  4133 ;;		On exit  : 0/0
  4134 ;;		Unchanged: 0/0
  4135 ;; Data sizes:     COMMON   BANK0   BANK1   BANK2   BANK3   BANK4   BANK5   BANK6
  4136 ;;      Params:         0       2       0       0       0       0       0       0
  4137 ;;      Locals:         0       0       0       0       0       0       0       0
  4138 ;;      Temps:          0       0       0       0       0       0       0       0
  4139 ;;      Totals:         0       2       0       0       0       0       0       0
  4140 ;;Total ram usage:        2 bytes
  4141 ;; Hardware stack levels used:    1
  4142 ;; Hardware stack levels required when called:    4
  4143 ;; This function calls:
  4144 ;;		Nothing
  4145 ;; This function is called by:
  4146 ;;		_NRF24L01_Init
  4147 ;; This function uses a non-reentrant model
  4148 ;;
  4149                           
  4150                           
  4151                           ;psect for function _NRF_Set_SPI_Handler
  4152  0947                     _NRF_Set_SPI_Handler:
  4153  0947                     l1878:	
  4154                           ;incstack = 0
  4155                           ; Regs used in _NRF_Set_SPI_Handler: [wreg]
  4156                           
  4157  0947  0020               	movlb	0	; select bank0
  4158  0948  0823               	movf	NRF_Set_SPI_Handler@SPI_Handler+1,w
  4159  0949  00FD               	movwf	_p_NRF_SPI_Exchange+1
  4160  094A  0822               	movf	NRF_Set_SPI_Handler@SPI_Handler,w
  4161  094B  00FC               	movwf	_p_NRF_SPI_Exchange
  4162  094C                     l273:
  4163  094C  0008               	return
  4164  094D                     __end_of_NRF_Set_SPI_Handler:
  4165                           
  4166                           	psect	text22
  4167  0CC0                     __ptext22:	
  4168 ;; *************** function _APPL_TASK_10MS *****************
  4169 ;; Defined at:
  4170 ;;		line 179 in file "02-SRC/02-APPLICATION/Appl.c"
  4171 ;; Parameters:    Size  Location     Type
  4172 ;;		None
  4173 ;; Auto vars:     Size  Location     Type
  4174 ;;		None
  4175 ;; Return value:  Size  Location     Type
  4176 ;;                  1    wreg      void 
  4177 ;; Registers used:
  4178 ;;		wreg, fsr0l, fsr0h, fsr1l, fsr1h, status,2, status,0, pclath, cstack
  4179 ;; Tracked objects:
  4180 ;;		On entry : 0/0
  4181 ;;		On exit  : 0/0
  4182 ;;		Unchanged: 0/0
  4183 ;; Data sizes:     COMMON   BANK0   BANK1   BANK2   BANK3   BANK4   BANK5   BANK6
  4184 ;;      Params:         0       0       0       0       0       0       0       0
  4185 ;;      Locals:         0       0       0       0       0       0       0       0
  4186 ;;      Temps:          0       2       0       0       0       0       0       0
  4187 ;;      Totals:         0       2       0       0       0       0       0       0
  4188 ;;Total ram usage:        2 bytes
  4189 ;; Hardware stack levels used:    1
  4190 ;; Hardware stack levels required when called:    7
  4191 ;; This function calls:
  4192 ;;		_KeepDistance
  4193 ;;		_LinearTransiant
  4194 ;;		_SetPWM1
  4195 ;;		_deQueue
  4196 ;;		_enQueue
  4197 ;; This function is called by:
  4198 ;;		_main
  4199 ;; This function uses a non-reentrant model
  4200 ;;
  4201                           
  4202                           
  4203                           ;psect for function _APPL_TASK_10MS
  4204  0CC0                     _APPL_TASK_10MS:
  4205  0CC0                     l2850:	
  4206                           ;incstack = 0
  4207                           ; Regs used in _APPL_TASK_10MS: [wreg-fsr1h+status,2+status,0+pclath+cstack]
  4208                           
  4209  0CC0  0020               	movlb	0	; select bank0
  4210  0CC1  086D               	movf	APPL_TASK_10MS@OldValue,w
  4211  0CC2  00E5               	movwf	??_APPL_TASK_10MS
  4212  0CC3  0865               	movf	??_APPL_TASK_10MS,w
  4213  0CC4  00D5               	movwf	LinearTransiant@OldValue
  4214  0CC5  3032               	movlw	50
  4215  0CC6  00E6               	movwf	??_APPL_TASK_10MS+1
  4216  0CC7  0866               	movf	??_APPL_TASK_10MS+1,w
  4217  0CC8  00D6               	movwf	LinearTransiant@Duration10ms
  4218  0CC9  0021               	movlb	1	; select bank1
  4219  0CCA  0859               	movf	_NRF_Payload^(0+128),w
  4220  0CCB  3186  266E  318C   	fcall	_LinearTransiant
  4221  0CCE                     l2852:
  4222  0CCE  0021               	movlb	1	; select bank1
  4223  0CCF  0859               	movf	_NRF_Payload^(0+128),w
  4224  0CD0  0020               	movlb	0	; select bank0
  4225  0CD1  00E5               	movwf	??_APPL_TASK_10MS
  4226  0CD2  0865               	movf	??_APPL_TASK_10MS,w
  4227  0CD3  00ED               	movwf	APPL_TASK_10MS@OldValue
  4228  0CD4                     l2854:
  4229  0CD4  3001               	movlw	1
  4230  0CD5  318B  231A  318C   	fcall	_KeepDistance
  4231  0CD8  3A00               	xorlw	0
  4232  0CD9  1903               	skipnz
  4233  0CDA  2CDC               	goto	u2961
  4234  0CDB  2CDD               	goto	u2960
  4235  0CDC                     u2961:
  4236  0CDC  2CE2               	goto	l2858
  4237  0CDD                     u2960:
  4238  0CDD                     l2856:
  4239  0CDD  0020               	movlb	0	; select bank0
  4240  0CDE  086D               	movf	APPL_TASK_10MS@OldValue,w
  4241  0CDF  318D  25B4  318C   	fcall	_enQueue
  4242  0CE2                     l2858:
  4243  0CE2  318D  2573  318C   	fcall	_deQueue
  4244  0CE5  0020               	movlb	0	; select bank0
  4245  0CE6  00E5               	movwf	??_APPL_TASK_10MS
  4246  0CE7  01E6               	clrf	??_APPL_TASK_10MS+1
  4247  0CE8  35E5               	lslf	??_APPL_TASK_10MS,f
  4248  0CE9  0DE6               	rlf	??_APPL_TASK_10MS+1,f
  4249  0CEA  30BA               	movlw	low (_gamma10| (0+32768))
  4250  0CEB  0765               	addwf	??_APPL_TASK_10MS,w
  4251  0CEC  0084               	movwf	4
  4252  0CED  3082               	movlw	high (_gamma10| (0+32768))
  4253  0CEE  3D66               	addwfc	??_APPL_TASK_10MS+1,w
  4254  0CEF  0085               	movwf	5
  4255  0CF0  3F00               	moviw [0]fsr0
  4256  0CF1  00AC               	movwf	SetPWM1@DutyCycle
  4257  0CF2  3F01               	moviw [1]fsr0
  4258  0CF3  00AD               	movwf	SetPWM1@DutyCycle+1
  4259  0CF4  3189  21C9  318C   	fcall	_SetPWM1
  4260  0CF7                     l132:
  4261  0CF7  0008               	return
  4262  0CF8                     __end_of_APPL_TASK_10MS:
  4263                           
  4264                           	psect	text23
  4265  0D73                     __ptext23:	
  4266 ;; *************** function _deQueue *****************
  4267 ;; Defined at:
  4268 ;;		line 106 in file "02-SRC/02-APPLICATION/Appl.c"
  4269 ;; Parameters:    Size  Location     Type
  4270 ;;		None
  4271 ;; Auto vars:     Size  Location     Type
  4272 ;;  element         1   11[BANK0 ] unsigned char 
  4273 ;; Return value:  Size  Location     Type
  4274 ;;                  1    wreg      unsigned char 
  4275 ;; Registers used:
  4276 ;;		wreg, fsr1l, fsr1h, status,2, status,0, pclath, cstack
  4277 ;; Tracked objects:
  4278 ;;		On entry : 0/0
  4279 ;;		On exit  : 0/0
  4280 ;;		Unchanged: 0/0
  4281 ;; Data sizes:     COMMON   BANK0   BANK1   BANK2   BANK3   BANK4   BANK5   BANK6
  4282 ;;      Params:         0       0       0       0       0       0       0       0
  4283 ;;      Locals:         0       1       0       0       0       0       0       0
  4284 ;;      Temps:          0       3       0       0       0       0       0       0
  4285 ;;      Totals:         0       4       0       0       0       0       0       0
  4286 ;;Total ram usage:        4 bytes
  4287 ;; Hardware stack levels used:    1
  4288 ;; Hardware stack levels required when called:    5
  4289 ;; This function calls:
  4290 ;;		_IsEmpty
  4291 ;;		___lwmod
  4292 ;; This function is called by:
  4293 ;;		_APPL_TASK_10MS
  4294 ;; This function uses a non-reentrant model
  4295 ;;
  4296                           
  4297                           
  4298                           ;psect for function _deQueue
  4299  0D73                     _deQueue:
  4300  0D73                     l2382:	
  4301                           ;incstack = 0
  4302                           ; Regs used in _deQueue: [wreg+fsr1l+fsr1h+status,2+status,0+pclath+cstack]
  4303                           
  4304  0D73  0020               	movlb	0	; select bank0
  4305  0D74  01AB               	clrf	deQueue@element
  4306  0D75                     l2384:
  4307  0D75  3189  215E  318D   	fcall	_IsEmpty
  4308  0D78  3A00               	xorlw	0
  4309  0D79  1D03               	skipz
  4310  0D7A  2D7C               	goto	u2561
  4311  0D7B  2D7D               	goto	u2560
  4312  0D7C                     u2561:
  4313  0D7C  2DB1               	goto	l2394
  4314  0D7D                     u2560:
  4315  0D7D                     l2386:
  4316  0D7D  3070               	movlw	112
  4317  0D7E  0020               	movlb	0	; select bank0
  4318  0D7F  00A8               	movwf	??_deQueue
  4319  0D80  3021               	movlw	33
  4320  0D81  00A9               	movwf	??_deQueue+1
  4321  0D82  0867               	movf	_MyQueue,w
  4322  0D83  0728               	addwf	??_deQueue,w
  4323  0D84  0086               	movwf	6
  4324  0D85  0868               	movf	_MyQueue+1,w
  4325  0D86  3D29               	addwfc	??_deQueue+1,w
  4326  0D87  0087               	movwf	7
  4327  0D88  0801               	movf	1,w
  4328  0D89  00AA               	movwf	??_deQueue+2
  4329  0D8A  082A               	movf	??_deQueue+2,w
  4330  0D8B  00AB               	movwf	deQueue@element
  4331  0D8C                     l2388:
  4332  0D8C  0868               	movf	_MyQueue+1,w
  4333  0D8D  066A               	xorwf	_MyQueue+3,w
  4334  0D8E  1D03               	skipz
  4335  0D8F  2D92               	goto	u2575
  4336  0D90  0867               	movf	_MyQueue,w
  4337  0D91  0669               	xorwf	_MyQueue+2,w
  4338  0D92                     u2575:
  4339  0D92  1D03               	skipz
  4340  0D93  2D95               	goto	u2571
  4341  0D94  2D96               	goto	u2570
  4342  0D95                     u2571:
  4343  0D95  2D9F               	goto	l2392
  4344  0D96                     u2570:
  4345  0D96                     l2390:
  4346  0D96  30FF               	movlw	255
  4347  0D97  00E7               	movwf	_MyQueue
  4348  0D98  30FF               	movlw	255
  4349  0D99  00E8               	movwf	_MyQueue+1
  4350  0D9A  30FF               	movlw	255
  4351  0D9B  00E9               	movwf	_MyQueue+2
  4352  0D9C  30FF               	movlw	255
  4353  0D9D  00EA               	movwf	_MyQueue+3
  4354  0D9E  2DB1               	goto	l2394
  4355  0D9F                     l2392:
  4356  0D9F  086C               	movf	_MyQueue+5,w
  4357  0DA0  00A3               	movwf	___lwmod@divisor+1
  4358  0DA1  086B               	movf	_MyQueue+4,w
  4359  0DA2  00A2               	movwf	___lwmod@divisor
  4360  0DA3  0867               	movf	_MyQueue,w
  4361  0DA4  3E01               	addlw	1
  4362  0DA5  00A4               	movwf	___lwmod@dividend
  4363  0DA6  3000               	movlw	0
  4364  0DA7  3D68               	addwfc	_MyQueue+1,w
  4365  0DA8  00A5               	movwf	___lwmod@dividend+1
  4366  0DA9  318C  248B  318D   	fcall	___lwmod
  4367  0DAC  0020               	movlb	0	; select bank0
  4368  0DAD  0823               	movf	?___lwmod+1,w
  4369  0DAE  00E8               	movwf	_MyQueue+1
  4370  0DAF  0822               	movf	?___lwmod,w
  4371  0DB0  00E7               	movwf	_MyQueue
  4372  0DB1                     l2394:
  4373  0DB1  0020               	movlb	0	; select bank0
  4374  0DB2  082B               	movf	deQueue@element,w
  4375  0DB3                     l100:
  4376  0DB3  0008               	return
  4377  0DB4                     __end_of_deQueue:
  4378                           
  4379                           	psect	text24
  4380  095E                     __ptext24:	
  4381 ;; *************** function _IsEmpty *****************
  4382 ;; Defined at:
  4383 ;;		line 70 in file "02-SRC/02-APPLICATION/Appl.c"
  4384 ;; Parameters:    Size  Location     Type
  4385 ;;		None
  4386 ;; Auto vars:     Size  Location     Type
  4387 ;;		None
  4388 ;; Return value:  Size  Location     Type
  4389 ;;                  1    wreg      unsigned char 
  4390 ;; Registers used:
  4391 ;;		wreg, status,2, status,0
  4392 ;; Tracked objects:
  4393 ;;		On entry : 0/0
  4394 ;;		On exit  : 0/0
  4395 ;;		Unchanged: 0/0
  4396 ;; Data sizes:     COMMON   BANK0   BANK1   BANK2   BANK3   BANK4   BANK5   BANK6
  4397 ;;      Params:         0       0       0       0       0       0       0       0
  4398 ;;      Locals:         0       0       0       0       0       0       0       0
  4399 ;;      Temps:          0       0       0       0       0       0       0       0
  4400 ;;      Totals:         0       0       0       0       0       0       0       0
  4401 ;;Total ram usage:        0 bytes
  4402 ;; Hardware stack levels used:    1
  4403 ;; Hardware stack levels required when called:    4
  4404 ;; This function calls:
  4405 ;;		Nothing
  4406 ;; This function is called by:
  4407 ;;		_deQueue
  4408 ;; This function uses a non-reentrant model
  4409 ;;
  4410                           
  4411                           
  4412                           ;psect for function _IsEmpty
  4413  095E                     _IsEmpty:
  4414  095E                     l1866:	
  4415                           ;incstack = 0
  4416                           ; Regs used in _IsEmpty: [wreg+status,2+status,0]
  4417                           
  4418  095E  0020               	movlb	0	; select bank0
  4419  095F  0A67               	incf	_MyQueue,w
  4420  0960  1D03               	skipz
  4421  0961  2968               	goto	u1540
  4422  0962  0A68               	incf	_MyQueue+1,w
  4423  0963  1903               	btfsc	3,2
  4424  0964  2966               	goto	u1541
  4425  0965  2968               	goto	u1540
  4426  0966                     u1541:
  4427  0966  3001               	movlw	1
  4428  0967  2969               	goto	u1550
  4429  0968                     u1540:
  4430  0968  3000               	movlw	0
  4431  0969                     u1550:
  4432  0969                     l82:
  4433  0969  0008               	return
  4434  096A                     __end_of_IsEmpty:
  4435                           
  4436                           	psect	text25
  4437  09C9                     __ptext25:	
  4438 ;; *************** function _SetPWM1 *****************
  4439 ;; Defined at:
  4440 ;;		line 55 in file "02-SRC/04-DRIVER/target.c"
  4441 ;; Parameters:    Size  Location     Type
  4442 ;;  DutyCycle       2   12[BANK0 ] unsigned short 
  4443 ;; Auto vars:     Size  Location     Type
  4444 ;;		None
  4445 ;; Return value:  Size  Location     Type
  4446 ;;                  1    wreg      void 
  4447 ;; Registers used:
  4448 ;;		wreg, status,2, status,0
  4449 ;; Tracked objects:
  4450 ;;		On entry : 0/0
  4451 ;;		On exit  : 0/0
  4452 ;;		Unchanged: 0/0
  4453 ;; Data sizes:     COMMON   BANK0   BANK1   BANK2   BANK3   BANK4   BANK5   BANK6
  4454 ;;      Params:         0       2       0       0       0       0       0       0
  4455 ;;      Locals:         0       0       0       0       0       0       0       0
  4456 ;;      Temps:          0       2       0       0       0       0       0       0
  4457 ;;      Totals:         0       4       0       0       0       0       0       0
  4458 ;;Total ram usage:        4 bytes
  4459 ;; Hardware stack levels used:    1
  4460 ;; Hardware stack levels required when called:    4
  4461 ;; This function calls:
  4462 ;;		Nothing
  4463 ;; This function is called by:
  4464 ;;		_Appl_Init
  4465 ;;		_APPL_TASK_10MS
  4466 ;; This function uses a non-reentrant model
  4467 ;;
  4468                           
  4469                           
  4470                           ;psect for function _SetPWM1
  4471  09C9                     _SetPWM1:
  4472  09C9                     l2272:	
  4473                           ;incstack = 0
  4474                           ; Regs used in _SetPWM1: [wreg+status,2+status,0]
  4475                           
  4476  09C9  0020               	movlb	0	; select bank0
  4477  09CA  082C               	movf	SetPWM1@DutyCycle,w
  4478  09CB  00AE               	movwf	??_SetPWM1
  4479  09CC  3005               	movlw	5
  4480  09CD                     u2435:
  4481  09CD  35AE               	lslf	??_SetPWM1,f
  4482  09CE  3EFF               	addlw	-1
  4483  09CF  1D03               	skipz
  4484  09D0  29CD               	goto	u2435
  4485  09D1  352E               	lslf	??_SetPWM1,w
  4486  09D2  002C               	movlb	12	; select bank12
  4487  09D3  0091               	movwf	17	;volatile
  4488  09D4  0020               	movlb	0	; select bank0
  4489  09D5  082D               	movf	SetPWM1@DutyCycle+1,w
  4490  09D6  00AF               	movwf	??_SetPWM1+1
  4491  09D7  082C               	movf	SetPWM1@DutyCycle,w
  4492  09D8  00AE               	movwf	??_SetPWM1
  4493  09D9  36AF               	lsrf	??_SetPWM1+1,f
  4494  09DA  0CAE               	rrf	??_SetPWM1,f
  4495  09DB  36AF               	lsrf	??_SetPWM1+1,f
  4496  09DC  0CAE               	rrf	??_SetPWM1,f
  4497  09DD  082E               	movf	??_SetPWM1,w
  4498  09DE  002C               	movlb	12	; select bank12
  4499  09DF  0092               	movwf	18	;volatile
  4500  09E0                     l346:
  4501  09E0  0008               	return
  4502  09E1                     __end_of_SetPWM1:
  4503                           
  4504                           	psect	text26
  4505  066E                     __ptext26:	
  4506 ;; *************** function _LinearTransiant *****************
  4507 ;; Defined at:
  4508 ;;		line 125 in file "02-SRC/02-APPLICATION/Appl.c"
  4509 ;; Parameters:    Size  Location     Type
  4510 ;;  NewValue        1    wreg     unsigned char 
  4511 ;;  OldValue        1   53[BANK0 ] unsigned char 
  4512 ;;  Duration10ms    1   54[BANK0 ] unsigned char 
  4513 ;; Auto vars:     Size  Location     Type
  4514 ;;  NewValue        1   68[BANK0 ] unsigned char 
  4515 ;;  Slope           4   60[BANK0 ] float 
  4516 ;;  diff            2   64[BANK0 ] unsigned short 
  4517 ;;  i               1   67[BANK0 ] unsigned char 
  4518 ;;  a               1   66[BANK0 ] unsigned char 
  4519 ;; Return value:  Size  Location     Type
  4520 ;;                  1    wreg      void 
  4521 ;; Registers used:
  4522 ;;		wreg, fsr1l, fsr1h, status,2, status,0, pclath, cstack
  4523 ;; Tracked objects:
  4524 ;;		On entry : 0/0
  4525 ;;		On exit  : 0/0
  4526 ;;		Unchanged: 0/0
  4527 ;; Data sizes:     COMMON   BANK0   BANK1   BANK2   BANK3   BANK4   BANK5   BANK6
  4528 ;;      Params:         0       2       0       0       0       0       0       0
  4529 ;;      Locals:         0       9       0       0       0       0       0       0
  4530 ;;      Temps:          0       5       0       0       0       0       0       0
  4531 ;;      Totals:         0      16       0       0       0       0       0       0
  4532 ;;Total ram usage:       16 bytes
  4533 ;; Hardware stack levels used:    1
  4534 ;; Hardware stack levels required when called:    6
  4535 ;; This function calls:
  4536 ;;		___fldiv
  4537 ;;		___flmul
  4538 ;;		___fltol
  4539 ;;		___xxtofl
  4540 ;;		_enQueue
  4541 ;; This function is called by:
  4542 ;;		_APPL_TASK_10MS
  4543 ;; This function uses a non-reentrant model
  4544 ;;
  4545                           
  4546                           
  4547                           ;psect for function _LinearTransiant
  4548  066E                     _LinearTransiant:
  4549                           
  4550                           ;incstack = 0
  4551                           ; Regs used in _LinearTransiant: [wreg+fsr1l+fsr1h+status,2+status,0+pclath+cstack]
  4552                           ;LinearTransiant@NewValue stored from wreg
  4553  066E  0020               	movlb	0	; select bank0
  4554  066F  00E4               	movwf	LinearTransiant@NewValue
  4555  0670                     l2398:
  4556  0670  0864               	movf	LinearTransiant@NewValue,w
  4557  0671  0655               	xorwf	LinearTransiant@OldValue,w
  4558  0672  1903               	skipnz
  4559  0673  2E75               	goto	u2581
  4560  0674  2E76               	goto	u2580
  4561  0675                     u2581:
  4562  0675  2F95               	goto	l113
  4563  0676                     u2580:
  4564  0676                     l2400:
  4565  0676  0864               	movf	LinearTransiant@NewValue,w
  4566  0677  0255               	subwf	LinearTransiant@OldValue,w
  4567  0678  1803               	skipnc
  4568  0679  2E7B               	goto	u2591
  4569  067A  2E7C               	goto	u2590
  4570  067B                     u2591:
  4571  067B  2F09               	goto	l2418
  4572  067C                     u2590:
  4573  067C                     l2402:
  4574  067C  0855               	movf	LinearTransiant@OldValue,w
  4575  067D  0264               	subwf	LinearTransiant@NewValue,w
  4576  067E  00E0               	movwf	LinearTransiant@diff
  4577  067F  01E1               	clrf	LinearTransiant@diff+1
  4578  0680  1C03               	skipc
  4579  0681  03E1               	decf	LinearTransiant@diff+1,f
  4580  0682                     l2404:
  4581  0682  0856               	movf	LinearTransiant@Duration10ms,w
  4582  0683  00D7               	movwf	??_LinearTransiant
  4583  0684  01D8               	clrf	??_LinearTransiant+1
  4584  0685  01D9               	clrf	??_LinearTransiant+2
  4585  0686  01DA               	clrf	??_LinearTransiant+3
  4586  0687  085A               	movf	??_LinearTransiant+3,w
  4587  0688  00A5               	movwf	___xxtofl@val+3
  4588  0689  0859               	movf	??_LinearTransiant+2,w
  4589  068A  00A4               	movwf	___xxtofl@val+2
  4590  068B  0858               	movf	??_LinearTransiant+1,w
  4591  068C  00A3               	movwf	___xxtofl@val+1
  4592  068D  0857               	movf	??_LinearTransiant,w
  4593  068E  00A2               	movwf	___xxtofl@val
  4594  068F  3001               	movlw	1
  4595  0690  318F  2753  3186   	fcall	___xxtofl
  4596  0693  0020               	movlb	0	; select bank0
  4597  0694  0825               	movf	?___xxtofl+3,w
  4598  0695  00B3               	movwf	___fldiv@a+3
  4599  0696  0824               	movf	?___xxtofl+2,w
  4600  0697  00B2               	movwf	___fldiv@a+2
  4601  0698  0823               	movf	?___xxtofl+1,w
  4602  0699  00B1               	movwf	___fldiv@a+1
  4603  069A  0822               	movf	?___xxtofl,w
  4604  069B  00B0               	movwf	___fldiv@a
  4605  069C  0860               	movf	LinearTransiant@diff,w
  4606  069D  00A2               	movwf	___xxtofl@val
  4607  069E  0861               	movf	LinearTransiant@diff+1,w
  4608  069F  00A3               	movwf	___xxtofl@val+1
  4609  06A0  01A4               	clrf	___xxtofl@val+2
  4610  06A1  01A5               	clrf	___xxtofl@val+3
  4611  06A2  3000               	movlw	0
  4612  06A3  318F  2753  3186   	fcall	___xxtofl
  4613  06A6  0020               	movlb	0	; select bank0
  4614  06A7  0825               	movf	?___xxtofl+3,w
  4615  06A8  00B7               	movwf	___fldiv@b+3
  4616  06A9  0824               	movf	?___xxtofl+2,w
  4617  06AA  00B6               	movwf	___fldiv@b+2
  4618  06AB  0823               	movf	?___xxtofl+1,w
  4619  06AC  00B5               	movwf	___fldiv@b+1
  4620  06AD  0822               	movf	?___xxtofl,w
  4621  06AE  00B4               	movwf	___fldiv@b
  4622  06AF  3184  24BA  3186   	fcall	___fldiv
  4623  06B2  0020               	movlb	0	; select bank0
  4624  06B3  0833               	movf	?___fldiv+3,w
  4625  06B4  00DF               	movwf	LinearTransiant@Slope+3
  4626  06B5  0832               	movf	?___fldiv+2,w
  4627  06B6  00DE               	movwf	LinearTransiant@Slope+2
  4628  06B7  0831               	movf	?___fldiv+1,w
  4629  06B8  00DD               	movwf	LinearTransiant@Slope+1
  4630  06B9  0830               	movf	?___fldiv,w
  4631  06BA  00DC               	movwf	LinearTransiant@Slope
  4632  06BB                     l2406:
  4633  06BB  01E3               	clrf	LinearTransiant@i
  4634  06BC  0AE3               	incf	LinearTransiant@i,f
  4635  06BD  2EFE               	goto	l2414
  4636  06BE                     l2408:
  4637  06BE  0863               	movf	LinearTransiant@i,w
  4638  06BF  00D7               	movwf	??_LinearTransiant
  4639  06C0  01D8               	clrf	??_LinearTransiant+1
  4640  06C1  01D9               	clrf	??_LinearTransiant+2
  4641  06C2  01DA               	clrf	??_LinearTransiant+3
  4642  06C3  085A               	movf	??_LinearTransiant+3,w
  4643  06C4  00A5               	movwf	___xxtofl@val+3
  4644  06C5  0859               	movf	??_LinearTransiant+2,w
  4645  06C6  00A4               	movwf	___xxtofl@val+2
  4646  06C7  0858               	movf	??_LinearTransiant+1,w
  4647  06C8  00A3               	movwf	___xxtofl@val+1
  4648  06C9  0857               	movf	??_LinearTransiant,w
  4649  06CA  00A2               	movwf	___xxtofl@val
  4650  06CB  3001               	movlw	1
  4651  06CC  318F  2753  3186   	fcall	___xxtofl
  4652  06CF  0020               	movlb	0	; select bank0
  4653  06D0  0825               	movf	?___xxtofl+3,w
  4654  06D1  00B7               	movwf	___flmul@a+3
  4655  06D2  0824               	movf	?___xxtofl+2,w
  4656  06D3  00B6               	movwf	___flmul@a+2
  4657  06D4  0823               	movf	?___xxtofl+1,w
  4658  06D5  00B5               	movwf	___flmul@a+1
  4659  06D6  0822               	movf	?___xxtofl,w
  4660  06D7  00B4               	movwf	___flmul@a
  4661  06D8  085F               	movf	LinearTransiant@Slope+3,w
  4662  06D9  00B3               	movwf	___flmul@b+3
  4663  06DA  085E               	movf	LinearTransiant@Slope+2,w
  4664  06DB  00B2               	movwf	___flmul@b+2
  4665  06DC  085D               	movf	LinearTransiant@Slope+1,w
  4666  06DD  00B1               	movwf	___flmul@b+1
  4667  06DE  085C               	movf	LinearTransiant@Slope,w
  4668  06DF  00B0               	movwf	___flmul@b
  4669  06E0  3180  2063  3186   	fcall	___flmul
  4670  06E3  0020               	movlb	0	; select bank0
  4671  06E4  0833               	movf	?___flmul+3,w
  4672  06E5  00CD               	movwf	___fltol@f1+3
  4673  06E6  0832               	movf	?___flmul+2,w
  4674  06E7  00CC               	movwf	___fltol@f1+2
  4675  06E8  0831               	movf	?___flmul+1,w
  4676  06E9  00CB               	movwf	___fltol@f1+1
  4677  06EA  0830               	movf	?___flmul,w
  4678  06EB  00CA               	movwf	___fltol@f1
  4679  06EC  318E  2644  3186   	fcall	___fltol
  4680  06EF  0020               	movlb	0	; select bank0
  4681  06F0  084A               	movf	?___fltol,w
  4682  06F1  0755               	addwf	LinearTransiant@OldValue,w
  4683  06F2  00DB               	movwf	??_LinearTransiant+4
  4684  06F3  085B               	movf	??_LinearTransiant+4,w
  4685  06F4  00E2               	movwf	LinearTransiant@a
  4686  06F5                     l2410:
  4687  06F5  0862               	movf	LinearTransiant@a,w
  4688  06F6  318D  25B4  3186   	fcall	_enQueue
  4689  06F9                     l2412:
  4690  06F9  3001               	movlw	1
  4691  06FA  0020               	movlb	0	; select bank0
  4692  06FB  00D7               	movwf	??_LinearTransiant
  4693  06FC  0857               	movf	??_LinearTransiant,w
  4694  06FD  07E3               	addwf	LinearTransiant@i,f
  4695  06FE                     l2414:
  4696  06FE  0856               	movf	LinearTransiant@Duration10ms,w
  4697  06FF  0263               	subwf	LinearTransiant@i,w
  4698  0700  1C03               	skipc
  4699  0701  2F03               	goto	u2601
  4700  0702  2F04               	goto	u2600
  4701  0703                     u2601:
  4702  0703  2EBE               	goto	l2408
  4703  0704                     u2600:
  4704  0704                     l2416:
  4705  0704  0864               	movf	LinearTransiant@NewValue,w
  4706  0705  318D  25B4  3186   	fcall	_enQueue
  4707  0708  2F95               	goto	l113
  4708  0709                     l2418:
  4709  0709  0864               	movf	LinearTransiant@NewValue,w
  4710  070A  0255               	subwf	LinearTransiant@OldValue,w
  4711  070B  00E0               	movwf	LinearTransiant@diff
  4712  070C  01E1               	clrf	LinearTransiant@diff+1
  4713  070D  1C03               	skipc
  4714  070E  03E1               	decf	LinearTransiant@diff+1,f
  4715  070F                     l2420:
  4716  070F  0856               	movf	LinearTransiant@Duration10ms,w
  4717  0710  00D7               	movwf	??_LinearTransiant
  4718  0711  01D8               	clrf	??_LinearTransiant+1
  4719  0712  01D9               	clrf	??_LinearTransiant+2
  4720  0713  01DA               	clrf	??_LinearTransiant+3
  4721  0714  085A               	movf	??_LinearTransiant+3,w
  4722  0715  00A5               	movwf	___xxtofl@val+3
  4723  0716  0859               	movf	??_LinearTransiant+2,w
  4724  0717  00A4               	movwf	___xxtofl@val+2
  4725  0718  0858               	movf	??_LinearTransiant+1,w
  4726  0719  00A3               	movwf	___xxtofl@val+1
  4727  071A  0857               	movf	??_LinearTransiant,w
  4728  071B  00A2               	movwf	___xxtofl@val
  4729  071C  3001               	movlw	1
  4730  071D  318F  2753  3186   	fcall	___xxtofl
  4731  0720  0020               	movlb	0	; select bank0
  4732  0721  0825               	movf	?___xxtofl+3,w
  4733  0722  00B3               	movwf	___fldiv@a+3
  4734  0723  0824               	movf	?___xxtofl+2,w
  4735  0724  00B2               	movwf	___fldiv@a+2
  4736  0725  0823               	movf	?___xxtofl+1,w
  4737  0726  00B1               	movwf	___fldiv@a+1
  4738  0727  0822               	movf	?___xxtofl,w
  4739  0728  00B0               	movwf	___fldiv@a
  4740  0729  0860               	movf	LinearTransiant@diff,w
  4741  072A  00A2               	movwf	___xxtofl@val
  4742  072B  0861               	movf	LinearTransiant@diff+1,w
  4743  072C  00A3               	movwf	___xxtofl@val+1
  4744  072D  01A4               	clrf	___xxtofl@val+2
  4745  072E  01A5               	clrf	___xxtofl@val+3
  4746  072F  3000               	movlw	0
  4747  0730  318F  2753  3186   	fcall	___xxtofl
  4748  0733  0020               	movlb	0	; select bank0
  4749  0734  0825               	movf	?___xxtofl+3,w
  4750  0735  00B7               	movwf	___fldiv@b+3
  4751  0736  0824               	movf	?___xxtofl+2,w
  4752  0737  00B6               	movwf	___fldiv@b+2
  4753  0738  0823               	movf	?___xxtofl+1,w
  4754  0739  00B5               	movwf	___fldiv@b+1
  4755  073A  0822               	movf	?___xxtofl,w
  4756  073B  00B4               	movwf	___fldiv@b
  4757  073C  3184  24BA  3186   	fcall	___fldiv
  4758  073F  0020               	movlb	0	; select bank0
  4759  0740  0833               	movf	?___fldiv+3,w
  4760  0741  00DF               	movwf	LinearTransiant@Slope+3
  4761  0742  0832               	movf	?___fldiv+2,w
  4762  0743  00DE               	movwf	LinearTransiant@Slope+2
  4763  0744  0831               	movf	?___fldiv+1,w
  4764  0745  00DD               	movwf	LinearTransiant@Slope+1
  4765  0746  0830               	movf	?___fldiv,w
  4766  0747  00DC               	movwf	LinearTransiant@Slope
  4767  0748                     l2422:
  4768  0748  01E3               	clrf	LinearTransiant@i
  4769  0749  0AE3               	incf	LinearTransiant@i,f
  4770  074A  2F8B               	goto	l2430
  4771  074B                     l2424:
  4772  074B  0863               	movf	LinearTransiant@i,w
  4773  074C  00D7               	movwf	??_LinearTransiant
  4774  074D  01D8               	clrf	??_LinearTransiant+1
  4775  074E  01D9               	clrf	??_LinearTransiant+2
  4776  074F  01DA               	clrf	??_LinearTransiant+3
  4777  0750  085A               	movf	??_LinearTransiant+3,w
  4778  0751  00A5               	movwf	___xxtofl@val+3
  4779  0752  0859               	movf	??_LinearTransiant+2,w
  4780  0753  00A4               	movwf	___xxtofl@val+2
  4781  0754  0858               	movf	??_LinearTransiant+1,w
  4782  0755  00A3               	movwf	___xxtofl@val+1
  4783  0756  0857               	movf	??_LinearTransiant,w
  4784  0757  00A2               	movwf	___xxtofl@val
  4785  0758  3001               	movlw	1
  4786  0759  318F  2753  3186   	fcall	___xxtofl
  4787  075C  0020               	movlb	0	; select bank0
  4788  075D  0825               	movf	?___xxtofl+3,w
  4789  075E  00B7               	movwf	___flmul@a+3
  4790  075F  0824               	movf	?___xxtofl+2,w
  4791  0760  00B6               	movwf	___flmul@a+2
  4792  0761  0823               	movf	?___xxtofl+1,w
  4793  0762  00B5               	movwf	___flmul@a+1
  4794  0763  0822               	movf	?___xxtofl,w
  4795  0764  00B4               	movwf	___flmul@a
  4796  0765  085F               	movf	LinearTransiant@Slope+3,w
  4797  0766  00B3               	movwf	___flmul@b+3
  4798  0767  085E               	movf	LinearTransiant@Slope+2,w
  4799  0768  00B2               	movwf	___flmul@b+2
  4800  0769  085D               	movf	LinearTransiant@Slope+1,w
  4801  076A  00B1               	movwf	___flmul@b+1
  4802  076B  085C               	movf	LinearTransiant@Slope,w
  4803  076C  00B0               	movwf	___flmul@b
  4804  076D  3180  2063  3186   	fcall	___flmul
  4805  0770  0020               	movlb	0	; select bank0
  4806  0771  0833               	movf	?___flmul+3,w
  4807  0772  00CD               	movwf	___fltol@f1+3
  4808  0773  0832               	movf	?___flmul+2,w
  4809  0774  00CC               	movwf	___fltol@f1+2
  4810  0775  0831               	movf	?___flmul+1,w
  4811  0776  00CB               	movwf	___fltol@f1+1
  4812  0777  0830               	movf	?___flmul,w
  4813  0778  00CA               	movwf	___fltol@f1
  4814  0779  318E  2644  3186   	fcall	___fltol
  4815  077C  0020               	movlb	0	; select bank0
  4816  077D  084A               	movf	?___fltol,w
  4817  077E  0255               	subwf	LinearTransiant@OldValue,w
  4818  077F  00DB               	movwf	??_LinearTransiant+4
  4819  0780  085B               	movf	??_LinearTransiant+4,w
  4820  0781  00E2               	movwf	LinearTransiant@a
  4821  0782                     l2426:
  4822  0782  0862               	movf	LinearTransiant@a,w
  4823  0783  318D  25B4  3186   	fcall	_enQueue
  4824  0786                     l2428:
  4825  0786  3001               	movlw	1
  4826  0787  0020               	movlb	0	; select bank0
  4827  0788  00D7               	movwf	??_LinearTransiant
  4828  0789  0857               	movf	??_LinearTransiant,w
  4829  078A  07E3               	addwf	LinearTransiant@i,f
  4830  078B                     l2430:
  4831  078B  0856               	movf	LinearTransiant@Duration10ms,w
  4832  078C  0263               	subwf	LinearTransiant@i,w
  4833  078D  1C03               	skipc
  4834  078E  2F90               	goto	u2611
  4835  078F  2F91               	goto	u2610
  4836  0790                     u2611:
  4837  0790  2F4B               	goto	l2424
  4838  0791                     u2610:
  4839  0791                     l2432:
  4840  0791  0864               	movf	LinearTransiant@NewValue,w
  4841  0792  318D  25B4  3186   	fcall	_enQueue
  4842  0795                     l113:
  4843  0795  0008               	return
  4844  0796                     __end_of_LinearTransiant:
  4845                           
  4846                           	psect	text27
  4847  0DB4                     __ptext27:	
  4848 ;; *************** function _enQueue *****************
  4849 ;; Defined at:
  4850 ;;		line 95 in file "02-SRC/02-APPLICATION/Appl.c"
  4851 ;; Parameters:    Size  Location     Type
  4852 ;;  element         1    wreg     unsigned char 
  4853 ;; Auto vars:     Size  Location     Type
  4854 ;;  element         1   12[BANK0 ] unsigned char 
  4855 ;; Return value:  Size  Location     Type
  4856 ;;                  1    wreg      void 
  4857 ;; Registers used:
  4858 ;;		wreg, fsr1l, fsr1h, status,2, status,0, pclath, cstack
  4859 ;; Tracked objects:
  4860 ;;		On entry : 0/0
  4861 ;;		On exit  : 0/0
  4862 ;;		Unchanged: 0/0
  4863 ;; Data sizes:     COMMON   BANK0   BANK1   BANK2   BANK3   BANK4   BANK5   BANK6
  4864 ;;      Params:         0       0       0       0       0       0       0       0
  4865 ;;      Locals:         0       1       0       0       0       0       0       0
  4866 ;;      Temps:          0       4       0       0       0       0       0       0
  4867 ;;      Totals:         0       5       0       0       0       0       0       0
  4868 ;;Total ram usage:        5 bytes
  4869 ;; Hardware stack levels used:    1
  4870 ;; Hardware stack levels required when called:    5
  4871 ;; This function calls:
  4872 ;;		_IsFull
  4873 ;;		___lwmod
  4874 ;; This function is called by:
  4875 ;;		_LinearTransiant
  4876 ;;		_APPL_TASK_10MS
  4877 ;; This function uses a non-reentrant model
  4878 ;;
  4879                           
  4880                           
  4881                           ;psect for function _enQueue
  4882  0DB4                     _enQueue:
  4883                           
  4884                           ;incstack = 0
  4885                           ; Regs used in _enQueue: [wreg+fsr1l+fsr1h+status,2+status,0+pclath+cstack]
  4886                           ;enQueue@element stored from wreg
  4887  0DB4  0020               	movlb	0	; select bank0
  4888  0DB5  00AC               	movwf	enQueue@element
  4889  0DB6                     l1870:
  4890  0DB6  318B  236D  318D   	fcall	_IsFull
  4891  0DB9  3A00               	xorlw	0
  4892  0DBA  1D03               	skipz
  4893  0DBB  2DBD               	goto	u1561
  4894  0DBC  2DBE               	goto	u1560
  4895  0DBD                     u1561:
  4896  0DBD  2DF5               	goto	l94
  4897  0DBE                     u1560:
  4898  0DBE                     l1872:
  4899  0DBE  0020               	movlb	0	; select bank0
  4900  0DBF  0A67               	incf	_MyQueue,w
  4901  0DC0  1D03               	skipz
  4902  0DC1  2DC8               	goto	u1570
  4903  0DC2  0A68               	incf	_MyQueue+1,w
  4904  0DC3  1903               	btfsc	3,2
  4905  0DC4  2DC6               	goto	u1571
  4906  0DC5  2DC8               	goto	u1570
  4907  0DC6                     u1571:
  4908  0DC6  3001               	movlw	1
  4909  0DC7  2DC9               	goto	u1580
  4910  0DC8                     u1570:
  4911  0DC8  3000               	movlw	0
  4912  0DC9                     u1580:
  4913  0DC9  00A8               	movwf	??_enQueue
  4914  0DCA  01A9               	clrf	??_enQueue+1
  4915  0DCB  0828               	movf	??_enQueue,w
  4916  0DCC  07E7               	addwf	_MyQueue,f
  4917  0DCD  0829               	movf	??_enQueue+1,w
  4918  0DCE  3DE8               	addwfc	_MyQueue+1,f
  4919  0DCF                     l1874:
  4920  0DCF  086C               	movf	_MyQueue+5,w
  4921  0DD0  00A3               	movwf	___lwmod@divisor+1
  4922  0DD1  086B               	movf	_MyQueue+4,w
  4923  0DD2  00A2               	movwf	___lwmod@divisor
  4924  0DD3  0869               	movf	_MyQueue+2,w
  4925  0DD4  3E01               	addlw	1
  4926  0DD5  00A4               	movwf	___lwmod@dividend
  4927  0DD6  3000               	movlw	0
  4928  0DD7  3D6A               	addwfc	_MyQueue+3,w
  4929  0DD8  00A5               	movwf	___lwmod@dividend+1
  4930  0DD9  318C  248B  318D   	fcall	___lwmod
  4931  0DDC  0020               	movlb	0	; select bank0
  4932  0DDD  0823               	movf	?___lwmod+1,w
  4933  0DDE  00EA               	movwf	_MyQueue+3
  4934  0DDF  0822               	movf	?___lwmod,w
  4935  0DE0  00E9               	movwf	_MyQueue+2
  4936  0DE1                     l1876:
  4937  0DE1  3002               	movlw	2
  4938  0DE2  3E67               	addlw	(low (_MyQueue| 0))& (0+255)
  4939  0DE3  0086               	movwf	6
  4940  0DE4  0187               	clrf	7
  4941  0DE5  3070               	movlw	112
  4942  0DE6  00A8               	movwf	??_enQueue
  4943  0DE7  3021               	movlw	33
  4944  0DE8  00A9               	movwf	??_enQueue+1
  4945  0DE9  3F40               	moviw [0]fsr1
  4946  0DEA  0728               	addwf	??_enQueue,w
  4947  0DEB  00AA               	movwf	??_enQueue+2
  4948  0DEC  3F41               	moviw [1]fsr1
  4949  0DED  3D29               	addwfc	??_enQueue+1,w
  4950  0DEE  00AB               	movwf	??_enQueue+3
  4951  0DEF  082A               	movf	??_enQueue+2,w
  4952  0DF0  0086               	movwf	6
  4953  0DF1  082B               	movf	??_enQueue+3,w
  4954  0DF2  0087               	movwf	7
  4955  0DF3  082C               	movf	enQueue@element,w
  4956  0DF4  0081               	movwf	1
  4957  0DF5                     l94:
  4958  0DF5  0008               	return
  4959  0DF6                     __end_of_enQueue:
  4960                           
  4961                           	psect	text28
  4962  0C8B                     __ptext28:	
  4963 ;; *************** function ___lwmod *****************
  4964 ;; Defined at:
  4965 ;;		line 5 in file "C:\Program Files (x86)\Microchip\xc8\pic\sources\c99\common\lwmod.c"
  4966 ;; Parameters:    Size  Location     Type
  4967 ;;  divisor         2    2[BANK0 ] unsigned int 
  4968 ;;  dividend        2    4[BANK0 ] unsigned int 
  4969 ;; Auto vars:     Size  Location     Type
  4970 ;;  counter         1    7[BANK0 ] unsigned char 
  4971 ;; Return value:  Size  Location     Type
  4972 ;;                  2    2[BANK0 ] unsigned int 
  4973 ;; Registers used:
  4974 ;;		wreg, status,2, status,0
  4975 ;; Tracked objects:
  4976 ;;		On entry : 0/0
  4977 ;;		On exit  : 0/0
  4978 ;;		Unchanged: 0/0
  4979 ;; Data sizes:     COMMON   BANK0   BANK1   BANK2   BANK3   BANK4   BANK5   BANK6
  4980 ;;      Params:         0       4       0       0       0       0       0       0
  4981 ;;      Locals:         0       1       0       0       0       0       0       0
  4982 ;;      Temps:          0       1       0       0       0       0       0       0
  4983 ;;      Totals:         0       6       0       0       0       0       0       0
  4984 ;;Total ram usage:        6 bytes
  4985 ;; Hardware stack levels used:    1
  4986 ;; Hardware stack levels required when called:    4
  4987 ;; This function calls:
  4988 ;;		Nothing
  4989 ;; This function is called by:
  4990 ;;		_enQueue
  4991 ;;		_deQueue
  4992 ;; This function uses a non-reentrant model
  4993 ;;
  4994                           
  4995                           
  4996                           ;psect for function ___lwmod
  4997  0C8B                     ___lwmod:
  4998  0C8B                     l1830:	
  4999                           ;incstack = 0
  5000                           ; Regs used in ___lwmod: [wreg+status,2+status,0]
  5001                           
  5002  0C8B  0020               	movlb	0	; select bank0
  5003  0C8C  0822               	movf	___lwmod@divisor,w
  5004  0C8D  0423               	iorwf	___lwmod@divisor+1,w
  5005  0C8E  1903               	btfsc	3,2
  5006  0C8F  2C91               	goto	u1451
  5007  0C90  2C92               	goto	u1450
  5008  0C91                     u1451:
  5009  0C91  2CBB               	goto	l1848
  5010  0C92                     u1450:
  5011  0C92                     l1832:
  5012  0C92  01A7               	clrf	___lwmod@counter
  5013  0C93  0AA7               	incf	___lwmod@counter,f
  5014  0C94  2C9E               	goto	l1838
  5015  0C95                     l1834:
  5016  0C95  3001               	movlw	1
  5017  0C96                     u1465:
  5018  0C96  35A2               	lslf	___lwmod@divisor,f
  5019  0C97  0DA3               	rlf	___lwmod@divisor+1,f
  5020  0C98  0B89               	decfsz	9,f
  5021  0C99  2C96               	goto	u1465
  5022  0C9A                     l1836:
  5023  0C9A  3001               	movlw	1
  5024  0C9B  00A6               	movwf	??___lwmod
  5025  0C9C  0826               	movf	??___lwmod,w
  5026  0C9D  07A7               	addwf	___lwmod@counter,f
  5027  0C9E                     l1838:
  5028  0C9E  1FA3               	btfss	___lwmod@divisor+1,7
  5029  0C9F  2CA1               	goto	u1471
  5030  0CA0  2CA2               	goto	u1470
  5031  0CA1                     u1471:
  5032  0CA1  2C95               	goto	l1834
  5033  0CA2                     u1470:
  5034  0CA2                     l1840:
  5035  0CA2  0823               	movf	___lwmod@divisor+1,w
  5036  0CA3  0225               	subwf	___lwmod@dividend+1,w
  5037  0CA4  1D03               	skipz
  5038  0CA5  2CA8               	goto	u1485
  5039  0CA6  0822               	movf	___lwmod@divisor,w
  5040  0CA7  0224               	subwf	___lwmod@dividend,w
  5041  0CA8                     u1485:
  5042  0CA8  1C03               	skipc
  5043  0CA9  2CAB               	goto	u1481
  5044  0CAA  2CAC               	goto	u1480
  5045  0CAB                     u1481:
  5046  0CAB  2CB0               	goto	l1844
  5047  0CAC                     u1480:
  5048  0CAC                     l1842:
  5049  0CAC  0822               	movf	___lwmod@divisor,w
  5050  0CAD  02A4               	subwf	___lwmod@dividend,f
  5051  0CAE  0823               	movf	___lwmod@divisor+1,w
  5052  0CAF  3BA5               	subwfb	___lwmod@dividend+1,f
  5053  0CB0                     l1844:
  5054  0CB0  3001               	movlw	1
  5055  0CB1                     u1495:
  5056  0CB1  36A3               	lsrf	___lwmod@divisor+1,f
  5057  0CB2  0CA2               	rrf	___lwmod@divisor,f
  5058  0CB3  0B89               	decfsz	9,f
  5059  0CB4  2CB1               	goto	u1495
  5060  0CB5                     l1846:
  5061  0CB5  3001               	movlw	1
  5062  0CB6  02A7               	subwf	___lwmod@counter,f
  5063  0CB7  1D03               	btfss	3,2
  5064  0CB8  2CBA               	goto	u1501
  5065  0CB9  2CBB               	goto	u1500
  5066  0CBA                     u1501:
  5067  0CBA  2CA2               	goto	l1840
  5068  0CBB                     u1500:
  5069  0CBB                     l1848:
  5070  0CBB  0825               	movf	___lwmod@dividend+1,w
  5071  0CBC  00A3               	movwf	?___lwmod+1
  5072  0CBD  0824               	movf	___lwmod@dividend,w
  5073  0CBE  00A2               	movwf	?___lwmod
  5074  0CBF                     l722:
  5075  0CBF  0008               	return
  5076  0CC0                     __end_of___lwmod:
  5077                           
  5078                           	psect	text29
  5079  0B6D                     __ptext29:	
  5080 ;; *************** function _IsFull *****************
  5081 ;; Defined at:
  5082 ;;		line 65 in file "02-SRC/02-APPLICATION/Appl.c"
  5083 ;; Parameters:    Size  Location     Type
  5084 ;;		None
  5085 ;; Auto vars:     Size  Location     Type
  5086 ;;		None
  5087 ;; Return value:  Size  Location     Type
  5088 ;;                  1    wreg      unsigned char 
  5089 ;; Registers used:
  5090 ;;		wreg, status,2, status,0
  5091 ;; Tracked objects:
  5092 ;;		On entry : 0/0
  5093 ;;		On exit  : 0/0
  5094 ;;		Unchanged: 0/0
  5095 ;; Data sizes:     COMMON   BANK0   BANK1   BANK2   BANK3   BANK4   BANK5   BANK6
  5096 ;;      Params:         0       0       0       0       0       0       0       0
  5097 ;;      Locals:         0       1       0       0       0       0       0       0
  5098 ;;      Temps:          0       2       0       0       0       0       0       0
  5099 ;;      Totals:         0       3       0       0       0       0       0       0
  5100 ;;Total ram usage:        3 bytes
  5101 ;; Hardware stack levels used:    1
  5102 ;; Hardware stack levels required when called:    4
  5103 ;; This function calls:
  5104 ;;		Nothing
  5105 ;; This function is called by:
  5106 ;;		_enQueue
  5107 ;; This function uses a non-reentrant model
  5108 ;;
  5109                           
  5110                           
  5111                           ;psect for function _IsFull
  5112  0B6D                     _IsFull:
  5113  0B6D                     l1800:	
  5114                           ;incstack = 0
  5115                           ; Regs used in _IsFull: [wreg+status,2+status,0]
  5116                           
  5117  0B6D  0020               	movlb	0	; select bank0
  5118  0B6E  01A4               	clrf	_IsFull$171
  5119  0B6F  0AA4               	incf	_IsFull$171,f
  5120  0B70                     l1802:
  5121  0B70  0869               	movf	_MyQueue+2,w
  5122  0B71  3E01               	addlw	1
  5123  0B72  00A2               	movwf	??_IsFull
  5124  0B73  3000               	movlw	0
  5125  0B74  3D6A               	addwfc	_MyQueue+3,w
  5126  0B75  00A3               	movwf	??_IsFull+1
  5127  0B76  0868               	movf	_MyQueue+1,w
  5128  0B77  0623               	xorwf	??_IsFull+1,w
  5129  0B78  1D03               	skipz
  5130  0B79  2B7C               	goto	u1415
  5131  0B7A  0867               	movf	_MyQueue,w
  5132  0B7B  0622               	xorwf	??_IsFull,w
  5133  0B7C                     u1415:
  5134  0B7C  1903               	skipnz
  5135  0B7D  2B7F               	goto	u1411
  5136  0B7E  2B80               	goto	u1410
  5137  0B7F                     u1411:
  5138  0B7F  2B97               	goto	l1810
  5139  0B80                     u1410:
  5140  0B80                     l1804:
  5141  0B80  0867               	movf	_MyQueue,w
  5142  0B81  0468               	iorwf	_MyQueue+1,w
  5143  0B82  1D03               	btfss	3,2
  5144  0B83  2B85               	goto	u1421
  5145  0B84  2B86               	goto	u1420
  5146  0B85                     u1421:
  5147  0B85  2B96               	goto	l1808
  5148  0B86                     u1420:
  5149  0B86                     l1806:
  5150  0B86  086B               	movf	_MyQueue+4,w
  5151  0B87  3EFF               	addlw	255
  5152  0B88  00A2               	movwf	??_IsFull
  5153  0B89  30FF               	movlw	255
  5154  0B8A  3D6C               	addwfc	_MyQueue+5,w
  5155  0B8B  00A3               	movwf	??_IsFull+1
  5156  0B8C  086A               	movf	_MyQueue+3,w
  5157  0B8D  0623               	xorwf	??_IsFull+1,w
  5158  0B8E  1D03               	skipz
  5159  0B8F  2B92               	goto	u1435
  5160  0B90  0869               	movf	_MyQueue+2,w
  5161  0B91  0622               	xorwf	??_IsFull,w
  5162  0B92                     u1435:
  5163  0B92  1903               	skipnz
  5164  0B93  2B95               	goto	u1431
  5165  0B94  2B96               	goto	u1430
  5166  0B95                     u1431:
  5167  0B95  2B97               	goto	l1810
  5168  0B96                     u1430:
  5169  0B96                     l1808:
  5170  0B96  01A4               	clrf	_IsFull$171
  5171  0B97                     l1810:
  5172  0B97  0824               	movf	_IsFull$171,w
  5173  0B98                     l79:
  5174  0B98  0008               	return
  5175  0B99                     __end_of_IsFull:
  5176                           
  5177                           	psect	text30
  5178  0F53                     __ptext30:	
  5179 ;; *************** function ___xxtofl *****************
  5180 ;; Defined at:
  5181 ;;		line 10 in file "C:\Program Files (x86)\Microchip\xc8\pic\sources\c99\common\xxtofl.c"
  5182 ;; Parameters:    Size  Location     Type
  5183 ;;  sign            1    wreg     unsigned char 
  5184 ;;  val             4    2[BANK0 ] long 
  5185 ;; Auto vars:     Size  Location     Type
  5186 ;;  sign            1   10[BANK0 ] unsigned char 
  5187 ;;  arg             4   12[BANK0 ] unsigned long 
  5188 ;;  exp             1   11[BANK0 ] unsigned char 
  5189 ;; Return value:  Size  Location     Type
  5190 ;;                  4    2[BANK0 ] unsigned char 
  5191 ;; Registers used:
  5192 ;;		wreg, status,2, status,0
  5193 ;; Tracked objects:
  5194 ;;		On entry : 0/0
  5195 ;;		On exit  : 0/0
  5196 ;;		Unchanged: 0/0
  5197 ;; Data sizes:     COMMON   BANK0   BANK1   BANK2   BANK3   BANK4   BANK5   BANK6
  5198 ;;      Params:         0       4       0       0       0       0       0       0
  5199 ;;      Locals:         0       6       0       0       0       0       0       0
  5200 ;;      Temps:          0       4       0       0       0       0       0       0
  5201 ;;      Totals:         0      14       0       0       0       0       0       0
  5202 ;;Total ram usage:       14 bytes
  5203 ;; Hardware stack levels used:    1
  5204 ;; Hardware stack levels required when called:    4
  5205 ;; This function calls:
  5206 ;;		Nothing
  5207 ;; This function is called by:
  5208 ;;		_LinearTransiant
  5209 ;; This function uses a non-reentrant model
  5210 ;;
  5211                           
  5212                           
  5213                           ;psect for function ___xxtofl
  5214  0F53                     ___xxtofl:
  5215                           
  5216                           ;incstack = 0
  5217                           ; Regs used in ___xxtofl: [wreg+status,2+status,0]
  5218                           ;___xxtofl@sign stored from wreg
  5219  0F53  0020               	movlb	0	; select bank0
  5220  0F54  00AA               	movwf	___xxtofl@sign
  5221  0F55                     l2222:
  5222  0F55  082A               	movf	___xxtofl@sign,w
  5223  0F56  1903               	btfsc	3,2
  5224  0F57  2F59               	goto	u2281
  5225  0F58  2F5A               	goto	u2280
  5226  0F59                     u2281:
  5227  0F59  2F6E               	goto	l2228
  5228  0F5A                     u2280:
  5229  0F5A                     l2224:
  5230  0F5A  1FA5               	btfss	___xxtofl@val+3,7
  5231  0F5B  2F5D               	goto	u2291
  5232  0F5C  2F5E               	goto	u2290
  5233  0F5D                     u2291:
  5234  0F5D  2F6E               	goto	l2228
  5235  0F5E                     u2290:
  5236  0F5E                     l2226:
  5237  0F5E  0922               	comf	___xxtofl@val,w
  5238  0F5F  00AC               	movwf	___xxtofl@arg
  5239  0F60  0923               	comf	___xxtofl@val+1,w
  5240  0F61  00AD               	movwf	___xxtofl@arg+1
  5241  0F62  0924               	comf	___xxtofl@val+2,w
  5242  0F63  00AE               	movwf	___xxtofl@arg+2
  5243  0F64  0925               	comf	___xxtofl@val+3,w
  5244  0F65  00AF               	movwf	___xxtofl@arg+3
  5245  0F66  0AAC               	incf	___xxtofl@arg,f
  5246  0F67  1903               	skipnz
  5247  0F68  0AAD               	incf	___xxtofl@arg+1,f
  5248  0F69  1903               	skipnz
  5249  0F6A  0AAE               	incf	___xxtofl@arg+2,f
  5250  0F6B  1903               	skipnz
  5251  0F6C  0AAF               	incf	___xxtofl@arg+3,f
  5252  0F6D  2F76               	goto	l873
  5253  0F6E                     l2228:
  5254  0F6E  0825               	movf	___xxtofl@val+3,w
  5255  0F6F  00AF               	movwf	___xxtofl@arg+3
  5256  0F70  0824               	movf	___xxtofl@val+2,w
  5257  0F71  00AE               	movwf	___xxtofl@arg+2
  5258  0F72  0823               	movf	___xxtofl@val+1,w
  5259  0F73  00AD               	movwf	___xxtofl@arg+1
  5260  0F74  0822               	movf	___xxtofl@val,w
  5261  0F75  00AC               	movwf	___xxtofl@arg
  5262  0F76                     l873:
  5263  0F76  0825               	movf	___xxtofl@val+3,w
  5264  0F77  0424               	iorwf	___xxtofl@val+2,w
  5265  0F78  0423               	iorwf	___xxtofl@val+1,w
  5266  0F79  0422               	iorwf	___xxtofl@val,w
  5267  0F7A  1D03               	skipz
  5268  0F7B  2F7D               	goto	u2301
  5269  0F7C  2F7E               	goto	u2300
  5270  0F7D                     u2301:
  5271  0F7D  2F87               	goto	l2234
  5272  0F7E                     u2300:
  5273  0F7E                     l2230:
  5274  0F7E  3000               	movlw	0
  5275  0F7F  00A5               	movwf	?___xxtofl+3
  5276  0F80  3000               	movlw	0
  5277  0F81  00A4               	movwf	?___xxtofl+2
  5278  0F82  3000               	movlw	0
  5279  0F83  00A3               	movwf	?___xxtofl+1
  5280  0F84  3000               	movlw	0
  5281  0F85  00A2               	movwf	?___xxtofl
  5282  0F86  2FFF               	goto	l875
  5283  0F87                     l2234:
  5284  0F87  3096               	movlw	150
  5285  0F88  00A6               	movwf	??___xxtofl
  5286  0F89  0826               	movf	??___xxtofl,w
  5287  0F8A  00AB               	movwf	___xxtofl@exp
  5288  0F8B  2F97               	goto	l2238
  5289  0F8C                     l2236:
  5290  0F8C  3001               	movlw	1
  5291  0F8D  00A6               	movwf	??___xxtofl
  5292  0F8E  0826               	movf	??___xxtofl,w
  5293  0F8F  07AB               	addwf	___xxtofl@exp,f
  5294  0F90  3001               	movlw	1
  5295  0F91                     u2315:
  5296  0F91  36AF               	lsrf	___xxtofl@arg+3,f
  5297  0F92  0CAE               	rrf	___xxtofl@arg+2,f
  5298  0F93  0CAD               	rrf	___xxtofl@arg+1,f
  5299  0F94  0CAC               	rrf	___xxtofl@arg,f
  5300  0F95  0B89               	decfsz	9,f
  5301  0F96  2F91               	goto	u2315
  5302  0F97                     l2238:
  5303  0F97  30FE               	movlw	254
  5304  0F98  052F               	andwf	___xxtofl@arg+3,w
  5305  0F99  1D03               	btfss	3,2
  5306  0F9A  2F9C               	goto	u2321
  5307  0F9B  2F9D               	goto	u2320
  5308  0F9C                     u2321:
  5309  0F9C  2F8C               	goto	l2236
  5310  0F9D                     u2320:
  5311  0F9D  2FB1               	goto	l879
  5312  0F9E                     l2240:
  5313  0F9E  3001               	movlw	1
  5314  0F9F  00A6               	movwf	??___xxtofl
  5315  0FA0  0826               	movf	??___xxtofl,w
  5316  0FA1  07AB               	addwf	___xxtofl@exp,f
  5317  0FA2                     l2242:
  5318  0FA2  3001               	movlw	1
  5319  0FA3  07AC               	addwf	___xxtofl@arg,f
  5320  0FA4  3000               	movlw	0
  5321  0FA5  3DAD               	addwfc	___xxtofl@arg+1,f
  5322  0FA6  3000               	movlw	0
  5323  0FA7  3DAE               	addwfc	___xxtofl@arg+2,f
  5324  0FA8  3000               	movlw	0
  5325  0FA9  3DAF               	addwfc	___xxtofl@arg+3,f
  5326  0FAA                     l2244:
  5327  0FAA  3001               	movlw	1
  5328  0FAB                     u2335:
  5329  0FAB  36AF               	lsrf	___xxtofl@arg+3,f
  5330  0FAC  0CAE               	rrf	___xxtofl@arg+2,f
  5331  0FAD  0CAD               	rrf	___xxtofl@arg+1,f
  5332  0FAE  0CAC               	rrf	___xxtofl@arg,f
  5333  0FAF  0B89               	decfsz	9,f
  5334  0FB0  2FAB               	goto	u2335
  5335  0FB1                     l879:
  5336  0FB1  30FF               	movlw	255
  5337  0FB2  052F               	andwf	___xxtofl@arg+3,w
  5338  0FB3  1D03               	btfss	3,2
  5339  0FB4  2FB6               	goto	u2341
  5340  0FB5  2FB7               	goto	u2340
  5341  0FB6                     u2341:
  5342  0FB6  2F9E               	goto	l2240
  5343  0FB7                     u2340:
  5344  0FB7  2FC1               	goto	l2248
  5345  0FB8                     l2246:
  5346  0FB8  3001               	movlw	1
  5347  0FB9  02AB               	subwf	___xxtofl@exp,f
  5348  0FBA  3001               	movlw	1
  5349  0FBB                     u2355:
  5350  0FBB  35AC               	lslf	___xxtofl@arg,f
  5351  0FBC  0DAD               	rlf	___xxtofl@arg+1,f
  5352  0FBD  0DAE               	rlf	___xxtofl@arg+2,f
  5353  0FBE  0DAF               	rlf	___xxtofl@arg+3,f
  5354  0FBF  0B89               	decfsz	9,f
  5355  0FC0  2FBB               	goto	u2355
  5356  0FC1                     l2248:
  5357  0FC1  1BAE               	btfsc	___xxtofl@arg+2,7
  5358  0FC2  2FC4               	goto	u2361
  5359  0FC3  2FC5               	goto	u2360
  5360  0FC4                     u2361:
  5361  0FC4  2FCB               	goto	l886
  5362  0FC5                     u2360:
  5363  0FC5                     l2250:
  5364  0FC5  3002               	movlw	2
  5365  0FC6  022B               	subwf	___xxtofl@exp,w
  5366  0FC7  1803               	skipnc
  5367  0FC8  2FCA               	goto	u2371
  5368  0FC9  2FCB               	goto	u2370
  5369  0FCA                     u2371:
  5370  0FCA  2FB8               	goto	l2246
  5371  0FCB                     u2370:
  5372  0FCB                     l886:
  5373  0FCB  182B               	btfsc	___xxtofl@exp,0
  5374  0FCC  2FCE               	goto	u2381
  5375  0FCD  2FCF               	goto	u2380
  5376  0FCE                     u2381:
  5377  0FCE  2FD7               	goto	l887
  5378  0FCF                     u2380:
  5379  0FCF                     l2252:
  5380  0FCF  30FF               	movlw	255
  5381  0FD0  05AC               	andwf	___xxtofl@arg,f
  5382  0FD1  30FF               	movlw	255
  5383  0FD2  05AD               	andwf	___xxtofl@arg+1,f
  5384  0FD3  307F               	movlw	127
  5385  0FD4  05AE               	andwf	___xxtofl@arg+2,f
  5386  0FD5  30FF               	movlw	255
  5387  0FD6  05AF               	andwf	___xxtofl@arg+3,f
  5388  0FD7                     l887:
  5389  0FD7  1003               	clrc
  5390  0FD8  0CAB               	rrf	___xxtofl@exp,f
  5391  0FD9                     l2254:
  5392  0FD9  082B               	movf	___xxtofl@exp,w
  5393  0FDA  00A6               	movwf	??___xxtofl
  5394  0FDB  01A7               	clrf	??___xxtofl+1
  5395  0FDC  01A8               	clrf	??___xxtofl+2
  5396  0FDD  01A9               	clrf	??___xxtofl+3
  5397  0FDE  3018               	movlw	24
  5398  0FDF                     u2395:
  5399  0FDF  35A6               	lslf	??___xxtofl,f
  5400  0FE0  0DA7               	rlf	??___xxtofl+1,f
  5401  0FE1  0DA8               	rlf	??___xxtofl+2,f
  5402  0FE2  0DA9               	rlf	??___xxtofl+3,f
  5403  0FE3                     u2390:
  5404  0FE3  0B89               	decfsz	9,f
  5405  0FE4  2FDF               	goto	u2395
  5406  0FE5  0826               	movf	??___xxtofl,w
  5407  0FE6  04AC               	iorwf	___xxtofl@arg,f
  5408  0FE7  0827               	movf	??___xxtofl+1,w
  5409  0FE8  04AD               	iorwf	___xxtofl@arg+1,f
  5410  0FE9  0828               	movf	??___xxtofl+2,w
  5411  0FEA  04AE               	iorwf	___xxtofl@arg+2,f
  5412  0FEB  0829               	movf	??___xxtofl+3,w
  5413  0FEC  04AF               	iorwf	___xxtofl@arg+3,f
  5414  0FED                     l2256:
  5415  0FED  082A               	movf	___xxtofl@sign,w
  5416  0FEE  1903               	btfsc	3,2
  5417  0FEF  2FF1               	goto	u2401
  5418  0FF0  2FF2               	goto	u2400
  5419  0FF1                     u2401:
  5420  0FF1  2FF7               	goto	l2262
  5421  0FF2                     u2400:
  5422  0FF2                     l2258:
  5423  0FF2  1FA5               	btfss	___xxtofl@val+3,7
  5424  0FF3  2FF5               	goto	u2411
  5425  0FF4  2FF6               	goto	u2410
  5426  0FF5                     u2411:
  5427  0FF5  2FF7               	goto	l2262
  5428  0FF6                     u2410:
  5429  0FF6                     l2260:
  5430  0FF6  17AF               	bsf	___xxtofl@arg+3,7
  5431  0FF7                     l2262:
  5432  0FF7  082F               	movf	___xxtofl@arg+3,w
  5433  0FF8  00A5               	movwf	?___xxtofl+3
  5434  0FF9  082E               	movf	___xxtofl@arg+2,w
  5435  0FFA  00A4               	movwf	?___xxtofl+2
  5436  0FFB  082D               	movf	___xxtofl@arg+1,w
  5437  0FFC  00A3               	movwf	?___xxtofl+1
  5438  0FFD  082C               	movf	___xxtofl@arg,w
  5439  0FFE  00A2               	movwf	?___xxtofl
  5440  0FFF                     l875:
  5441  0FFF  0008               	return
  5442  1000                     __end_of___xxtofl:
  5443                           
  5444                           	psect	text31
  5445  0E44                     __ptext31:	
  5446 ;; *************** function ___fltol *****************
  5447 ;; Defined at:
  5448 ;;		line 43 in file "C:\Program Files (x86)\Microchip\xc8\pic\sources\c99\common\fltol.c"
  5449 ;; Parameters:    Size  Location     Type
  5450 ;;  f1              4   42[BANK0 ] unsigned char 
  5451 ;; Auto vars:     Size  Location     Type
  5452 ;;  exp1            1   52[BANK0 ] unsigned char 
  5453 ;;  sign1           1   51[BANK0 ] unsigned char 
  5454 ;; Return value:  Size  Location     Type
  5455 ;;                  4   42[BANK0 ] long 
  5456 ;; Registers used:
  5457 ;;		wreg, status,2, status,0
  5458 ;; Tracked objects:
  5459 ;;		On entry : 0/0
  5460 ;;		On exit  : 0/0
  5461 ;;		Unchanged: 0/0
  5462 ;; Data sizes:     COMMON   BANK0   BANK1   BANK2   BANK3   BANK4   BANK5   BANK6
  5463 ;;      Params:         0       4       0       0       0       0       0       0
  5464 ;;      Locals:         0       2       0       0       0       0       0       0
  5465 ;;      Temps:          0       5       0       0       0       0       0       0
  5466 ;;      Totals:         0      11       0       0       0       0       0       0
  5467 ;;Total ram usage:       11 bytes
  5468 ;; Hardware stack levels used:    1
  5469 ;; Hardware stack levels required when called:    4
  5470 ;; This function calls:
  5471 ;;		Nothing
  5472 ;; This function is called by:
  5473 ;;		_LinearTransiant
  5474 ;; This function uses a non-reentrant model
  5475 ;;
  5476                           
  5477                           
  5478                           ;psect for function ___fltol
  5479  0E44                     ___fltol:
  5480  0E44                     l1906:	
  5481                           ;incstack = 0
  5482                           ; Regs used in ___fltol: [wreg+status,2+status,0]
  5483                           
  5484  0E44  1003               	clrc
  5485  0E45  0020               	movlb	0	; select bank0
  5486  0E46  0D4C               	rlf	___fltol@f1+2,w
  5487  0E47  0D4D               	rlf	___fltol@f1+3,w
  5488  0E48  00CE               	movwf	??___fltol
  5489  0E49  084E               	movf	??___fltol,w
  5490  0E4A  00D4               	movwf	___fltol@exp1
  5491  0E4B  0854               	movf	___fltol@exp1,w
  5492  0E4C  1D03               	btfss	3,2
  5493  0E4D  2E4F               	goto	u1631
  5494  0E4E  2E50               	goto	u1630
  5495  0E4F                     u1631:
  5496  0E4F  2E59               	goto	l1912
  5497  0E50                     u1630:
  5498  0E50                     l1908:
  5499  0E50  3000               	movlw	0
  5500  0E51  00CD               	movwf	?___fltol+3
  5501  0E52  3000               	movlw	0
  5502  0E53  00CC               	movwf	?___fltol+2
  5503  0E54  3000               	movlw	0
  5504  0E55  00CB               	movwf	?___fltol+1
  5505  0E56  3000               	movlw	0
  5506  0E57  00CA               	movwf	?___fltol
  5507  0E58  2EB8               	goto	l626
  5508  0E59                     l1912:
  5509  0E59  084A               	movf	___fltol@f1,w
  5510  0E5A  00CE               	movwf	??___fltol
  5511  0E5B  084B               	movf	___fltol@f1+1,w
  5512  0E5C  00CF               	movwf	??___fltol+1
  5513  0E5D  084C               	movf	___fltol@f1+2,w
  5514  0E5E  00D0               	movwf	??___fltol+2
  5515  0E5F  084D               	movf	___fltol@f1+3,w
  5516  0E60  00D1               	movwf	??___fltol+3
  5517  0E61  301F               	movlw	31
  5518  0E62                     u1645:
  5519  0E62  36D1               	lsrf	??___fltol+3,f
  5520  0E63  0CD0               	rrf	??___fltol+2,f
  5521  0E64  0CCF               	rrf	??___fltol+1,f
  5522  0E65  0CCE               	rrf	??___fltol,f
  5523  0E66                     u1640:
  5524  0E66  0B89               	decfsz	9,f
  5525  0E67  2E62               	goto	u1645
  5526  0E68  084E               	movf	??___fltol,w
  5527  0E69  00D2               	movwf	??___fltol+4
  5528  0E6A  0852               	movf	??___fltol+4,w
  5529  0E6B  00D3               	movwf	___fltol@sign1
  5530  0E6C                     l1914:
  5531  0E6C  17CC               	bsf	___fltol@f1+2,7
  5532  0E6D                     l1916:
  5533  0E6D  30FF               	movlw	255
  5534  0E6E  05CA               	andwf	___fltol@f1,f
  5535  0E6F  30FF               	movlw	255
  5536  0E70  05CB               	andwf	___fltol@f1+1,f
  5537  0E71  30FF               	movlw	255
  5538  0E72  05CC               	andwf	___fltol@f1+2,f
  5539  0E73  3000               	movlw	0
  5540  0E74  05CD               	andwf	___fltol@f1+3,f
  5541  0E75                     l1918:
  5542  0E75  3096               	movlw	150
  5543  0E76  02D4               	subwf	___fltol@exp1,f
  5544  0E77                     l1920:
  5545  0E77  1FD4               	btfss	___fltol@exp1,7
  5546  0E78  2E7A               	goto	u1651
  5547  0E79  2E7B               	goto	u1650
  5548  0E7A                     u1651:
  5549  0E7A  2E93               	goto	l1930
  5550  0E7B                     u1650:
  5551  0E7B                     l1922:
  5552  0E7B  0854               	movf	___fltol@exp1,w
  5553  0E7C  3A80               	xorlw	128
  5554  0E7D  3E97               	addlw	151
  5555  0E7E  1803               	skipnc
  5556  0E7F  2E81               	goto	u1661
  5557  0E80  2E82               	goto	u1660
  5558  0E81                     u1661:
  5559  0E81  2E83               	goto	l1928
  5560  0E82                     u1660:
  5561  0E82  2E50               	goto	l1908
  5562  0E83                     l1928:
  5563  0E83  3001               	movlw	1
  5564  0E84                     u1675:
  5565  0E84  36CD               	lsrf	___fltol@f1+3,f
  5566  0E85  0CCC               	rrf	___fltol@f1+2,f
  5567  0E86  0CCB               	rrf	___fltol@f1+1,f
  5568  0E87  0CCA               	rrf	___fltol@f1,f
  5569  0E88  0B89               	decfsz	9,f
  5570  0E89  2E84               	goto	u1675
  5571  0E8A  3001               	movlw	1
  5572  0E8B  00CE               	movwf	??___fltol
  5573  0E8C  084E               	movf	??___fltol,w
  5574  0E8D  07D4               	addwf	___fltol@exp1,f
  5575  0E8E  1D03               	btfss	3,2
  5576  0E8F  2E91               	goto	u1681
  5577  0E90  2E92               	goto	u1680
  5578  0E91                     u1681:
  5579  0E91  2E83               	goto	l1928
  5580  0E92                     u1680:
  5581  0E92  2EA8               	goto	l1938
  5582  0E93                     l1930:
  5583  0E93  3020               	movlw	32
  5584  0E94  0254               	subwf	___fltol@exp1,w
  5585  0E95  1C03               	skipc
  5586  0E96  2E98               	goto	u1691
  5587  0E97  2E99               	goto	u1690
  5588  0E98                     u1691:
  5589  0E98  2EA3               	goto	l633
  5590  0E99                     u1690:
  5591  0E99  2E50               	goto	l1908
  5592  0E9A                     l1936:
  5593  0E9A  3001               	movlw	1
  5594  0E9B                     u1705:
  5595  0E9B  35CA               	lslf	___fltol@f1,f
  5596  0E9C  0DCB               	rlf	___fltol@f1+1,f
  5597  0E9D  0DCC               	rlf	___fltol@f1+2,f
  5598  0E9E  0DCD               	rlf	___fltol@f1+3,f
  5599  0E9F  0B89               	decfsz	9,f
  5600  0EA0  2E9B               	goto	u1705
  5601  0EA1  3001               	movlw	1
  5602  0EA2  02D4               	subwf	___fltol@exp1,f
  5603  0EA3                     l633:
  5604  0EA3  0854               	movf	___fltol@exp1,w
  5605  0EA4  1D03               	btfss	3,2
  5606  0EA5  2EA7               	goto	u1711
  5607  0EA6  2EA8               	goto	u1710
  5608  0EA7                     u1711:
  5609  0EA7  2E9A               	goto	l1936
  5610  0EA8                     u1710:
  5611  0EA8                     l1938:
  5612  0EA8  0853               	movf	___fltol@sign1,w
  5613  0EA9  1903               	btfsc	3,2
  5614  0EAA  2EAC               	goto	u1721
  5615  0EAB  2EAD               	goto	u1720
  5616  0EAC                     u1721:
  5617  0EAC  2EB8               	goto	l636
  5618  0EAD                     u1720:
  5619  0EAD                     l1940:
  5620  0EAD  09CA               	comf	___fltol@f1,f
  5621  0EAE  09CB               	comf	___fltol@f1+1,f
  5622  0EAF  09CC               	comf	___fltol@f1+2,f
  5623  0EB0  09CD               	comf	___fltol@f1+3,f
  5624  0EB1  0ACA               	incf	___fltol@f1,f
  5625  0EB2  1903               	skipnz
  5626  0EB3  0ACB               	incf	___fltol@f1+1,f
  5627  0EB4  1903               	skipnz
  5628  0EB5  0ACC               	incf	___fltol@f1+2,f
  5629  0EB6  1903               	skipnz
  5630  0EB7  0ACD               	incf	___fltol@f1+3,f
  5631  0EB8                     l636:
  5632  0EB8                     l626:
  5633  0EB8  0008               	return
  5634  0EB9                     __end_of___fltol:
  5635                           
  5636                           	psect	text32
  5637  0063                     __ptext32:	
  5638 ;; *************** function ___flmul *****************
  5639 ;; Defined at:
  5640 ;;		line 8 in file "C:\Program Files (x86)\Microchip\xc8\pic\sources\c99\common\sprcmul.c"
  5641 ;; Parameters:    Size  Location     Type
  5642 ;;  b               4   16[BANK0 ] long 
  5643 ;;  a               4   20[BANK0 ] long 
  5644 ;; Auto vars:     Size  Location     Type
  5645 ;;  prod            4   36[BANK0 ] struct .
  5646 ;;  grs             4   30[BANK0 ] unsigned long 
  5647 ;;  temp            2   40[BANK0 ] struct .
  5648 ;;  bexp            1   35[BANK0 ] unsigned char 
  5649 ;;  aexp            1   34[BANK0 ] unsigned char 
  5650 ;;  sign            1   29[BANK0 ] unsigned char 
  5651 ;; Return value:  Size  Location     Type
  5652 ;;                  4   16[BANK0 ] unsigned char 
  5653 ;; Registers used:
  5654 ;;		wreg, status,2, status,0, pclath, cstack
  5655 ;; Tracked objects:
  5656 ;;		On entry : 0/0
  5657 ;;		On exit  : 0/0
  5658 ;;		Unchanged: 0/0
  5659 ;; Data sizes:     COMMON   BANK0   BANK1   BANK2   BANK3   BANK4   BANK5   BANK6
  5660 ;;      Params:         0       8       0       0       0       0       0       0
  5661 ;;      Locals:         0      13       0       0       0       0       0       0
  5662 ;;      Temps:          0       5       0       0       0       0       0       0
  5663 ;;      Totals:         0      26       0       0       0       0       0       0
  5664 ;;Total ram usage:       26 bytes
  5665 ;; Hardware stack levels used:    1
  5666 ;; Hardware stack levels required when called:    5
  5667 ;; This function calls:
  5668 ;;		__Umul8_16
  5669 ;; This function is called by:
  5670 ;;		_LinearTransiant
  5671 ;; This function uses a non-reentrant model
  5672 ;;
  5673                           
  5674                           
  5675                           ;psect for function ___flmul
  5676  0063                     ___flmul:
  5677  0063                     l2082:	
  5678                           ;incstack = 0
  5679                           ; Regs used in ___flmul: [wreg+status,2+status,0+pclath+cstack]
  5680                           
  5681  0063  0020               	movlb	0	; select bank0
  5682  0064  0833               	movf	___flmul@b+3,w
  5683  0065  3980               	andlw	128
  5684  0066  00B8               	movwf	??___flmul
  5685  0067  0838               	movf	??___flmul,w
  5686  0068  00BD               	movwf	___flmul@sign
  5687  0069                     l2084:
  5688  0069  3533               	lslf	___flmul@b+3,w
  5689  006A  00B8               	movwf	??___flmul
  5690  006B  0838               	movf	??___flmul,w
  5691  006C  00C3               	movwf	___flmul@bexp
  5692  006D                     l2086:
  5693  006D  1FB2               	btfss	___flmul@b+2,7
  5694  006E  2870               	goto	u2021
  5695  006F  2871               	goto	u2020
  5696  0070                     u2021:
  5697  0070  2872               	goto	l2090
  5698  0071                     u2020:
  5699  0071                     l2088:
  5700  0071  1443               	bsf	___flmul@bexp,0
  5701  0072                     l2090:
  5702  0072  0843               	movf	___flmul@bexp,w
  5703  0073  1903               	btfsc	3,2
  5704  0074  2876               	goto	u2031
  5705  0075  2877               	goto	u2030
  5706  0076                     u2031:
  5707  0076  2886               	goto	l2098
  5708  0077                     u2030:
  5709  0077                     l2092:
  5710  0077  0A43               	incf	___flmul@bexp,w
  5711  0078  1D03               	btfss	3,2
  5712  0079  287B               	goto	u2041
  5713  007A  287C               	goto	u2040
  5714  007B                     u2041:
  5715  007B  2884               	goto	l2096
  5716  007C                     u2040:
  5717  007C                     l2094:
  5718  007C  3000               	movlw	0
  5719  007D  00B3               	movwf	___flmul@b+3
  5720  007E  3000               	movlw	0
  5721  007F  00B2               	movwf	___flmul@b+2
  5722  0080  3000               	movlw	0
  5723  0081  00B1               	movwf	___flmul@b+1
  5724  0082  3000               	movlw	0
  5725  0083  00B0               	movwf	___flmul@b
  5726  0084                     l2096:
  5727  0084  17B2               	bsf	___flmul@b+2,7
  5728  0085  288E               	goto	l2100
  5729  0086                     l2098:
  5730  0086  3000               	movlw	0
  5731  0087  00B3               	movwf	___flmul@b+3
  5732  0088  3000               	movlw	0
  5733  0089  00B2               	movwf	___flmul@b+2
  5734  008A  3000               	movlw	0
  5735  008B  00B1               	movwf	___flmul@b+1
  5736  008C  3000               	movlw	0
  5737  008D  00B0               	movwf	___flmul@b
  5738  008E                     l2100:
  5739  008E  0837               	movf	___flmul@a+3,w
  5740  008F  3980               	andlw	128
  5741  0090  00B8               	movwf	??___flmul
  5742  0091  0838               	movf	??___flmul,w
  5743  0092  06BD               	xorwf	___flmul@sign,f
  5744  0093                     l2102:
  5745  0093  3537               	lslf	___flmul@a+3,w
  5746  0094  00B8               	movwf	??___flmul
  5747  0095  0838               	movf	??___flmul,w
  5748  0096  00C2               	movwf	___flmul@aexp
  5749  0097                     l2104:
  5750  0097  1FB6               	btfss	___flmul@a+2,7
  5751  0098  289A               	goto	u2051
  5752  0099  289B               	goto	u2050
  5753  009A                     u2051:
  5754  009A  289C               	goto	l2108
  5755  009B                     u2050:
  5756  009B                     l2106:
  5757  009B  1442               	bsf	___flmul@aexp,0
  5758  009C                     l2108:
  5759  009C  0842               	movf	___flmul@aexp,w
  5760  009D  1903               	btfsc	3,2
  5761  009E  28A0               	goto	u2061
  5762  009F  28A1               	goto	u2060
  5763  00A0                     u2061:
  5764  00A0  28B0               	goto	l2116
  5765  00A1                     u2060:
  5766  00A1                     l2110:
  5767  00A1  0A42               	incf	___flmul@aexp,w
  5768  00A2  1D03               	btfss	3,2
  5769  00A3  28A5               	goto	u2071
  5770  00A4  28A6               	goto	u2070
  5771  00A5                     u2071:
  5772  00A5  28AE               	goto	l2114
  5773  00A6                     u2070:
  5774  00A6                     l2112:
  5775  00A6  3000               	movlw	0
  5776  00A7  00B7               	movwf	___flmul@a+3
  5777  00A8  3000               	movlw	0
  5778  00A9  00B6               	movwf	___flmul@a+2
  5779  00AA  3000               	movlw	0
  5780  00AB  00B5               	movwf	___flmul@a+1
  5781  00AC  3000               	movlw	0
  5782  00AD  00B4               	movwf	___flmul@a
  5783  00AE                     l2114:
  5784  00AE  17B6               	bsf	___flmul@a+2,7
  5785  00AF  28B8               	goto	l2118
  5786  00B0                     l2116:
  5787  00B0  3000               	movlw	0
  5788  00B1  00B7               	movwf	___flmul@a+3
  5789  00B2  3000               	movlw	0
  5790  00B3  00B6               	movwf	___flmul@a+2
  5791  00B4  3000               	movlw	0
  5792  00B5  00B5               	movwf	___flmul@a+1
  5793  00B6  3000               	movlw	0
  5794  00B7  00B4               	movwf	___flmul@a
  5795  00B8                     l2118:
  5796  00B8  0842               	movf	___flmul@aexp,w
  5797  00B9  1903               	btfsc	3,2
  5798  00BA  28BC               	goto	u2081
  5799  00BB  28BD               	goto	u2080
  5800  00BC                     u2081:
  5801  00BC  28C2               	goto	l2122
  5802  00BD                     u2080:
  5803  00BD                     l2120:
  5804  00BD  0843               	movf	___flmul@bexp,w
  5805  00BE  1D03               	btfss	3,2
  5806  00BF  28C1               	goto	u2091
  5807  00C0  28C2               	goto	u2090
  5808  00C1                     u2091:
  5809  00C1  28CB               	goto	l2126
  5810  00C2                     u2090:
  5811  00C2                     l2122:
  5812  00C2  3000               	movlw	0
  5813  00C3  00B3               	movwf	?___flmul+3
  5814  00C4  3000               	movlw	0
  5815  00C5  00B2               	movwf	?___flmul+2
  5816  00C6  3000               	movlw	0
  5817  00C7  00B1               	movwf	?___flmul+1
  5818  00C8  3000               	movlw	0
  5819  00C9  00B0               	movwf	?___flmul
  5820  00CA  2AB9               	goto	l829
  5821  00CB                     l2126:
  5822  00CB  0830               	movf	___flmul@b,w
  5823  00CC  00B8               	movwf	??___flmul
  5824  00CD  0838               	movf	??___flmul,w
  5825  00CE  00A2               	movwf	__Umul8_16@multiplicand
  5826  00CF  0836               	movf	___flmul@a+2,w
  5827  00D0  318A  2282  3180   	fcall	__Umul8_16
  5828  00D3  0020               	movlb	0	; select bank0
  5829  00D4  0823               	movf	?__Umul8_16+1,w
  5830  00D5  00C9               	movwf	___flmul@temp+1
  5831  00D6  0822               	movf	?__Umul8_16,w
  5832  00D7  00C8               	movwf	___flmul@temp
  5833  00D8                     l2128:
  5834  00D8  0848               	movf	___flmul@temp,w
  5835  00D9  00B8               	movwf	??___flmul
  5836  00DA  01B9               	clrf	??___flmul+1
  5837  00DB  01BA               	clrf	??___flmul+2
  5838  00DC  01BB               	clrf	??___flmul+3
  5839  00DD  083B               	movf	??___flmul+3,w
  5840  00DE  00C1               	movwf	___flmul@grs+3
  5841  00DF  083A               	movf	??___flmul+2,w
  5842  00E0  00C0               	movwf	___flmul@grs+2
  5843  00E1  0839               	movf	??___flmul+1,w
  5844  00E2  00BF               	movwf	___flmul@grs+1
  5845  00E3  0838               	movf	??___flmul,w
  5846  00E4  00BE               	movwf	___flmul@grs
  5847  00E5                     l2130:
  5848  00E5  0849               	movf	___flmul@temp+1,w
  5849  00E6  00B8               	movwf	??___flmul
  5850  00E7  01B9               	clrf	??___flmul+1
  5851  00E8  01BA               	clrf	??___flmul+2
  5852  00E9  01BB               	clrf	??___flmul+3
  5853  00EA  083B               	movf	??___flmul+3,w
  5854  00EB  00C7               	movwf	___flmul@prod+3
  5855  00EC  083A               	movf	??___flmul+2,w
  5856  00ED  00C6               	movwf	___flmul@prod+2
  5857  00EE  0839               	movf	??___flmul+1,w
  5858  00EF  00C5               	movwf	___flmul@prod+1
  5859  00F0  0838               	movf	??___flmul,w
  5860  00F1  00C4               	movwf	___flmul@prod
  5861  00F2  0831               	movf	___flmul@b+1,w
  5862  00F3  00B8               	movwf	??___flmul
  5863  00F4  0838               	movf	??___flmul,w
  5864  00F5  00A2               	movwf	__Umul8_16@multiplicand
  5865  00F6  0835               	movf	___flmul@a+1,w
  5866  00F7  318A  2282  3180   	fcall	__Umul8_16
  5867  00FA  0020               	movlb	0	; select bank0
  5868  00FB  0823               	movf	?__Umul8_16+1,w
  5869  00FC  00C9               	movwf	___flmul@temp+1
  5870  00FD  0822               	movf	?__Umul8_16,w
  5871  00FE  00C8               	movwf	___flmul@temp
  5872  00FF                     l2132:
  5873  00FF  0848               	movf	___flmul@temp,w
  5874  0100  00B8               	movwf	??___flmul
  5875  0101  01B9               	clrf	??___flmul+1
  5876  0102  01BA               	clrf	??___flmul+2
  5877  0103  01BB               	clrf	??___flmul+3
  5878  0104  0838               	movf	??___flmul,w
  5879  0105  07BE               	addwf	___flmul@grs,f
  5880  0106  0839               	movf	??___flmul+1,w
  5881  0107  3DBF               	addwfc	___flmul@grs+1,f
  5882  0108  083A               	movf	??___flmul+2,w
  5883  0109  3DC0               	addwfc	___flmul@grs+2,f
  5884  010A  083B               	movf	??___flmul+3,w
  5885  010B  3DC1               	addwfc	___flmul@grs+3,f
  5886  010C                     l2134:
  5887  010C  0849               	movf	___flmul@temp+1,w
  5888  010D  00B8               	movwf	??___flmul
  5889  010E  01B9               	clrf	??___flmul+1
  5890  010F  01BA               	clrf	??___flmul+2
  5891  0110  01BB               	clrf	??___flmul+3
  5892  0111  0838               	movf	??___flmul,w
  5893  0112  07C4               	addwf	___flmul@prod,f
  5894  0113  0839               	movf	??___flmul+1,w
  5895  0114  3DC5               	addwfc	___flmul@prod+1,f
  5896  0115  083A               	movf	??___flmul+2,w
  5897  0116  3DC6               	addwfc	___flmul@prod+2,f
  5898  0117  083B               	movf	??___flmul+3,w
  5899  0118  3DC7               	addwfc	___flmul@prod+3,f
  5900  0119  0832               	movf	___flmul@b+2,w
  5901  011A  00B8               	movwf	??___flmul
  5902  011B  0838               	movf	??___flmul,w
  5903  011C  00A2               	movwf	__Umul8_16@multiplicand
  5904  011D  0834               	movf	___flmul@a,w
  5905  011E  318A  2282  3180   	fcall	__Umul8_16
  5906  0121  0020               	movlb	0	; select bank0
  5907  0122  0823               	movf	?__Umul8_16+1,w
  5908  0123  00C9               	movwf	___flmul@temp+1
  5909  0124  0822               	movf	?__Umul8_16,w
  5910  0125  00C8               	movwf	___flmul@temp
  5911  0126                     l2136:
  5912  0126  0848               	movf	___flmul@temp,w
  5913  0127  00B8               	movwf	??___flmul
  5914  0128  01B9               	clrf	??___flmul+1
  5915  0129  01BA               	clrf	??___flmul+2
  5916  012A  01BB               	clrf	??___flmul+3
  5917  012B  0838               	movf	??___flmul,w
  5918  012C  07BE               	addwf	___flmul@grs,f
  5919  012D  0839               	movf	??___flmul+1,w
  5920  012E  3DBF               	addwfc	___flmul@grs+1,f
  5921  012F  083A               	movf	??___flmul+2,w
  5922  0130  3DC0               	addwfc	___flmul@grs+2,f
  5923  0131  083B               	movf	??___flmul+3,w
  5924  0132  3DC1               	addwfc	___flmul@grs+3,f
  5925  0133                     l2138:
  5926  0133  0849               	movf	___flmul@temp+1,w
  5927  0134  00B8               	movwf	??___flmul
  5928  0135  01B9               	clrf	??___flmul+1
  5929  0136  01BA               	clrf	??___flmul+2
  5930  0137  01BB               	clrf	??___flmul+3
  5931  0138  0838               	movf	??___flmul,w
  5932  0139  07C4               	addwf	___flmul@prod,f
  5933  013A  0839               	movf	??___flmul+1,w
  5934  013B  3DC5               	addwfc	___flmul@prod+1,f
  5935  013C  083A               	movf	??___flmul+2,w
  5936  013D  3DC6               	addwfc	___flmul@prod+2,f
  5937  013E  083B               	movf	??___flmul+3,w
  5938  013F  3DC7               	addwfc	___flmul@prod+3,f
  5939  0140                     l2140:
  5940  0140  3008               	movlw	8
  5941  0141                     u2105:
  5942  0141  35BE               	lslf	___flmul@grs,f
  5943  0142  0DBF               	rlf	___flmul@grs+1,f
  5944  0143  0DC0               	rlf	___flmul@grs+2,f
  5945  0144  0DC1               	rlf	___flmul@grs+3,f
  5946  0145  0B89               	decfsz	9,f
  5947  0146  2941               	goto	u2105
  5948  0147                     l2142:
  5949  0147  0831               	movf	___flmul@b+1,w
  5950  0148  00B8               	movwf	??___flmul
  5951  0149  0838               	movf	??___flmul,w
  5952  014A  00A2               	movwf	__Umul8_16@multiplicand
  5953  014B  0834               	movf	___flmul@a,w
  5954  014C  318A  2282  3180   	fcall	__Umul8_16
  5955  014F  0020               	movlb	0	; select bank0
  5956  0150  0823               	movf	?__Umul8_16+1,w
  5957  0151  00C9               	movwf	___flmul@temp+1
  5958  0152  0822               	movf	?__Umul8_16,w
  5959  0153  00C8               	movwf	___flmul@temp
  5960  0154                     l2144:
  5961  0154  0848               	movf	___flmul@temp,w
  5962  0155  07BE               	addwf	___flmul@grs,f
  5963  0156  0849               	movf	___flmul@temp+1,w
  5964  0157  3DBF               	addwfc	___flmul@grs+1,f
  5965  0158  3000               	movlw	0
  5966  0159  3DC0               	addwfc	___flmul@grs+2,f
  5967  015A  3DC1               	addwfc	___flmul@grs+3,f
  5968  015B                     l2146:
  5969  015B  0830               	movf	___flmul@b,w
  5970  015C  00B8               	movwf	??___flmul
  5971  015D  0838               	movf	??___flmul,w
  5972  015E  00A2               	movwf	__Umul8_16@multiplicand
  5973  015F  0835               	movf	___flmul@a+1,w
  5974  0160  318A  2282  3180   	fcall	__Umul8_16
  5975  0163  0020               	movlb	0	; select bank0
  5976  0164  0823               	movf	?__Umul8_16+1,w
  5977  0165  00C9               	movwf	___flmul@temp+1
  5978  0166  0822               	movf	?__Umul8_16,w
  5979  0167  00C8               	movwf	___flmul@temp
  5980  0168                     l2148:
  5981  0168  0848               	movf	___flmul@temp,w
  5982  0169  07BE               	addwf	___flmul@grs,f
  5983  016A  0849               	movf	___flmul@temp+1,w
  5984  016B  3DBF               	addwfc	___flmul@grs+1,f
  5985  016C  3000               	movlw	0
  5986  016D  3DC0               	addwfc	___flmul@grs+2,f
  5987  016E  3DC1               	addwfc	___flmul@grs+3,f
  5988  016F                     l2150:
  5989  016F  3008               	movlw	8
  5990  0170                     u2115:
  5991  0170  35BE               	lslf	___flmul@grs,f
  5992  0171  0DBF               	rlf	___flmul@grs+1,f
  5993  0172  0DC0               	rlf	___flmul@grs+2,f
  5994  0173  0DC1               	rlf	___flmul@grs+3,f
  5995  0174  0B89               	decfsz	9,f
  5996  0175  2970               	goto	u2115
  5997  0176  0830               	movf	___flmul@b,w
  5998  0177  00B8               	movwf	??___flmul
  5999  0178  0838               	movf	??___flmul,w
  6000  0179  00A2               	movwf	__Umul8_16@multiplicand
  6001  017A  0834               	movf	___flmul@a,w
  6002  017B  318A  2282  3180   	fcall	__Umul8_16
  6003  017E  0020               	movlb	0	; select bank0
  6004  017F  0823               	movf	?__Umul8_16+1,w
  6005  0180  00C9               	movwf	___flmul@temp+1
  6006  0181  0822               	movf	?__Umul8_16,w
  6007  0182  00C8               	movwf	___flmul@temp
  6008  0183                     l2152:
  6009  0183  0848               	movf	___flmul@temp,w
  6010  0184  07BE               	addwf	___flmul@grs,f
  6011  0185  0849               	movf	___flmul@temp+1,w
  6012  0186  3DBF               	addwfc	___flmul@grs+1,f
  6013  0187  3000               	movlw	0
  6014  0188  3DC0               	addwfc	___flmul@grs+2,f
  6015  0189  3DC1               	addwfc	___flmul@grs+3,f
  6016  018A                     l2154:
  6017  018A  0831               	movf	___flmul@b+1,w
  6018  018B  00B8               	movwf	??___flmul
  6019  018C  0838               	movf	??___flmul,w
  6020  018D  00A2               	movwf	__Umul8_16@multiplicand
  6021  018E  0836               	movf	___flmul@a+2,w
  6022  018F  318A  2282  3180   	fcall	__Umul8_16
  6023  0192  0020               	movlb	0	; select bank0
  6024  0193  0823               	movf	?__Umul8_16+1,w
  6025  0194  00C9               	movwf	___flmul@temp+1
  6026  0195  0822               	movf	?__Umul8_16,w
  6027  0196  00C8               	movwf	___flmul@temp
  6028  0197  0848               	movf	___flmul@temp,w
  6029  0198  07C4               	addwf	___flmul@prod,f
  6030  0199  0849               	movf	___flmul@temp+1,w
  6031  019A  3DC5               	addwfc	___flmul@prod+1,f
  6032  019B  3000               	movlw	0
  6033  019C  3DC6               	addwfc	___flmul@prod+2,f
  6034  019D  3DC7               	addwfc	___flmul@prod+3,f
  6035  019E                     l2156:
  6036  019E  0832               	movf	___flmul@b+2,w
  6037  019F  00B8               	movwf	??___flmul
  6038  01A0  0838               	movf	??___flmul,w
  6039  01A1  00A2               	movwf	__Umul8_16@multiplicand
  6040  01A2  0835               	movf	___flmul@a+1,w
  6041  01A3  318A  2282  3180   	fcall	__Umul8_16
  6042  01A6  0020               	movlb	0	; select bank0
  6043  01A7  0823               	movf	?__Umul8_16+1,w
  6044  01A8  00C9               	movwf	___flmul@temp+1
  6045  01A9  0822               	movf	?__Umul8_16,w
  6046  01AA  00C8               	movwf	___flmul@temp
  6047  01AB                     l2158:
  6048  01AB  0848               	movf	___flmul@temp,w
  6049  01AC  07C4               	addwf	___flmul@prod,f
  6050  01AD  0849               	movf	___flmul@temp+1,w
  6051  01AE  3DC5               	addwfc	___flmul@prod+1,f
  6052  01AF  3000               	movlw	0
  6053  01B0  3DC6               	addwfc	___flmul@prod+2,f
  6054  01B1  3DC7               	addwfc	___flmul@prod+3,f
  6055  01B2  0832               	movf	___flmul@b+2,w
  6056  01B3  00B8               	movwf	??___flmul
  6057  01B4  0838               	movf	??___flmul,w
  6058  01B5  00A2               	movwf	__Umul8_16@multiplicand
  6059  01B6  0836               	movf	___flmul@a+2,w
  6060  01B7  318A  2282  3180   	fcall	__Umul8_16
  6061  01BA  0020               	movlb	0	; select bank0
  6062  01BB  0823               	movf	?__Umul8_16+1,w
  6063  01BC  00C9               	movwf	___flmul@temp+1
  6064  01BD  0822               	movf	?__Umul8_16,w
  6065  01BE  00C8               	movwf	___flmul@temp
  6066  01BF                     l2160:
  6067  01BF  0848               	movf	___flmul@temp,w
  6068  01C0  00B8               	movwf	??___flmul
  6069  01C1  0849               	movf	___flmul@temp+1,w
  6070  01C2  00B9               	movwf	??___flmul+1
  6071  01C3  01BA               	clrf	??___flmul+2
  6072  01C4  01BB               	clrf	??___flmul+3
  6073  01C5  3008               	movlw	8
  6074  01C6                     u2125:
  6075  01C6  35B8               	lslf	??___flmul,f
  6076  01C7  0DB9               	rlf	??___flmul+1,f
  6077  01C8  0DBA               	rlf	??___flmul+2,f
  6078  01C9  0DBB               	rlf	??___flmul+3,f
  6079  01CA                     u2120:
  6080  01CA  0B89               	decfsz	9,f
  6081  01CB  29C6               	goto	u2125
  6082  01CC  0838               	movf	??___flmul,w
  6083  01CD  07C4               	addwf	___flmul@prod,f
  6084  01CE  0839               	movf	??___flmul+1,w
  6085  01CF  3DC5               	addwfc	___flmul@prod+1,f
  6086  01D0  083A               	movf	??___flmul+2,w
  6087  01D1  3DC6               	addwfc	___flmul@prod+2,f
  6088  01D2  083B               	movf	??___flmul+3,w
  6089  01D3  3DC7               	addwfc	___flmul@prod+3,f
  6090  01D4                     l2162:
  6091  01D4  083E               	movf	___flmul@grs,w
  6092  01D5  00B8               	movwf	??___flmul
  6093  01D6  083F               	movf	___flmul@grs+1,w
  6094  01D7  00B9               	movwf	??___flmul+1
  6095  01D8  0840               	movf	___flmul@grs+2,w
  6096  01D9  00BA               	movwf	??___flmul+2
  6097  01DA  0841               	movf	___flmul@grs+3,w
  6098  01DB  00BB               	movwf	??___flmul+3
  6099  01DC  3018               	movlw	24
  6100  01DD                     u2135:
  6101  01DD  36BB               	lsrf	??___flmul+3,f
  6102  01DE  0CBA               	rrf	??___flmul+2,f
  6103  01DF  0CB9               	rrf	??___flmul+1,f
  6104  01E0  0CB8               	rrf	??___flmul,f
  6105  01E1                     u2130:
  6106  01E1  0B89               	decfsz	9,f
  6107  01E2  29DD               	goto	u2135
  6108  01E3  0838               	movf	??___flmul,w
  6109  01E4  07C4               	addwf	___flmul@prod,f
  6110  01E5  0839               	movf	??___flmul+1,w
  6111  01E6  3DC5               	addwfc	___flmul@prod+1,f
  6112  01E7  083A               	movf	??___flmul+2,w
  6113  01E8  3DC6               	addwfc	___flmul@prod+2,f
  6114  01E9  083B               	movf	??___flmul+3,w
  6115  01EA  3DC7               	addwfc	___flmul@prod+3,f
  6116  01EB                     l2164:
  6117  01EB  3008               	movlw	8
  6118  01EC                     u2145:
  6119  01EC  35BE               	lslf	___flmul@grs,f
  6120  01ED  0DBF               	rlf	___flmul@grs+1,f
  6121  01EE  0DC0               	rlf	___flmul@grs+2,f
  6122  01EF  0DC1               	rlf	___flmul@grs+3,f
  6123  01F0  0B89               	decfsz	9,f
  6124  01F1  29EC               	goto	u2145
  6125  01F2                     l2166:
  6126  01F2  0843               	movf	___flmul@bexp,w
  6127  01F3  0742               	addwf	___flmul@aexp,w
  6128  01F4  00B8               	movwf	??___flmul
  6129  01F5  01B9               	clrf	??___flmul+1
  6130  01F6  0DB9               	rlf	??___flmul+1,f
  6131  01F7  0838               	movf	??___flmul,w
  6132  01F8  3E82               	addlw	130
  6133  01F9  00C8               	movwf	___flmul@temp
  6134  01FA  30FF               	movlw	255
  6135  01FB  3D39               	addwfc	??___flmul+1,w
  6136  01FC  00C9               	movwf	___flmul@temp+1
  6137  01FD  2A15               	goto	l2178
  6138  01FE                     l2168:
  6139  01FE  3001               	movlw	1
  6140  01FF                     u2155:
  6141  01FF  35C4               	lslf	___flmul@prod,f
  6142  0200  0DC5               	rlf	___flmul@prod+1,f
  6143  0201  0DC6               	rlf	___flmul@prod+2,f
  6144  0202  0DC7               	rlf	___flmul@prod+3,f
  6145  0203  0B89               	decfsz	9,f
  6146  0204  29FF               	goto	u2155
  6147  0205                     l2170:
  6148  0205  1FC1               	btfss	___flmul@grs+3,7
  6149  0206  2A08               	goto	u2161
  6150  0207  2A09               	goto	u2160
  6151  0208                     u2161:
  6152  0208  2A0A               	goto	l2174
  6153  0209                     u2160:
  6154  0209                     l2172:
  6155  0209  1444               	bsf	___flmul@prod,0
  6156  020A                     l2174:
  6157  020A  3001               	movlw	1
  6158  020B                     u2175:
  6159  020B  35BE               	lslf	___flmul@grs,f
  6160  020C  0DBF               	rlf	___flmul@grs+1,f
  6161  020D  0DC0               	rlf	___flmul@grs+2,f
  6162  020E  0DC1               	rlf	___flmul@grs+3,f
  6163  020F  0B89               	decfsz	9,f
  6164  0210  2A0B               	goto	u2175
  6165  0211                     l2176:
  6166  0211  30FF               	movlw	255
  6167  0212  07C8               	addwf	___flmul@temp,f
  6168  0213  30FF               	movlw	255
  6169  0214  3DC9               	addwfc	___flmul@temp+1,f
  6170  0215                     l2178:
  6171  0215  1FC6               	btfss	___flmul@prod+2,7
  6172  0216  2A18               	goto	u2181
  6173  0217  2A19               	goto	u2180
  6174  0218                     u2181:
  6175  0218  29FE               	goto	l2168
  6176  0219                     u2180:
  6177  0219                     l2180:
  6178  0219  01C2               	clrf	___flmul@aexp
  6179  021A                     l2182:
  6180  021A  1FC1               	btfss	___flmul@grs+3,7
  6181  021B  2A1D               	goto	u2191
  6182  021C  2A1E               	goto	u2190
  6183  021D                     u2191:
  6184  021D  2A3A               	goto	l2190
  6185  021E                     u2190:
  6186  021E                     l2184:
  6187  021E  30FF               	movlw	255
  6188  021F  053E               	andwf	___flmul@grs,w
  6189  0220  00B8               	movwf	??___flmul
  6190  0221  30FF               	movlw	255
  6191  0222  053F               	andwf	___flmul@grs+1,w
  6192  0223  00B9               	movwf	??___flmul+1
  6193  0224  30FF               	movlw	255
  6194  0225  0540               	andwf	___flmul@grs+2,w
  6195  0226  00BA               	movwf	??___flmul+2
  6196  0227  307F               	movlw	127
  6197  0228  0541               	andwf	___flmul@grs+3,w
  6198  0229  00BB               	movwf	??___flmul+3
  6199  022A  083B               	movf	??___flmul+3,w
  6200  022B  043A               	iorwf	??___flmul+2,w
  6201  022C  0439               	iorwf	??___flmul+1,w
  6202  022D  0438               	iorwf	??___flmul,w
  6203  022E  1903               	skipnz
  6204  022F  2A31               	goto	u2201
  6205  0230  2A32               	goto	u2200
  6206  0231                     u2201:
  6207  0231  2A35               	goto	l835
  6208  0232                     u2200:
  6209  0232                     l2186:
  6210  0232  01C2               	clrf	___flmul@aexp
  6211  0233  0AC2               	incf	___flmul@aexp,f
  6212  0234  2A3A               	goto	l2190
  6213  0235                     l835:
  6214  0235  1C44               	btfss	___flmul@prod,0
  6215  0236  2A38               	goto	u2211
  6216  0237  2A39               	goto	u2210
  6217  0238                     u2211:
  6218  0238  2A3A               	goto	l2190
  6219  0239                     u2210:
  6220  0239  2A32               	goto	l2186
  6221  023A                     l2190:
  6222  023A  0842               	movf	___flmul@aexp,w
  6223  023B  1903               	btfsc	3,2
  6224  023C  2A3E               	goto	u2221
  6225  023D  2A3F               	goto	u2220
  6226  023E                     u2221:
  6227  023E  2A67               	goto	l2200
  6228  023F                     u2220:
  6229  023F                     l2192:
  6230  023F  3001               	movlw	1
  6231  0240  07C4               	addwf	___flmul@prod,f
  6232  0241  3000               	movlw	0
  6233  0242  3DC5               	addwfc	___flmul@prod+1,f
  6234  0243  3000               	movlw	0
  6235  0244  3DC6               	addwfc	___flmul@prod+2,f
  6236  0245  3000               	movlw	0
  6237  0246  3DC7               	addwfc	___flmul@prod+3,f
  6238  0247                     l2194:
  6239  0247  1C47               	btfss	___flmul@prod+3,0
  6240  0248  2A4A               	goto	u2231
  6241  0249  2A4B               	goto	u2230
  6242  024A                     u2231:
  6243  024A  2A67               	goto	l2200
  6244  024B                     u2230:
  6245  024B                     l2196:
  6246  024B  0844               	movf	___flmul@prod,w
  6247  024C  00B8               	movwf	??___flmul
  6248  024D  0845               	movf	___flmul@prod+1,w
  6249  024E  00B9               	movwf	??___flmul+1
  6250  024F  0846               	movf	___flmul@prod+2,w
  6251  0250  00BA               	movwf	??___flmul+2
  6252  0251  0847               	movf	___flmul@prod+3,w
  6253  0252  00BB               	movwf	??___flmul+3
  6254  0253  3001               	movlw	1
  6255  0254  00BC               	movwf	??___flmul+4
  6256  0255                     u2245:
  6257  0255  37BB               	asrf	??___flmul+3,f
  6258  0256  0CBA               	rrf	??___flmul+2,f
  6259  0257  0CB9               	rrf	??___flmul+1,f
  6260  0258  0CB8               	rrf	??___flmul,f
  6261  0259                     u2240:
  6262  0259  0BBC               	decfsz	??___flmul+4,f
  6263  025A  2A55               	goto	u2245
  6264  025B  083B               	movf	??___flmul+3,w
  6265  025C  00C7               	movwf	___flmul@prod+3
  6266  025D  083A               	movf	??___flmul+2,w
  6267  025E  00C6               	movwf	___flmul@prod+2
  6268  025F  0839               	movf	??___flmul+1,w
  6269  0260  00C5               	movwf	___flmul@prod+1
  6270  0261  0838               	movf	??___flmul,w
  6271  0262  00C4               	movwf	___flmul@prod
  6272  0263                     l2198:
  6273  0263  3001               	movlw	1
  6274  0264  07C8               	addwf	___flmul@temp,f
  6275  0265  3000               	movlw	0
  6276  0266  3DC9               	addwfc	___flmul@temp+1,f
  6277  0267                     l2200:
  6278  0267  0849               	movf	___flmul@temp+1,w
  6279  0268  3A80               	xorlw	128
  6280  0269  00B8               	movwf	??___flmul
  6281  026A  3080               	movlw	128
  6282  026B  0238               	subwf	??___flmul,w
  6283  026C  1D03               	skipz
  6284  026D  2A70               	goto	u2255
  6285  026E  30FF               	movlw	255
  6286  026F  0248               	subwf	___flmul@temp,w
  6287  0270                     u2255:
  6288  0270  1C03               	skipc
  6289  0271  2A73               	goto	u2251
  6290  0272  2A74               	goto	u2250
  6291  0273                     u2251:
  6292  0273  2A7E               	goto	l2204
  6293  0274                     u2250:
  6294  0274                     l2202:
  6295  0274  307F               	movlw	127
  6296  0275  0020               	movlb	0	; select bank0
  6297  0276  00C7               	movwf	___flmul@prod+3
  6298  0277  3080               	movlw	128
  6299  0278  00C6               	movwf	___flmul@prod+2
  6300  0279  3000               	movlw	0
  6301  027A  00C5               	movwf	___flmul@prod+1
  6302  027B  3000               	movlw	0
  6303  027C  00C4               	movwf	___flmul@prod
  6304  027D  2AAD               	goto	l841
  6305  027E                     l2204:
  6306  027E  0020               	movlb	0	; select bank0
  6307  027F  0849               	movf	___flmul@temp+1,w
  6308  0280  3A80               	xorlw	128
  6309  0281  00B8               	movwf	??___flmul
  6310  0282  3080               	movlw	128
  6311  0283  0238               	subwf	??___flmul,w
  6312  0284  1D03               	skipz
  6313  0285  2A88               	goto	u2265
  6314  0286  3001               	movlw	1
  6315  0287  0248               	subwf	___flmul@temp,w
  6316  0288                     u2265:
  6317  0288  1803               	skipnc
  6318  0289  2A8B               	goto	u2261
  6319  028A  2A8C               	goto	u2260
  6320  028B                     u2261:
  6321  028B  2A97               	goto	l2210
  6322  028C                     u2260:
  6323  028C                     l2206:
  6324  028C  3000               	movlw	0
  6325  028D  0020               	movlb	0	; select bank0
  6326  028E  00C7               	movwf	___flmul@prod+3
  6327  028F  3000               	movlw	0
  6328  0290  00C6               	movwf	___flmul@prod+2
  6329  0291  3000               	movlw	0
  6330  0292  00C5               	movwf	___flmul@prod+1
  6331  0293  3000               	movlw	0
  6332  0294  00C4               	movwf	___flmul@prod
  6333  0295                     l2208:
  6334  0295  01BD               	clrf	___flmul@sign
  6335  0296  2AAD               	goto	l841
  6336  0297                     l2210:
  6337  0297  0020               	movlb	0	; select bank0
  6338  0298  0848               	movf	___flmul@temp,w
  6339  0299  00B8               	movwf	??___flmul
  6340  029A  0838               	movf	??___flmul,w
  6341  029B  00C3               	movwf	___flmul@bexp
  6342  029C  30FF               	movlw	255
  6343  029D  05C4               	andwf	___flmul@prod,f
  6344  029E  30FF               	movlw	255
  6345  029F  05C5               	andwf	___flmul@prod+1,f
  6346  02A0  307F               	movlw	127
  6347  02A1  05C6               	andwf	___flmul@prod+2,f
  6348  02A2  3000               	movlw	0
  6349  02A3  05C7               	andwf	___flmul@prod+3,f
  6350  02A4                     l2212:
  6351  02A4  1C43               	btfss	___flmul@bexp,0
  6352  02A5  2AA7               	goto	u2271
  6353  02A6  2AA8               	goto	u2270
  6354  02A7                     u2271:
  6355  02A7  2AA9               	goto	l2216
  6356  02A8                     u2270:
  6357  02A8                     l2214:
  6358  02A8  17C6               	bsf	___flmul@prod+2,7
  6359  02A9                     l2216:
  6360  02A9  3643               	lsrf	___flmul@bexp,w
  6361  02AA  00B8               	movwf	??___flmul
  6362  02AB  0838               	movf	??___flmul,w
  6363  02AC  00C7               	movwf	___flmul@prod+3
  6364  02AD                     l841:
  6365  02AD  083D               	movf	___flmul@sign,w
  6366  02AE  00B8               	movwf	??___flmul
  6367  02AF  0838               	movf	??___flmul,w
  6368  02B0  04C7               	iorwf	___flmul@prod+3,f
  6369  02B1                     l2218:
  6370  02B1  0847               	movf	___flmul@prod+3,w
  6371  02B2  00B3               	movwf	?___flmul+3
  6372  02B3  0846               	movf	___flmul@prod+2,w
  6373  02B4  00B2               	movwf	?___flmul+2
  6374  02B5  0845               	movf	___flmul@prod+1,w
  6375  02B6  00B1               	movwf	?___flmul+1
  6376  02B7  0844               	movf	___flmul@prod,w
  6377  02B8  00B0               	movwf	?___flmul
  6378  02B9                     l829:
  6379  02B9  0008               	return
  6380  02BA                     __end_of___flmul:
  6381                           
  6382                           	psect	text33
  6383  0A82                     __ptext33:	
  6384 ;; *************** function __Umul8_16 *****************
  6385 ;; Defined at:
  6386 ;;		line 4 in file "C:\Program Files (x86)\Microchip\xc8\pic\sources\c99\common\Umul8_16.c"
  6387 ;; Parameters:    Size  Location     Type
  6388 ;;  multiplier      1    wreg     unsigned char 
  6389 ;;  multiplicand    1    2[BANK0 ] unsigned char 
  6390 ;; Auto vars:     Size  Location     Type
  6391 ;;  multiplier      1   10[BANK0 ] unsigned char 
  6392 ;;  word_mpld       2    8[BANK0 ] unsigned int 
  6393 ;;  product         2    6[BANK0 ] unsigned int 
  6394 ;; Return value:  Size  Location     Type
  6395 ;;                  2    2[BANK0 ] unsigned int 
  6396 ;; Registers used:
  6397 ;;		wreg, status,2, status,0
  6398 ;; Tracked objects:
  6399 ;;		On entry : 0/0
  6400 ;;		On exit  : 0/0
  6401 ;;		Unchanged: 0/0
  6402 ;; Data sizes:     COMMON   BANK0   BANK1   BANK2   BANK3   BANK4   BANK5   BANK6
  6403 ;;      Params:         0       2       0       0       0       0       0       0
  6404 ;;      Locals:         0       5       0       0       0       0       0       0
  6405 ;;      Temps:          0       2       0       0       0       0       0       0
  6406 ;;      Totals:         0       9       0       0       0       0       0       0
  6407 ;;Total ram usage:        9 bytes
  6408 ;; Hardware stack levels used:    1
  6409 ;; Hardware stack levels required when called:    4
  6410 ;; This function calls:
  6411 ;;		Nothing
  6412 ;; This function is called by:
  6413 ;;		___flmul
  6414 ;; This function uses a non-reentrant model
  6415 ;;
  6416                           
  6417                           
  6418                           ;psect for function __Umul8_16
  6419  0A82                     __Umul8_16:
  6420                           
  6421                           ;incstack = 0
  6422                           ; Regs used in __Umul8_16: [wreg+status,2+status,0]
  6423                           ;__Umul8_16@multiplier stored from wreg
  6424  0A82  0020               	movlb	0	; select bank0
  6425  0A83  00AA               	movwf	__Umul8_16@multiplier
  6426  0A84                     l1852:
  6427  0A84  01A6               	clrf	__Umul8_16@product
  6428  0A85  01A7               	clrf	__Umul8_16@product+1
  6429  0A86                     l1854:
  6430  0A86  0822               	movf	__Umul8_16@multiplicand,w
  6431  0A87  00A4               	movwf	??__Umul8_16
  6432  0A88  01A5               	clrf	??__Umul8_16+1
  6433  0A89  0824               	movf	??__Umul8_16,w
  6434  0A8A  00A8               	movwf	__Umul8_16@word_mpld
  6435  0A8B  0825               	movf	??__Umul8_16+1,w
  6436  0A8C  00A9               	movwf	__Umul8_16@word_mpld+1
  6437  0A8D                     l1856:
  6438  0A8D  1C2A               	btfss	__Umul8_16@multiplier,0
  6439  0A8E  2A90               	goto	u1511
  6440  0A8F  2A91               	goto	u1510
  6441  0A90                     u1511:
  6442  0A90  2A95               	goto	l848
  6443  0A91                     u1510:
  6444  0A91                     l1858:
  6445  0A91  0828               	movf	__Umul8_16@word_mpld,w
  6446  0A92  07A6               	addwf	__Umul8_16@product,f
  6447  0A93  0829               	movf	__Umul8_16@word_mpld+1,w
  6448  0A94  3DA7               	addwfc	__Umul8_16@product+1,f
  6449  0A95                     l848:
  6450  0A95  3001               	movlw	1
  6451  0A96                     u1525:
  6452  0A96  35A8               	lslf	__Umul8_16@word_mpld,f
  6453  0A97  0DA9               	rlf	__Umul8_16@word_mpld+1,f
  6454  0A98  0B89               	decfsz	9,f
  6455  0A99  2A96               	goto	u1525
  6456  0A9A  1003               	clrc
  6457  0A9B  0CAA               	rrf	__Umul8_16@multiplier,f
  6458  0A9C                     l1860:
  6459  0A9C  082A               	movf	__Umul8_16@multiplier,w
  6460  0A9D  1D03               	btfss	3,2
  6461  0A9E  2AA0               	goto	u1531
  6462  0A9F  2AA1               	goto	u1530
  6463  0AA0                     u1531:
  6464  0AA0  2A8D               	goto	l1856
  6465  0AA1                     u1530:
  6466  0AA1                     l1862:
  6467  0AA1  0827               	movf	__Umul8_16@product+1,w
  6468  0AA2  00A3               	movwf	?__Umul8_16+1
  6469  0AA3  0826               	movf	__Umul8_16@product,w
  6470  0AA4  00A2               	movwf	?__Umul8_16
  6471  0AA5                     l850:
  6472  0AA5  0008               	return
  6473  0AA6                     __end_of__Umul8_16:
  6474                           
  6475                           	psect	text34
  6476  04BA                     __ptext34:	
  6477 ;; *************** function ___fldiv *****************
  6478 ;; Defined at:
  6479 ;;		line 8 in file "C:\Program Files (x86)\Microchip\xc8\pic\sources\c99\common\sprcdiv.c"
  6480 ;; Parameters:    Size  Location     Type
  6481 ;;  a               4   16[BANK0 ] unsigned int 
  6482 ;;  b               4   20[BANK0 ] unsigned int 
  6483 ;; Auto vars:     Size  Location     Type
  6484 ;;  grs             4   36[BANK0 ] unsigned long 
  6485 ;;  rem             4   29[BANK0 ] unsigned long 
  6486 ;;  new_exp         2   34[BANK0 ] int 
  6487 ;;  aexp            1   41[BANK0 ] unsigned char 
  6488 ;;  bexp            1   40[BANK0 ] unsigned char 
  6489 ;;  sign            1   33[BANK0 ] unsigned char 
  6490 ;; Return value:  Size  Location     Type
  6491 ;;                  4   16[BANK0 ] unsigned char 
  6492 ;; Registers used:
  6493 ;;		wreg, status,2, status,0
  6494 ;; Tracked objects:
  6495 ;;		On entry : 0/0
  6496 ;;		On exit  : 0/0
  6497 ;;		Unchanged: 0/0
  6498 ;; Data sizes:     COMMON   BANK0   BANK1   BANK2   BANK3   BANK4   BANK5   BANK6
  6499 ;;      Params:         0       8       0       0       0       0       0       0
  6500 ;;      Locals:         0      13       0       0       0       0       0       0
  6501 ;;      Temps:          0       5       0       0       0       0       0       0
  6502 ;;      Totals:         0      26       0       0       0       0       0       0
  6503 ;;Total ram usage:       26 bytes
  6504 ;; Hardware stack levels used:    1
  6505 ;; Hardware stack levels required when called:    4
  6506 ;; This function calls:
  6507 ;;		Nothing
  6508 ;; This function is called by:
  6509 ;;		_LinearTransiant
  6510 ;; This function uses a non-reentrant model
  6511 ;;
  6512                           
  6513                           
  6514                           ;psect for function ___fldiv
  6515  04BA                     ___fldiv:
  6516  04BA                     l1942:	
  6517                           ;incstack = 0
  6518                           ; Regs used in ___fldiv: [wreg+status,2+status,0]
  6519                           
  6520  04BA  0020               	movlb	0	; select bank0
  6521  04BB  0837               	movf	___fldiv@b+3,w
  6522  04BC  3980               	andlw	128
  6523  04BD  00B8               	movwf	??___fldiv
  6524  04BE  0838               	movf	??___fldiv,w
  6525  04BF  00C1               	movwf	___fldiv@sign
  6526  04C0                     l1944:
  6527  04C0  3537               	lslf	___fldiv@b+3,w
  6528  04C1  00B8               	movwf	??___fldiv
  6529  04C2  0838               	movf	??___fldiv,w
  6530  04C3  00C8               	movwf	___fldiv@bexp
  6531  04C4                     l1946:
  6532  04C4  1FB6               	btfss	___fldiv@b+2,7
  6533  04C5  2CC7               	goto	u1731
  6534  04C6  2CC8               	goto	u1730
  6535  04C7                     u1731:
  6536  04C7  2CC9               	goto	l1950
  6537  04C8                     u1730:
  6538  04C8                     l1948:
  6539  04C8  1448               	bsf	___fldiv@bexp,0
  6540  04C9                     l1950:
  6541  04C9  0848               	movf	___fldiv@bexp,w
  6542  04CA  1903               	btfsc	3,2
  6543  04CB  2CCD               	goto	u1741
  6544  04CC  2CCE               	goto	u1740
  6545  04CD                     u1741:
  6546  04CD  2CDE               	goto	l1960
  6547  04CE                     u1740:
  6548  04CE                     l1952:
  6549  04CE  0A48               	incf	___fldiv@bexp,w
  6550  04CF  1D03               	btfss	3,2
  6551  04D0  2CD2               	goto	u1751
  6552  04D1  2CD3               	goto	u1750
  6553  04D2                     u1751:
  6554  04D2  2CDB               	goto	l1956
  6555  04D3                     u1750:
  6556  04D3                     l1954:
  6557  04D3  3000               	movlw	0
  6558  04D4  00B7               	movwf	___fldiv@b+3
  6559  04D5  3000               	movlw	0
  6560  04D6  00B6               	movwf	___fldiv@b+2
  6561  04D7  3000               	movlw	0
  6562  04D8  00B5               	movwf	___fldiv@b+1
  6563  04D9  3000               	movlw	0
  6564  04DA  00B4               	movwf	___fldiv@b
  6565  04DB                     l1956:
  6566  04DB  17B6               	bsf	___fldiv@b+2,7
  6567  04DC                     l1958:
  6568  04DC  01B7               	clrf	___fldiv@b+3
  6569  04DD  2CE6               	goto	l1962
  6570  04DE                     l1960:
  6571  04DE  3000               	movlw	0
  6572  04DF  00B7               	movwf	___fldiv@b+3
  6573  04E0  3000               	movlw	0
  6574  04E1  00B6               	movwf	___fldiv@b+2
  6575  04E2  3000               	movlw	0
  6576  04E3  00B5               	movwf	___fldiv@b+1
  6577  04E4  3000               	movlw	0
  6578  04E5  00B4               	movwf	___fldiv@b
  6579  04E6                     l1962:
  6580  04E6  0833               	movf	___fldiv@a+3,w
  6581  04E7  3980               	andlw	128
  6582  04E8  00B8               	movwf	??___fldiv
  6583  04E9  0838               	movf	??___fldiv,w
  6584  04EA  06C1               	xorwf	___fldiv@sign,f
  6585  04EB                     l1964:
  6586  04EB  3533               	lslf	___fldiv@a+3,w
  6587  04EC  00B8               	movwf	??___fldiv
  6588  04ED  0838               	movf	??___fldiv,w
  6589  04EE  00C9               	movwf	___fldiv@aexp
  6590  04EF                     l1966:
  6591  04EF  1FB2               	btfss	___fldiv@a+2,7
  6592  04F0  2CF2               	goto	u1761
  6593  04F1  2CF3               	goto	u1760
  6594  04F2                     u1761:
  6595  04F2  2CF4               	goto	l1970
  6596  04F3                     u1760:
  6597  04F3                     l1968:
  6598  04F3  1449               	bsf	___fldiv@aexp,0
  6599  04F4                     l1970:
  6600  04F4  0849               	movf	___fldiv@aexp,w
  6601  04F5  1903               	btfsc	3,2
  6602  04F6  2CF8               	goto	u1771
  6603  04F7  2CF9               	goto	u1770
  6604  04F8                     u1771:
  6605  04F8  2D09               	goto	l1980
  6606  04F9                     u1770:
  6607  04F9                     l1972:
  6608  04F9  0A49               	incf	___fldiv@aexp,w
  6609  04FA  1D03               	btfss	3,2
  6610  04FB  2CFD               	goto	u1781
  6611  04FC  2CFE               	goto	u1780
  6612  04FD                     u1781:
  6613  04FD  2D06               	goto	l1976
  6614  04FE                     u1780:
  6615  04FE                     l1974:
  6616  04FE  3000               	movlw	0
  6617  04FF  00B3               	movwf	___fldiv@a+3
  6618  0500  3000               	movlw	0
  6619  0501  00B2               	movwf	___fldiv@a+2
  6620  0502  3000               	movlw	0
  6621  0503  00B1               	movwf	___fldiv@a+1
  6622  0504  3000               	movlw	0
  6623  0505  00B0               	movwf	___fldiv@a
  6624  0506                     l1976:
  6625  0506  17B2               	bsf	___fldiv@a+2,7
  6626  0507                     l1978:
  6627  0507  01B3               	clrf	___fldiv@a+3
  6628  0508  2D11               	goto	l789
  6629  0509                     l1980:
  6630  0509  3000               	movlw	0
  6631  050A  00B3               	movwf	___fldiv@a+3
  6632  050B  3000               	movlw	0
  6633  050C  00B2               	movwf	___fldiv@a+2
  6634  050D  3000               	movlw	0
  6635  050E  00B1               	movwf	___fldiv@a+1
  6636  050F  3000               	movlw	0
  6637  0510  00B0               	movwf	___fldiv@a
  6638  0511                     l789:
  6639  0511  0833               	movf	___fldiv@a+3,w
  6640  0512  0432               	iorwf	___fldiv@a+2,w
  6641  0513  0431               	iorwf	___fldiv@a+1,w
  6642  0514  0430               	iorwf	___fldiv@a,w
  6643  0515  1D03               	skipz
  6644  0516  2D18               	goto	u1791
  6645  0517  2D19               	goto	u1790
  6646  0518                     u1791:
  6647  0518  2D32               	goto	l1990
  6648  0519                     u1790:
  6649  0519                     l1982:
  6650  0519  3000               	movlw	0
  6651  051A  00B7               	movwf	___fldiv@b+3
  6652  051B  3000               	movlw	0
  6653  051C  00B6               	movwf	___fldiv@b+2
  6654  051D  3000               	movlw	0
  6655  051E  00B5               	movwf	___fldiv@b+1
  6656  051F  3000               	movlw	0
  6657  0520  00B4               	movwf	___fldiv@b
  6658  0521  3080               	movlw	128
  6659  0522  04B6               	iorwf	___fldiv@b+2,f
  6660  0523  307F               	movlw	127
  6661  0524  04B7               	iorwf	___fldiv@b+3,f
  6662  0525                     l1984:
  6663  0525  0841               	movf	___fldiv@sign,w
  6664  0526  00B8               	movwf	??___fldiv
  6665  0527  0838               	movf	??___fldiv,w
  6666  0528  04B7               	iorwf	___fldiv@b+3,f
  6667  0529                     l1986:
  6668  0529  0837               	movf	___fldiv@b+3,w
  6669  052A  00B3               	movwf	?___fldiv+3
  6670  052B  0836               	movf	___fldiv@b+2,w
  6671  052C  00B2               	movwf	?___fldiv+2
  6672  052D  0835               	movf	___fldiv@b+1,w
  6673  052E  00B1               	movwf	?___fldiv+1
  6674  052F  0834               	movf	___fldiv@b,w
  6675  0530  00B0               	movwf	?___fldiv
  6676  0531  2E6D               	goto	l791
  6677  0532                     l1990:
  6678  0532  0848               	movf	___fldiv@bexp,w
  6679  0533  1D03               	btfss	3,2
  6680  0534  2D36               	goto	u1801
  6681  0535  2D37               	goto	u1800
  6682  0536                     u1801:
  6683  0536  2D40               	goto	l1996
  6684  0537                     u1800:
  6685  0537                     l1992:
  6686  0537  3000               	movlw	0
  6687  0538  00B3               	movwf	?___fldiv+3
  6688  0539  3000               	movlw	0
  6689  053A  00B2               	movwf	?___fldiv+2
  6690  053B  3000               	movlw	0
  6691  053C  00B1               	movwf	?___fldiv+1
  6692  053D  3000               	movlw	0
  6693  053E  00B0               	movwf	?___fldiv
  6694  053F  2E6D               	goto	l791
  6695  0540                     l1996:
  6696  0540  0848               	movf	___fldiv@bexp,w
  6697  0541  00B8               	movwf	??___fldiv
  6698  0542  01B9               	clrf	??___fldiv+1
  6699  0543  0839               	movf	??___fldiv+1,w
  6700  0544  00BB               	movwf	??___fldiv+3
  6701  0545  0849               	movf	___fldiv@aexp,w
  6702  0546  0238               	subwf	??___fldiv,w
  6703  0547  00BA               	movwf	??___fldiv+2
  6704  0548  1C03               	skipc
  6705  0549  03BB               	decf	??___fldiv+3,f
  6706  054A  083A               	movf	??___fldiv+2,w
  6707  054B  3E7F               	addlw	127
  6708  054C  00C2               	movwf	___fldiv@new_exp
  6709  054D  3000               	movlw	0
  6710  054E  3D3B               	addwfc	??___fldiv+3,w
  6711  054F  00C3               	movwf	___fldiv@new_exp+1
  6712  0550                     l1998:
  6713  0550  0837               	movf	___fldiv@b+3,w
  6714  0551  00C0               	movwf	___fldiv@rem+3
  6715  0552  0836               	movf	___fldiv@b+2,w
  6716  0553  00BF               	movwf	___fldiv@rem+2
  6717  0554  0835               	movf	___fldiv@b+1,w
  6718  0555  00BE               	movwf	___fldiv@rem+1
  6719  0556  0834               	movf	___fldiv@b,w
  6720  0557  00BD               	movwf	___fldiv@rem
  6721  0558                     l2000:
  6722  0558  3000               	movlw	0
  6723  0559  00B7               	movwf	___fldiv@b+3
  6724  055A  3000               	movlw	0
  6725  055B  00B6               	movwf	___fldiv@b+2
  6726  055C  3000               	movlw	0
  6727  055D  00B5               	movwf	___fldiv@b+1
  6728  055E  3000               	movlw	0
  6729  055F  00B4               	movwf	___fldiv@b
  6730  0560                     l2002:
  6731  0560  3000               	movlw	0
  6732  0561  00C7               	movwf	___fldiv@grs+3
  6733  0562  3000               	movlw	0
  6734  0563  00C6               	movwf	___fldiv@grs+2
  6735  0564  3000               	movlw	0
  6736  0565  00C5               	movwf	___fldiv@grs+1
  6737  0566  3000               	movlw	0
  6738  0567  00C4               	movwf	___fldiv@grs
  6739  0568                     l2004:
  6740  0568  01C9               	clrf	___fldiv@aexp
  6741  0569  2DA8               	goto	l2024
  6742  056A                     l2006:
  6743  056A  0849               	movf	___fldiv@aexp,w
  6744  056B  1903               	btfsc	3,2
  6745  056C  2D6E               	goto	u1811
  6746  056D  2D6F               	goto	u1810
  6747  056E                     u1811:
  6748  056E  2D89               	goto	l2016
  6749  056F                     u1810:
  6750  056F                     l2008:
  6751  056F  3001               	movlw	1
  6752  0570                     u1825:
  6753  0570  35BD               	lslf	___fldiv@rem,f
  6754  0571  0DBE               	rlf	___fldiv@rem+1,f
  6755  0572  0DBF               	rlf	___fldiv@rem+2,f
  6756  0573  0DC0               	rlf	___fldiv@rem+3,f
  6757  0574  0B89               	decfsz	9,f
  6758  0575  2D70               	goto	u1825
  6759  0576  3001               	movlw	1
  6760  0577                     u1835:
  6761  0577  35B4               	lslf	___fldiv@b,f
  6762  0578  0DB5               	rlf	___fldiv@b+1,f
  6763  0579  0DB6               	rlf	___fldiv@b+2,f
  6764  057A  0DB7               	rlf	___fldiv@b+3,f
  6765  057B  0B89               	decfsz	9,f
  6766  057C  2D77               	goto	u1835
  6767  057D                     l2010:
  6768  057D  1FC7               	btfss	___fldiv@grs+3,7
  6769  057E  2D80               	goto	u1841
  6770  057F  2D81               	goto	u1840
  6771  0580                     u1841:
  6772  0580  2D82               	goto	l2014
  6773  0581                     u1840:
  6774  0581                     l2012:
  6775  0581  1434               	bsf	___fldiv@b,0
  6776  0582                     l2014:
  6777  0582  3001               	movlw	1
  6778  0583                     u1855:
  6779  0583  35C4               	lslf	___fldiv@grs,f
  6780  0584  0DC5               	rlf	___fldiv@grs+1,f
  6781  0585  0DC6               	rlf	___fldiv@grs+2,f
  6782  0586  0DC7               	rlf	___fldiv@grs+3,f
  6783  0587  0B89               	decfsz	9,f
  6784  0588  2D83               	goto	u1855
  6785  0589                     l2016:
  6786  0589  0833               	movf	___fldiv@a+3,w
  6787  058A  0240               	subwf	___fldiv@rem+3,w
  6788  058B  1D03               	skipz
  6789  058C  2D97               	goto	u1865
  6790  058D  0832               	movf	___fldiv@a+2,w
  6791  058E  023F               	subwf	___fldiv@rem+2,w
  6792  058F  1D03               	skipz
  6793  0590  2D97               	goto	u1865
  6794  0591  0831               	movf	___fldiv@a+1,w
  6795  0592  023E               	subwf	___fldiv@rem+1,w
  6796  0593  1D03               	skipz
  6797  0594  2D97               	goto	u1865
  6798  0595  0830               	movf	___fldiv@a,w
  6799  0596  023D               	subwf	___fldiv@rem,w
  6800  0597                     u1865:
  6801  0597  1C03               	skipc
  6802  0598  2D9A               	goto	u1861
  6803  0599  2D9B               	goto	u1860
  6804  059A                     u1861:
  6805  059A  2DA4               	goto	l2022
  6806  059B                     u1860:
  6807  059B                     l2018:
  6808  059B  1747               	bsf	___fldiv@grs+3,6
  6809  059C                     l2020:
  6810  059C  0830               	movf	___fldiv@a,w
  6811  059D  02BD               	subwf	___fldiv@rem,f
  6812  059E  0831               	movf	___fldiv@a+1,w
  6813  059F  3BBE               	subwfb	___fldiv@rem+1,f
  6814  05A0  0832               	movf	___fldiv@a+2,w
  6815  05A1  3BBF               	subwfb	___fldiv@rem+2,f
  6816  05A2  0833               	movf	___fldiv@a+3,w
  6817  05A3  3BC0               	subwfb	___fldiv@rem+3,f
  6818  05A4                     l2022:
  6819  05A4  3001               	movlw	1
  6820  05A5  00B8               	movwf	??___fldiv
  6821  05A6  0838               	movf	??___fldiv,w
  6822  05A7  07C9               	addwf	___fldiv@aexp,f
  6823  05A8                     l2024:
  6824  05A8  301A               	movlw	26
  6825  05A9  0249               	subwf	___fldiv@aexp,w
  6826  05AA  1C03               	skipc
  6827  05AB  2DAD               	goto	u1871
  6828  05AC  2DAE               	goto	u1870
  6829  05AD                     u1871:
  6830  05AD  2D6A               	goto	l2006
  6831  05AE                     u1870:
  6832  05AE                     l2026:
  6833  05AE  0840               	movf	___fldiv@rem+3,w
  6834  05AF  043F               	iorwf	___fldiv@rem+2,w
  6835  05B0  043E               	iorwf	___fldiv@rem+1,w
  6836  05B1  043D               	iorwf	___fldiv@rem,w
  6837  05B2  1903               	skipnz
  6838  05B3  2DB5               	goto	u1881
  6839  05B4  2DB6               	goto	u1880
  6840  05B5                     u1881:
  6841  05B5  2DCF               	goto	l2040
  6842  05B6                     u1880:
  6843  05B6                     l2028:
  6844  05B6  1444               	bsf	___fldiv@grs,0
  6845  05B7  2DCF               	goto	l2040
  6846  05B8                     l2030:
  6847  05B8  3001               	movlw	1
  6848  05B9                     u1895:
  6849  05B9  35B4               	lslf	___fldiv@b,f
  6850  05BA  0DB5               	rlf	___fldiv@b+1,f
  6851  05BB  0DB6               	rlf	___fldiv@b+2,f
  6852  05BC  0DB7               	rlf	___fldiv@b+3,f
  6853  05BD  0B89               	decfsz	9,f
  6854  05BE  2DB9               	goto	u1895
  6855  05BF                     l2032:
  6856  05BF  1FC7               	btfss	___fldiv@grs+3,7
  6857  05C0  2DC2               	goto	u1901
  6858  05C1  2DC3               	goto	u1900
  6859  05C2                     u1901:
  6860  05C2  2DC4               	goto	l2036
  6861  05C3                     u1900:
  6862  05C3                     l2034:
  6863  05C3  1434               	bsf	___fldiv@b,0
  6864  05C4                     l2036:
  6865  05C4  3001               	movlw	1
  6866  05C5                     u1915:
  6867  05C5  35C4               	lslf	___fldiv@grs,f
  6868  05C6  0DC5               	rlf	___fldiv@grs+1,f
  6869  05C7  0DC6               	rlf	___fldiv@grs+2,f
  6870  05C8  0DC7               	rlf	___fldiv@grs+3,f
  6871  05C9  0B89               	decfsz	9,f
  6872  05CA  2DC5               	goto	u1915
  6873  05CB                     l2038:
  6874  05CB  30FF               	movlw	255
  6875  05CC  07C2               	addwf	___fldiv@new_exp,f
  6876  05CD  30FF               	movlw	255
  6877  05CE  3DC3               	addwfc	___fldiv@new_exp+1,f
  6878  05CF                     l2040:
  6879  05CF  1FB6               	btfss	___fldiv@b+2,7
  6880  05D0  2DD2               	goto	u1921
  6881  05D1  2DD3               	goto	u1920
  6882  05D2                     u1921:
  6883  05D2  2DB8               	goto	l2030
  6884  05D3                     u1920:
  6885  05D3                     l2042:
  6886  05D3  01C9               	clrf	___fldiv@aexp
  6887  05D4                     l2044:
  6888  05D4  1FC7               	btfss	___fldiv@grs+3,7
  6889  05D5  2DD7               	goto	u1931
  6890  05D6  2DD8               	goto	u1930
  6891  05D7                     u1931:
  6892  05D7  2DF4               	goto	l2052
  6893  05D8                     u1930:
  6894  05D8                     l2046:
  6895  05D8  30FF               	movlw	255
  6896  05D9  0544               	andwf	___fldiv@grs,w
  6897  05DA  00B8               	movwf	??___fldiv
  6898  05DB  30FF               	movlw	255
  6899  05DC  0545               	andwf	___fldiv@grs+1,w
  6900  05DD  00B9               	movwf	??___fldiv+1
  6901  05DE  30FF               	movlw	255
  6902  05DF  0546               	andwf	___fldiv@grs+2,w
  6903  05E0  00BA               	movwf	??___fldiv+2
  6904  05E1  307F               	movlw	127
  6905  05E2  0547               	andwf	___fldiv@grs+3,w
  6906  05E3  00BB               	movwf	??___fldiv+3
  6907  05E4  083B               	movf	??___fldiv+3,w
  6908  05E5  043A               	iorwf	??___fldiv+2,w
  6909  05E6  0439               	iorwf	??___fldiv+1,w
  6910  05E7  0438               	iorwf	??___fldiv,w
  6911  05E8  1903               	skipnz
  6912  05E9  2DEB               	goto	u1941
  6913  05EA  2DEC               	goto	u1940
  6914  05EB                     u1941:
  6915  05EB  2DEF               	goto	l805
  6916  05EC                     u1940:
  6917  05EC                     l2048:
  6918  05EC  01C9               	clrf	___fldiv@aexp
  6919  05ED  0AC9               	incf	___fldiv@aexp,f
  6920  05EE  2DF4               	goto	l2052
  6921  05EF                     l805:
  6922  05EF  1C34               	btfss	___fldiv@b,0
  6923  05F0  2DF2               	goto	u1951
  6924  05F1  2DF3               	goto	u1950
  6925  05F2                     u1951:
  6926  05F2  2DF4               	goto	l2052
  6927  05F3                     u1950:
  6928  05F3  2DEC               	goto	l2048
  6929  05F4                     l2052:
  6930  05F4  0849               	movf	___fldiv@aexp,w
  6931  05F5  1903               	btfsc	3,2
  6932  05F6  2DF8               	goto	u1961
  6933  05F7  2DF9               	goto	u1960
  6934  05F8                     u1961:
  6935  05F8  2E21               	goto	l2062
  6936  05F9                     u1960:
  6937  05F9                     l2054:
  6938  05F9  3001               	movlw	1
  6939  05FA  07B4               	addwf	___fldiv@b,f
  6940  05FB  3000               	movlw	0
  6941  05FC  3DB5               	addwfc	___fldiv@b+1,f
  6942  05FD  3000               	movlw	0
  6943  05FE  3DB6               	addwfc	___fldiv@b+2,f
  6944  05FF  3000               	movlw	0
  6945  0600  3DB7               	addwfc	___fldiv@b+3,f
  6946  0601                     l2056:
  6947  0601  1C37               	btfss	___fldiv@b+3,0
  6948  0602  2E04               	goto	u1971
  6949  0603  2E05               	goto	u1970
  6950  0604                     u1971:
  6951  0604  2E21               	goto	l2062
  6952  0605                     u1970:
  6953  0605                     l2058:
  6954  0605  0834               	movf	___fldiv@b,w
  6955  0606  00B8               	movwf	??___fldiv
  6956  0607  0835               	movf	___fldiv@b+1,w
  6957  0608  00B9               	movwf	??___fldiv+1
  6958  0609  0836               	movf	___fldiv@b+2,w
  6959  060A  00BA               	movwf	??___fldiv+2
  6960  060B  0837               	movf	___fldiv@b+3,w
  6961  060C  00BB               	movwf	??___fldiv+3
  6962  060D  3001               	movlw	1
  6963  060E  00BC               	movwf	??___fldiv+4
  6964  060F                     u1985:
  6965  060F  37BB               	asrf	??___fldiv+3,f
  6966  0610  0CBA               	rrf	??___fldiv+2,f
  6967  0611  0CB9               	rrf	??___fldiv+1,f
  6968  0612  0CB8               	rrf	??___fldiv,f
  6969  0613                     u1980:
  6970  0613  0BBC               	decfsz	??___fldiv+4,f
  6971  0614  2E0F               	goto	u1985
  6972  0615  083B               	movf	??___fldiv+3,w
  6973  0616  00B7               	movwf	___fldiv@b+3
  6974  0617  083A               	movf	??___fldiv+2,w
  6975  0618  00B6               	movwf	___fldiv@b+2
  6976  0619  0839               	movf	??___fldiv+1,w
  6977  061A  00B5               	movwf	___fldiv@b+1
  6978  061B  0838               	movf	??___fldiv,w
  6979  061C  00B4               	movwf	___fldiv@b
  6980  061D                     l2060:
  6981  061D  3001               	movlw	1
  6982  061E  07C2               	addwf	___fldiv@new_exp,f
  6983  061F  3000               	movlw	0
  6984  0620  3DC3               	addwfc	___fldiv@new_exp+1,f
  6985  0621                     l2062:
  6986  0621  0843               	movf	___fldiv@new_exp+1,w
  6987  0622  3A80               	xorlw	128
  6988  0623  00B8               	movwf	??___fldiv
  6989  0624  3080               	movlw	128
  6990  0625  0238               	subwf	??___fldiv,w
  6991  0626  1D03               	skipz
  6992  0627  2E2A               	goto	u1995
  6993  0628  30FF               	movlw	255
  6994  0629  0242               	subwf	___fldiv@new_exp,w
  6995  062A                     u1995:
  6996  062A  1C03               	skipc
  6997  062B  2E2D               	goto	u1991
  6998  062C  2E2E               	goto	u1990
  6999  062D                     u1991:
  7000  062D  2E3B               	goto	l810
  7001  062E                     u1990:
  7002  062E                     l2064:
  7003  062E  30FF               	movlw	255
  7004  062F  0020               	movlb	0	; select bank0
  7005  0630  00C2               	movwf	___fldiv@new_exp
  7006  0631  3000               	movlw	0
  7007  0632  00C3               	movwf	___fldiv@new_exp+1
  7008  0633  3000               	movlw	0
  7009  0634  00B7               	movwf	___fldiv@b+3
  7010  0635  3000               	movlw	0
  7011  0636  00B6               	movwf	___fldiv@b+2
  7012  0637  3000               	movlw	0
  7013  0638  00B5               	movwf	___fldiv@b+1
  7014  0639  3000               	movlw	0
  7015  063A  00B4               	movwf	___fldiv@b
  7016  063B                     l810:
  7017  063B  0020               	movlb	0	; select bank0
  7018  063C  0843               	movf	___fldiv@new_exp+1,w
  7019  063D  3A80               	xorlw	128
  7020  063E  00B8               	movwf	??___fldiv
  7021  063F  3080               	movlw	128
  7022  0640  0238               	subwf	??___fldiv,w
  7023  0641  1D03               	skipz
  7024  0642  2E45               	goto	u2005
  7025  0643  3001               	movlw	1
  7026  0644  0242               	subwf	___fldiv@new_exp,w
  7027  0645                     u2005:
  7028  0645  1803               	skipnc
  7029  0646  2E48               	goto	u2001
  7030  0647  2E49               	goto	u2000
  7031  0648                     u2001:
  7032  0648  2E55               	goto	l811
  7033  0649                     u2000:
  7034  0649                     l2066:
  7035  0649  0020               	movlb	0	; select bank0
  7036  064A  01C2               	clrf	___fldiv@new_exp
  7037  064B  01C3               	clrf	___fldiv@new_exp+1
  7038  064C                     l2068:
  7039  064C  3000               	movlw	0
  7040  064D  00B7               	movwf	___fldiv@b+3
  7041  064E  3000               	movlw	0
  7042  064F  00B6               	movwf	___fldiv@b+2
  7043  0650  3000               	movlw	0
  7044  0651  00B5               	movwf	___fldiv@b+1
  7045  0652  3000               	movlw	0
  7046  0653  00B4               	movwf	___fldiv@b
  7047  0654                     l2070:
  7048  0654  01C1               	clrf	___fldiv@sign
  7049  0655                     l811:
  7050  0655  0020               	movlb	0	; select bank0
  7051  0656  0842               	movf	___fldiv@new_exp,w
  7052  0657  00B8               	movwf	??___fldiv
  7053  0658  0838               	movf	??___fldiv,w
  7054  0659  00C8               	movwf	___fldiv@bexp
  7055  065A                     l2072:
  7056  065A  1C48               	btfss	___fldiv@bexp,0
  7057  065B  2E5D               	goto	u2011
  7058  065C  2E5E               	goto	u2010
  7059  065D                     u2011:
  7060  065D  2E60               	goto	l2076
  7061  065E                     u2010:
  7062  065E                     l2074:
  7063  065E  17B6               	bsf	___fldiv@b+2,7
  7064  065F  2E64               	goto	l813
  7065  0660                     l2076:
  7066  0660  307F               	movlw	127
  7067  0661  00B8               	movwf	??___fldiv
  7068  0662  0838               	movf	??___fldiv,w
  7069  0663  05B6               	andwf	___fldiv@b+2,f
  7070  0664                     l813:
  7071  0664  3648               	lsrf	___fldiv@bexp,w
  7072  0665  00B8               	movwf	??___fldiv
  7073  0666  0838               	movf	??___fldiv,w
  7074  0667  00B7               	movwf	___fldiv@b+3
  7075  0668  0841               	movf	___fldiv@sign,w
  7076  0669  00B8               	movwf	??___fldiv
  7077  066A  0838               	movf	??___fldiv,w
  7078  066B  04B7               	iorwf	___fldiv@b+3,f
  7079  066C  2D29               	goto	l1986
  7080  066D                     l791:
  7081  066D  0008               	return
  7082  066E                     __end_of___fldiv:
  7083                           
  7084                           	psect	text35
  7085  0B1A                     __ptext35:	
  7086 ;; *************** function _KeepDistance *****************
  7087 ;; Defined at:
  7088 ;;		line 75 in file "02-SRC/02-APPLICATION/Appl.c"
  7089 ;; Parameters:    Size  Location     Type
  7090 ;;  amount          1    wreg     unsigned char 
  7091 ;; Auto vars:     Size  Location     Type
  7092 ;;  amount          1    5[BANK0 ] unsigned char 
  7093 ;;  diff            2    3[BANK0 ] short 
  7094 ;;  retVal          1    6[BANK0 ] unsigned char 
  7095 ;; Return value:  Size  Location     Type
  7096 ;;                  1    wreg      unsigned char 
  7097 ;; Registers used:
  7098 ;;		wreg, status,2, status,0
  7099 ;; Tracked objects:
  7100 ;;		On entry : 0/0
  7101 ;;		On exit  : 0/0
  7102 ;;		Unchanged: 0/0
  7103 ;; Data sizes:     COMMON   BANK0   BANK1   BANK2   BANK3   BANK4   BANK5   BANK6
  7104 ;;      Params:         0       0       0       0       0       0       0       0
  7105 ;;      Locals:         0       4       0       0       0       0       0       0
  7106 ;;      Temps:          0       1       0       0       0       0       0       0
  7107 ;;      Totals:         0       5       0       0       0       0       0       0
  7108 ;;Total ram usage:        5 bytes
  7109 ;; Hardware stack levels used:    1
  7110 ;; Hardware stack levels required when called:    4
  7111 ;; This function calls:
  7112 ;;		Nothing
  7113 ;; This function is called by:
  7114 ;;		_APPL_TASK_10MS
  7115 ;; This function uses a non-reentrant model
  7116 ;;
  7117                           
  7118                           
  7119                           ;psect for function _KeepDistance
  7120  0B1A                     _KeepDistance:
  7121                           
  7122                           ;incstack = 0
  7123                           ; Regs used in _KeepDistance: [wreg+status,2+status,0]
  7124                           ;KeepDistance@amount stored from wreg
  7125  0B1A  0020               	movlb	0	; select bank0
  7126  0B1B  00A5               	movwf	KeepDistance@amount
  7127  0B1C                     l2368:
  7128  0B1C  01A6               	clrf	KeepDistance@retVal
  7129  0B1D  0AA6               	incf	KeepDistance@retVal,f
  7130  0B1E                     l2370:
  7131  0B1E  0868               	movf	_MyQueue+1,w
  7132  0B1F  3A80               	xorlw	128
  7133  0B20  00A2               	movwf	??_KeepDistance
  7134  0B21  086A               	movf	_MyQueue+3,w
  7135  0B22  3A80               	xorlw	128
  7136  0B23  0222               	subwf	??_KeepDistance,w
  7137  0B24  1D03               	skipz
  7138  0B25  2B28               	goto	u2545
  7139  0B26  0869               	movf	_MyQueue+2,w
  7140  0B27  0267               	subwf	_MyQueue,w
  7141  0B28                     u2545:
  7142  0B28  1803               	skipnc
  7143  0B29  2B2B               	goto	u2541
  7144  0B2A  2B2C               	goto	u2540
  7145  0B2B                     u2541:
  7146  0B2B  2B40               	goto	l2378
  7147  0B2C                     u2540:
  7148  0B2C                     l2372:
  7149  0B2C  0020               	movlb	0	; select bank0
  7150  0B2D  0867               	movf	_MyQueue,w
  7151  0B2E  0269               	subwf	_MyQueue+2,w
  7152  0B2F  00A3               	movwf	KeepDistance@diff
  7153  0B30  0868               	movf	_MyQueue+1,w
  7154  0B31  3B6A               	subwfb	_MyQueue+3,w
  7155  0B32  00A4               	movwf	KeepDistance@diff+1
  7156  0B33                     l2374:
  7157  0B33  0824               	movf	KeepDistance@diff+1,w
  7158  0B34  3A80               	xorlw	128
  7159  0B35  3C80               	sublw	128
  7160  0B36  1D03               	skipz
  7161  0B37  2B3A               	goto	u2555
  7162  0B38  0823               	movf	KeepDistance@diff,w
  7163  0B39  0225               	subwf	KeepDistance@amount,w
  7164  0B3A                     u2555:
  7165  0B3A  1803               	skipnc
  7166  0B3B  2B3D               	goto	u2551
  7167  0B3C  2B3E               	goto	u2550
  7168  0B3D                     u2551:
  7169  0B3D  2B40               	goto	l2378
  7170  0B3E                     u2550:
  7171  0B3E                     l2376:
  7172  0B3E  0020               	movlb	0	; select bank0
  7173  0B3F  01A6               	clrf	KeepDistance@retVal
  7174  0B40                     l2378:
  7175  0B40  0020               	movlb	0	; select bank0
  7176  0B41  0826               	movf	KeepDistance@retVal,w
  7177  0B42                     l89:
  7178  0B42  0008               	return
  7179  0B43                     __end_of_KeepDistance:
  7180                           
  7181                           	psect	intentry
  7182  0004                     __pintentry:	
  7183 ;; *************** function _ISR *****************
  7184 ;; Defined at:
  7185 ;;		line 71 in file "02-SRC/04-DRIVER/target.c"
  7186 ;; Parameters:    Size  Location     Type
  7187 ;;		None
  7188 ;; Auto vars:     Size  Location     Type
  7189 ;;		None
  7190 ;; Return value:  Size  Location     Type
  7191 ;;                  1    wreg      void 
  7192 ;; Registers used:
  7193 ;;		wreg, fsr1l, fsr1h, status,2, status,0, pclath, cstack
  7194 ;; Tracked objects:
  7195 ;;		On entry : 0/0
  7196 ;;		On exit  : 0/0
  7197 ;;		Unchanged: 0/0
  7198 ;; Data sizes:     COMMON   BANK0   BANK1   BANK2   BANK3   BANK4   BANK5   BANK6
  7199 ;;      Params:         0       0       0       0       0       0       0       0
  7200 ;;      Locals:         0       0       0       0       0       0       0       0
  7201 ;;      Temps:          1       0       0       0       0       0       0       0
  7202 ;;      Totals:         1       0       0       0       0       0       0       0
  7203 ;;Total ram usage:        1 bytes
  7204 ;; Hardware stack levels used:    1
  7205 ;; Hardware stack levels required when called:    3
  7206 ;; This function calls:
  7207 ;;		_ClickLed
  7208 ;;		_NRF_Available
  7209 ;;		_NRF_ReadPayload
  7210 ;;		i1_NRF_Write_Register
  7211 ;; This function is called by:
  7212 ;;		Interrupt level 1
  7213 ;; This function uses a non-reentrant model
  7214 ;;
  7215                           
  7216  0004                     _ISR:
  7217                           
  7218                           ;incstack = 0
  7219  0004  147E               	bsf	int$flags,0	;set compiler interrupt flag (level 1)
  7220                           
  7221                           ; Regs used in _ISR: [wreg+fsr1l+fsr1h+status,2+status,0+pclath+cstack]
  7222  0005  3180               	pagesel	$
  7223  0006                     i1l2976:
  7224  0006  1D0B               	btfss	11,2	;volatile
  7225  0007  2809               	goto	u308_21
  7226  0008  280A               	goto	u308_20
  7227  0009                     u308_21:
  7228  0009  2814               	goto	i1l360
  7229  000A                     u308_20:
  7230  000A                     i1l2978:
  7231  000A  3005               	movlw	5
  7232  000B  0020               	movlb	0	; select bank0
  7233  000C  0095               	movwf	21	;volatile
  7234  000D  3001               	movlw	1
  7235  000E  0021               	movlb	1	; select bank1
  7236  000F  07A4               	addwf	_Tick_1ms^(0+128),f
  7237  0010  3000               	movlw	0
  7238  0011  3DA5               	addwfc	(_Tick_1ms+1)^(0+128),f
  7239  0012                     i1l2980:
  7240  0012  110B               	bcf	11,2	;volatile
  7241  0013  283D               	goto	i1l364
  7242  0014                     i1l360:
  7243  0014  1C0B               	btfss	11,0	;volatile
  7244  0015  2817               	goto	u309_21
  7245  0016  2818               	goto	u309_20
  7246  0017                     u309_21:
  7247  0017  283D               	goto	i1l364
  7248  0018                     u309_20:
  7249  0018                     i1l2982:
  7250  0018  3064               	movlw	100
  7251  0019  00F0               	movwf	ClickLed@DurationMs
  7252  001A  3000               	movlw	0
  7253  001B  00F1               	movwf	ClickLed@DurationMs+1
  7254  001C  3189  214D  3180   	fcall	_ClickLed
  7255  001F  3000               	movlw	0
  7256  0020  3189  219E  3180   	fcall	_NRF_Available
  7257  0023  3A00               	xorlw	0
  7258  0024  1903               	skipnz
  7259  0025  2827               	goto	u310_21
  7260  0026  2828               	goto	u310_20
  7261  0027                     u310_21:
  7262  0027  2830               	goto	i1l363
  7263  0028                     u310_20:
  7264  0028                     i1l2984:
  7265  0028  3008               	movlw	8
  7266  0029  00FB               	movwf	??_ISR
  7267  002A  087B               	movf	??_ISR,w
  7268  002B  00F7               	movwf	NRF_ReadPayload@PayloadLength
  7269  002C  30D9               	movlw	(low (_NRF_Payload| 0))& (0+255)
  7270  002D  318D  2533  3180   	fcall	_NRF_ReadPayload
  7271  0030                     i1l363:
  7272  0030  3070               	movlw	112
  7273  0031  00F1               	movwf	i1NRF_Write_Register@Bytes
  7274  0032  3000               	movlw	0
  7275  0033  00F2               	movwf	i1NRF_Write_Register@Bytes+1
  7276  0034  01F3               	clrf	i1NRF_Write_Register@Length
  7277  0035  0AF3               	incf	i1NRF_Write_Register@Length,f
  7278  0036  3007               	movlw	7
  7279  0037  318A  22F1  3180   	fcall	i1_NRF_Write_Register
  7280  003A                     i1l2986:
  7281  003A  0027               	movlb	7	; select bank7
  7282  003B  0193               	clrf	19	;volatile
  7283  003C                     i1l2988:
  7284  003C  100B               	bcf	11,0	;volatile
  7285  003D                     i1l364:
  7286  003D  107E               	bcf	int$flags,0	;clear compiler interrupt flag (level 1)
  7287  003E  0009               	retfie
  7288  003F                     __end_of_ISR:
  7289                           
  7290                           	psect	text37
  7291  0D33                     __ptext37:	
  7292 ;; *************** function _NRF_ReadPayload *****************
  7293 ;; Defined at:
  7294 ;;		line 173 in file "02-SRC/04-DRIVER/NRF24L01/NRF24L01.c"
  7295 ;; Parameters:    Size  Location     Type
  7296 ;;  Payload         1    wreg     PTR unsigned char 
  7297 ;;		 -> NRF_Payload(8), 
  7298 ;;  PayloadLengt    1    7[COMMON] unsigned char 
  7299 ;; Auto vars:     Size  Location     Type
  7300 ;;  Payload         1    0[BANK0 ] PTR unsigned char 
  7301 ;;		 -> NRF_Payload(8), 
  7302 ;;  i               1    1[BANK0 ] unsigned char 
  7303 ;; Return value:  Size  Location     Type
  7304 ;;                  1    wreg      void 
  7305 ;; Registers used:
  7306 ;;		wreg, fsr1l, fsr1h, status,2, status,0, pclath, cstack
  7307 ;; Tracked objects:
  7308 ;;		On entry : 0/0
  7309 ;;		On exit  : 0/0
  7310 ;;		Unchanged: 0/0
  7311 ;; Data sizes:     COMMON   BANK0   BANK1   BANK2   BANK3   BANK4   BANK5   BANK6
  7312 ;;      Params:         1       0       0       0       0       0       0       0
  7313 ;;      Locals:         0       2       0       0       0       0       0       0
  7314 ;;      Temps:          3       0       0       0       0       0       0       0
  7315 ;;      Totals:         4       2       0       0       0       0       0       0
  7316 ;;Total ram usage:        6 bytes
  7317 ;; Hardware stack levels used:    1
  7318 ;; Hardware stack levels required when called:    2
  7319 ;; This function calls:
  7320 ;;		Absolute function
  7321 ;;		i1_NRF_Write_Register
  7322 ;;		i1_SPI_Exchange
  7323 ;; This function is called by:
  7324 ;;		_ISR
  7325 ;; This function uses a non-reentrant model
  7326 ;;
  7327                           
  7328                           
  7329                           ;psect for function _NRF_ReadPayload
  7330  0D33                     _NRF_ReadPayload:
  7331                           
  7332                           ;incstack = 0
  7333                           ; Regs used in _NRF_ReadPayload: [wreg+fsr1l+fsr1h+status,2+status,0+pclath+cstack]
  7334                           ;NRF_ReadPayload@Payload stored from wreg
  7335  0D33  0020               	movlb	0	; select bank0
  7336  0D34  00A0               	movwf	NRF_ReadPayload@Payload
  7337  0D35                     i1l2878:
  7338  0D35  0022               	movlb	2	; select bank2
  7339  0D36  108E               	bcf	14,1	;volatile
  7340  0D37                     i1l2880:
  7341  0D37  3061               	movlw	97
  7342  0D38  00F8               	movwf	??_NRF_ReadPayload
  7343  0D39  0878               	movf	??_NRF_ReadPayload,w
  7344  0D3A  00F0               	movwf	i1SPI_Exchange@Data
  7345  0D3B  087D               	movf	_p_NRF_SPI_Exchange+1,w
  7346  0D3C  008A               	movwf	10
  7347  0D3D  087C               	movf	_p_NRF_SPI_Exchange,w
  7348  0D3E  000A               	callw
  7349  0D3F  318D               	pagesel	$
  7350  0D40  00F9               	movwf	??_NRF_ReadPayload+1
  7351  0D41  0879               	movf	??_NRF_ReadPayload+1,w
  7352  0D42  0021               	movlb	1	; select bank1
  7353  0D43  00D0               	movwf	(_NRFChip^(0+128)+5)
  7354  0D44                     i1l2882:
  7355  0D44  0020               	movlb	0	; select bank0
  7356  0D45  01A1               	clrf	NRF_ReadPayload@i
  7357  0D46  2D5E               	goto	i1l2888
  7358  0D47                     i1l2884:
  7359  0D47  30FF               	movlw	255
  7360  0D48  00F8               	movwf	??_NRF_ReadPayload
  7361  0D49  0878               	movf	??_NRF_ReadPayload,w
  7362  0D4A  00F0               	movwf	i1SPI_Exchange@Data
  7363  0D4B  087D               	movf	_p_NRF_SPI_Exchange+1,w
  7364  0D4C  008A               	movwf	10
  7365  0D4D  087C               	movf	_p_NRF_SPI_Exchange,w
  7366  0D4E  000A               	callw
  7367  0D4F  318D               	pagesel	$
  7368  0D50  00F9               	movwf	??_NRF_ReadPayload+1
  7369  0D51  0020               	movlb	0	; select bank0
  7370  0D52  0821               	movf	NRF_ReadPayload@i,w
  7371  0D53  0720               	addwf	NRF_ReadPayload@Payload,w
  7372  0D54  00FA               	movwf	??_NRF_ReadPayload+2
  7373  0D55  087A               	movf	??_NRF_ReadPayload+2,w
  7374  0D56  0086               	movwf	6
  7375  0D57  0187               	clrf	7
  7376  0D58  0879               	movf	??_NRF_ReadPayload+1,w
  7377  0D59  0081               	movwf	1
  7378  0D5A                     i1l2886:
  7379  0D5A  3001               	movlw	1
  7380  0D5B  00F8               	movwf	??_NRF_ReadPayload
  7381  0D5C  0878               	movf	??_NRF_ReadPayload,w
  7382  0D5D  07A1               	addwf	NRF_ReadPayload@i,f
  7383  0D5E                     i1l2888:
  7384  0D5E  0877               	movf	NRF_ReadPayload@PayloadLength,w
  7385  0D5F  0221               	subwf	NRF_ReadPayload@i,w
  7386  0D60  1C03               	skipc
  7387  0D61  2D63               	goto	u299_21
  7388  0D62  2D64               	goto	u299_20
  7389  0D63                     u299_21:
  7390  0D63  2D47               	goto	i1l2884
  7391  0D64                     u299_20:
  7392  0D64                     i1l240:
  7393  0D64  0022               	movlb	2	; select bank2
  7394  0D65  148E               	bsf	14,1	;volatile
  7395  0D66  0021               	movlb	1	; select bank1
  7396  0D67  1750               	bsf	(_NRFChip^(0+128)+5),6
  7397  0D68                     i1l2890:
  7398  0D68  30D0               	movlw	low (_NRFChip+5)
  7399  0D69  00F1               	movwf	i1NRF_Write_Register@Bytes
  7400  0D6A  3000               	movlw	high (_NRFChip+5)
  7401  0D6B  00F2               	movwf	i1NRF_Write_Register@Bytes+1
  7402  0D6C  01F3               	clrf	i1NRF_Write_Register@Length
  7403  0D6D  0AF3               	incf	i1NRF_Write_Register@Length,f
  7404  0D6E  3007               	movlw	7
  7405  0D6F  318A  22F1  318D   	fcall	i1_NRF_Write_Register
  7406  0D72                     i1l241:
  7407  0D72  0008               	return
  7408  0D73                     __end_of_NRF_ReadPayload:
  7409                           
  7410                           	psect	text38
  7411  0AF1                     __ptext38:	
  7412 ;; *************** function i1_NRF_Write_Register *****************
  7413 ;; Defined at:
  7414 ;;		line 202 in file "02-SRC/04-DRIVER/NRF24L01/NRF24L01.c"
  7415 ;; Parameters:    Size  Location     Type
  7416 ;;  Register        1    wreg     unsigned char 
  7417 ;;  Bytes           2    1[COMMON] PTR unsigned char 
  7418 ;;		 -> NRF_PipeDisableAA@AA(1), NRF_PipeEnableAA@AA(1), NRF_PipeDisable@EN(1), NRF_PipeEnable@EN(1), 
  7419 ;;		 -> NRFChip.STATUS(1), NFR_RxPipes(36), NRFChip(14), RAM(4096), 
  7420 ;;  Length          1    3[COMMON] unsigned char 
  7421 ;; Auto vars:     Size  Location     Type
  7422 ;;  Register        1    6[COMMON] unsigned char 
  7423 ;;  Status          1    0        unsigned char 
  7424 ;; Return value:  Size  Location     Type
  7425 ;;                  1    wreg      unsigned char 
  7426 ;; Registers used:
  7427 ;;		wreg, fsr1l, fsr1h, status,2, status,0, pclath, cstack
  7428 ;; Tracked objects:
  7429 ;;		On entry : 0/0
  7430 ;;		On exit  : 0/0
  7431 ;;		Unchanged: 0/0
  7432 ;; Data sizes:     COMMON   BANK0   BANK1   BANK2   BANK3   BANK4   BANK5   BANK6
  7433 ;;      Params:         3       0       0       0       0       0       0       0
  7434 ;;      Locals:         2       0       0       0       0       0       0       0
  7435 ;;      Temps:          1       0       0       0       0       0       0       0
  7436 ;;      Totals:         6       0       0       0       0       0       0       0
  7437 ;;Total ram usage:        6 bytes
  7438 ;; Hardware stack levels used:    1
  7439 ;; Hardware stack levels required when called:    1
  7440 ;; This function calls:
  7441 ;;		Absolute function
  7442 ;;		i1_SPI_Exchange
  7443 ;; This function is called by:
  7444 ;;		_NRF_ReadPayload
  7445 ;;		_ISR
  7446 ;; This function uses a non-reentrant model
  7447 ;;
  7448                           
  7449                           
  7450                           ;psect for function i1_NRF_Write_Register
  7451  0AF1                     i1_NRF_Write_Register:
  7452                           
  7453                           ;incstack = 0
  7454                           ; Regs used in i1_NRF_Write_Register: [wreg+fsr1l+fsr1h+status,2+status,0+pclath+cstack]
  7455                           ;i1NRF_Write_Register@Register stored from wreg
  7456  0AF1  00F6               	movwf	i1NRF_Write_Register@Register
  7457  0AF2                     i1l2816:
  7458  0AF2                     i1l2818:
  7459  0AF2  0022               	movlb	2	; select bank2
  7460  0AF3  108E               	bcf	14,1	;volatile
  7461  0AF4                     i1l2820:
  7462  0AF4  0876               	movf	i1NRF_Write_Register@Register,w
  7463  0AF5  3820               	iorlw	32
  7464  0AF6  00F4               	movwf	??i1_NRF_Write_Register
  7465  0AF7  0874               	movf	??i1_NRF_Write_Register,w
  7466  0AF8  00F0               	movwf	i1SPI_Exchange@Data
  7467  0AF9  087D               	movf	_p_NRF_SPI_Exchange+1,w
  7468  0AFA  008A               	movwf	10
  7469  0AFB  087C               	movf	_p_NRF_SPI_Exchange,w
  7470  0AFC  000A               	callw
  7471  0AFD  318A               	pagesel	$
  7472  0AFE  2B10               	goto	i1l2826
  7473  0AFF                     i1l2822:
  7474  0AFF  0871               	movf	i1NRF_Write_Register@Bytes,w
  7475  0B00  0086               	movwf	6
  7476  0B01  0872               	movf	i1NRF_Write_Register@Bytes+1,w
  7477  0B02  0087               	movwf	7
  7478  0B03  0801               	movf	1,w
  7479  0B04  00F4               	movwf	??i1_NRF_Write_Register
  7480  0B05  0874               	movf	??i1_NRF_Write_Register,w
  7481  0B06  00F0               	movwf	i1SPI_Exchange@Data
  7482  0B07  087D               	movf	_p_NRF_SPI_Exchange+1,w
  7483  0B08  008A               	movwf	10
  7484  0B09  087C               	movf	_p_NRF_SPI_Exchange,w
  7485  0B0A  000A               	callw
  7486  0B0B  318A               	pagesel	$
  7487  0B0C                     i1l2824:
  7488  0B0C  3001               	movlw	1
  7489  0B0D  07F1               	addwf	i1NRF_Write_Register@Bytes,f
  7490  0B0E  3000               	movlw	0
  7491  0B0F  3DF2               	addwfc	i1NRF_Write_Register@Bytes+1,f
  7492  0B10                     i1l2826:
  7493  0B10  3001               	movlw	1
  7494  0B11  02F3               	subwf	i1NRF_Write_Register@Length,f
  7495  0B12  0A73               	incf	i1NRF_Write_Register@Length,w
  7496  0B13  1D03               	btfss	3,2
  7497  0B14  2B16               	goto	u295_21
  7498  0B15  2B17               	goto	u295_20
  7499  0B16                     u295_21:
  7500  0B16  2AFF               	goto	i1l2822
  7501  0B17                     u295_20:
  7502  0B17                     i1l252:
  7503  0B17  0022               	movlb	2	; select bank2
  7504  0B18  148E               	bsf	14,1	;volatile
  7505  0B19                     i1l253:	
  7506                           ;	Return value of i1_NRF_Write_Register is never used
  7507                           
  7508  0B19  0008               	return
  7509  0B1A                     __end_ofi1_NRF_Write_Register:
  7510                           
  7511                           	psect	text39
  7512  099E                     __ptext39:	
  7513 ;; *************** function _NRF_Available *****************
  7514 ;; Defined at:
  7515 ;;		line 146 in file "02-SRC/04-DRIVER/NRF24L01/NRF24L01.c"
  7516 ;; Parameters:    Size  Location     Type
  7517 ;;  PipeNo          1    wreg     unsigned char 
  7518 ;; Auto vars:     Size  Location     Type
  7519 ;;  PipeNo          1    3[COMMON] unsigned char 
  7520 ;;  IsAvailable     1    4[COMMON] unsigned char 
  7521 ;; Return value:  Size  Location     Type
  7522 ;;                  1    wreg      unsigned char 
  7523 ;; Registers used:
  7524 ;;		wreg, status,2, status,0, pclath, cstack
  7525 ;; Tracked objects:
  7526 ;;		On entry : 0/0
  7527 ;;		On exit  : 0/0
  7528 ;;		Unchanged: 0/0
  7529 ;; Data sizes:     COMMON   BANK0   BANK1   BANK2   BANK3   BANK4   BANK5   BANK6
  7530 ;;      Params:         0       0       0       0       0       0       0       0
  7531 ;;      Locals:         2       0       0       0       0       0       0       0
  7532 ;;      Temps:          0       0       0       0       0       0       0       0
  7533 ;;      Totals:         2       0       0       0       0       0       0       0
  7534 ;;Total ram usage:        2 bytes
  7535 ;; Hardware stack levels used:    1
  7536 ;; Hardware stack levels required when called:    2
  7537 ;; This function calls:
  7538 ;;		_NRF_GetStatus
  7539 ;; This function is called by:
  7540 ;;		_ISR
  7541 ;; This function uses a non-reentrant model
  7542 ;;
  7543                           
  7544                           
  7545                           ;psect for function _NRF_Available
  7546  099E                     _NRF_Available:
  7547                           
  7548                           ;incstack = 0
  7549                           ; Regs used in _NRF_Available: [wreg+status,2+status,0+pclath+cstack]
  7550                           ;NRF_Available@PipeNo stored from wreg
  7551  099E  00F3               	movwf	NRF_Available@PipeNo
  7552  099F                     i1l2864:
  7553  099F  01F4               	clrf	NRF_Available@IsAvailable
  7554  09A0                     i1l2866:
  7555  09A0  3187  27EE  3189   	fcall	_NRF_GetStatus
  7556  09A3                     i1l2868:
  7557  09A3  0021               	movlb	1	; select bank1
  7558  09A4  0C50               	rrf	(_NRFChip^(0+128)+5),w
  7559  09A5  3907               	andlw	7
  7560  09A6  0673               	xorwf	NRF_Available@PipeNo,w
  7561  09A7  1D03               	skipz
  7562  09A8  29AA               	goto	u297_21
  7563  09A9  29AB               	goto	u297_20
  7564  09AA                     u297_21:
  7565  09AA  29B1               	goto	i1l2874
  7566  09AB                     u297_20:
  7567  09AB                     i1l2870:
  7568  09AB  1F50               	btfss	(_NRFChip^(0+128)+5),6
  7569  09AC  29AE               	goto	u298_21
  7570  09AD  29AF               	goto	u298_20
  7571  09AE                     u298_21:
  7572  09AE  29B1               	goto	i1l2874
  7573  09AF                     u298_20:
  7574  09AF                     i1l2872:
  7575  09AF  01F4               	clrf	NRF_Available@IsAvailable
  7576  09B0  0AF4               	incf	NRF_Available@IsAvailable,f
  7577  09B1                     i1l2874:
  7578  09B1  0874               	movf	NRF_Available@IsAvailable,w
  7579  09B2                     i1l229:
  7580  09B2  0008               	return
  7581  09B3                     __end_of_NRF_Available:
  7582                           
  7583                           	psect	text40
  7584  07EE                     __ptext40:	
  7585 ;; *************** function _NRF_GetStatus *****************
  7586 ;; Defined at:
  7587 ;;		line 157 in file "02-SRC/04-DRIVER/NRF24L01/NRF24L01.c"
  7588 ;; Parameters:    Size  Location     Type
  7589 ;;		None
  7590 ;; Auto vars:     Size  Location     Type
  7591 ;;		None
  7592 ;; Return value:  Size  Location     Type
  7593 ;;                  1    wreg      unsigned char 
  7594 ;; Registers used:
  7595 ;;		wreg, pclath, cstack
  7596 ;; Tracked objects:
  7597 ;;		On entry : 0/0
  7598 ;;		On exit  : 0/0
  7599 ;;		Unchanged: 0/0
  7600 ;; Data sizes:     COMMON   BANK0   BANK1   BANK2   BANK3   BANK4   BANK5   BANK6
  7601 ;;      Params:         0       0       0       0       0       0       0       0
  7602 ;;      Locals:         0       0       0       0       0       0       0       0
  7603 ;;      Temps:          2       0       0       0       0       0       0       0
  7604 ;;      Totals:         2       0       0       0       0       0       0       0
  7605 ;;Total ram usage:        2 bytes
  7606 ;; Hardware stack levels used:    1
  7607 ;; Hardware stack levels required when called:    1
  7608 ;; This function calls:
  7609 ;;		Absolute function
  7610 ;;		i1_SPI_Exchange
  7611 ;; This function is called by:
  7612 ;;		_NRF_Available
  7613 ;; This function uses a non-reentrant model
  7614 ;;
  7615                           
  7616                           
  7617                           ;psect for function _NRF_GetStatus
  7618  07EE                     _NRF_GetStatus:
  7619  07EE                     i1l2808:	
  7620                           ;incstack = 0
  7621                           ; Regs used in _NRF_GetStatus: [wreg+pclath+cstack]
  7622                           
  7623  07EE  0022               	movlb	2	; select bank2
  7624  07EF  108E               	bcf	14,1	;volatile
  7625  07F0                     i1l2810:
  7626  07F0  30FF               	movlw	255
  7627  07F1  00F1               	movwf	??_NRF_GetStatus
  7628  07F2  0871               	movf	??_NRF_GetStatus,w
  7629  07F3  00F0               	movwf	i1SPI_Exchange@Data
  7630  07F4  087D               	movf	_p_NRF_SPI_Exchange+1,w
  7631  07F5  008A               	movwf	10
  7632  07F6  087C               	movf	_p_NRF_SPI_Exchange,w
  7633  07F7  000A               	callw
  7634  07F8  3187               	pagesel	$
  7635  07F9  00F2               	movwf	??_NRF_GetStatus+1
  7636  07FA  0872               	movf	??_NRF_GetStatus+1,w
  7637  07FB  0021               	movlb	1	; select bank1
  7638  07FC  00D0               	movwf	(_NRFChip^(0+128)+5)
  7639  07FD                     i1l2812:
  7640  07FD  0022               	movlb	2	; select bank2
  7641  07FE  148E               	bsf	14,1	;volatile
  7642  07FF                     i1l232:
  7643  07FF  0008               	return
  7644  0800                     __end_of_NRF_GetStatus:
  7645                           
  7646                           	psect	text41
  7647  0955                     __ptext41:	
  7648 ;; *************** function i1_SPI_Exchange *****************
  7649 ;; Defined at:
  7650 ;;		line 65 in file "02-SRC/04-DRIVER/target.c"
  7651 ;; Parameters:    Size  Location     Type
  7652 ;;  Data            1    0[COMMON] unsigned char 
  7653 ;; Auto vars:     Size  Location     Type
  7654 ;;		None
  7655 ;; Return value:  Size  Location     Type
  7656 ;;                  1    wreg      unsigned char 
  7657 ;; Registers used:
  7658 ;;		wreg
  7659 ;; Tracked objects:
  7660 ;;		On entry : 0/0
  7661 ;;		On exit  : 0/0
  7662 ;;		Unchanged: 0/0
  7663 ;; Data sizes:     COMMON   BANK0   BANK1   BANK2   BANK3   BANK4   BANK5   BANK6
  7664 ;;      Params:         1       0       0       0       0       0       0       0
  7665 ;;      Locals:         0       0       0       0       0       0       0       0
  7666 ;;      Temps:          0       0       0       0       0       0       0       0
  7667 ;;      Totals:         1       0       0       0       0       0       0       0
  7668 ;;Total ram usage:        1 bytes
  7669 ;; Hardware stack levels used:    1
  7670 ;; This function calls:
  7671 ;;		Nothing
  7672 ;; This function is called by:
  7673 ;;		_NRF_Write_Register
  7674 ;;		_NRF_Read_Register
  7675 ;;		_NRF_GetStatus
  7676 ;;		i1_NRF_Write_Register
  7677 ;;		_NRF_ReadPayload
  7678 ;;		_NRF_WritePayload
  7679 ;;		_NRF_StatusHandler
  7680 ;; This function uses a non-reentrant model
  7681 ;;
  7682                           
  7683                           
  7684                           ;psect for function i1_SPI_Exchange
  7685  0955                     i1_SPI_Exchange:
  7686  0955                     i1l2718:	
  7687                           ;incstack = 0
  7688                           ; Regs used in i1_SPI_Exchange: [wreg]
  7689                           
  7690  0955  0870               	movf	i1SPI_Exchange@Data,w
  7691  0956  0024               	movlb	4	; select bank4
  7692  0957  0091               	movwf	17	;volatile
  7693  0958                     i1l352:
  7694  0958  1C14               	btfss	20,0	;volatile
  7695  0959  295B               	goto	u285_21
  7696  095A  295C               	goto	u285_20
  7697  095B                     u285_21:
  7698  095B  2958               	goto	i1l352
  7699  095C                     u285_20:
  7700  095C                     i1l2720:
  7701  095C  0811               	movf	17,w	;volatile
  7702  095D                     i1l355:
  7703  095D  0008               	return
  7704  095E                     __end_ofi1_SPI_Exchange:
  7705                           
  7706                           	psect	text42
  7707  094D                     __ptext42:	
  7708 ;; *************** function _ClickLed *****************
  7709 ;; Defined at:
  7710 ;;		line 174 in file "02-SRC/02-APPLICATION/Appl.c"
  7711 ;; Parameters:    Size  Location     Type
  7712 ;;  DurationMs      2    0[COMMON] unsigned short 
  7713 ;; Auto vars:     Size  Location     Type
  7714 ;;		None
  7715 ;; Return value:  Size  Location     Type
  7716 ;;                  1    wreg      void 
  7717 ;; Registers used:
  7718 ;;		wreg
  7719 ;; Tracked objects:
  7720 ;;		On entry : 0/0
  7721 ;;		On exit  : 0/0
  7722 ;;		Unchanged: 0/0
  7723 ;; Data sizes:     COMMON   BANK0   BANK1   BANK2   BANK3   BANK4   BANK5   BANK6
  7724 ;;      Params:         2       0       0       0       0       0       0       0
  7725 ;;      Locals:         0       0       0       0       0       0       0       0
  7726 ;;      Temps:          0       0       0       0       0       0       0       0
  7727 ;;      Totals:         2       0       0       0       0       0       0       0
  7728 ;;Total ram usage:        2 bytes
  7729 ;; Hardware stack levels used:    1
  7730 ;; This function calls:
  7731 ;;		Nothing
  7732 ;; This function is called by:
  7733 ;;		_ISR
  7734 ;; This function uses a non-reentrant model
  7735 ;;
  7736                           
  7737                           
  7738                           ;psect for function _ClickLed
  7739  094D                     _ClickLed:
  7740  094D                     i1l2860:	
  7741                           ;incstack = 0
  7742                           ; Regs used in _ClickLed: [wreg]
  7743                           
  7744  094D  0021               	movlb	1	; select bank1
  7745  094E  01A6               	clrf	_Click^(0+128)
  7746  094F  0AA6               	incf	_Click^(0+128),f
  7747  0950                     i1l2862:
  7748  0950  0871               	movf	ClickLed@DurationMs+1,w
  7749  0951  00A3               	movwf	(_Click_Duration+1)^(0+128)
  7750  0952  0870               	movf	ClickLed@DurationMs,w
  7751  0953  00A2               	movwf	_Click_Duration^(0+128)
  7752  0954                     i1l125:
  7753  0954  0008               	return
  7754  0955                     __end_of_ClickLed:
  7755  007E                     btemp	set	126	;btemp
  7756  007E                     int$flags	set	126
  7757  007E                     wtemp0	set	126
  7758  2170                     
  7759                           	psect	config
  7760                           
  7761                           ;Config register CONFIG1 @ 0x8007
  7762                           ;	Oscillator Selection Bits
  7763                           ;	FOSC = HS, HS Oscillator, High-speed crystal/resonator connected between OSC1 and OSC2
      +                           pins
  7764                           ;	Watchdog Timer Enable
  7765                           ;	WDTE = OFF, WDT disabled
  7766                           ;	Power-up Timer Enable
  7767                           ;	PWRTE = ON, PWRT enabled
  7768                           ;	MCLR Pin Function Select
  7769                           ;	MCLRE = ON, MCLR/VPP pin function is MCLR
  7770                           ;	Flash Program Memory Code Protection
  7771                           ;	CP = OFF, Program memory code protection is disabled
  7772                           ;	Brown-out Reset Enable
  7773                           ;	BOREN = OFF, Brown-out Reset disabled
  7774                           ;	Clock Out Enable
  7775                           ;	CLKOUTEN = OFF, CLKOUT function is disabled. I/O or oscillator function on the CLKOUT 
      +                          pin
  7776                           ;	Internal/External Switchover Mode
  7777                           ;	IESO = ON, Internal/External Switchover Mode is enabled
  7778                           ;	Fail-Safe Clock Monitor Enable
  7779                           ;	FCMEN = ON, Fail-Safe Clock Monitor is enabled
  7780  8007                     	org	32775
  7781  8007  39C2               	dw	14786
  7782                           
  7783                           ;Config register CONFIG2 @ 0x8008
  7784                           ;	Flash Memory Self-Write Protection
  7785                           ;	WRT = OFF, Write protection off
  7786                           ;	Stack Overflow/Underflow Reset Enable
  7787                           ;	STVREN = ON, Stack Overflow or Underflow will cause a Reset
  7788                           ;	Brown-out Reset Voltage Selection
  7789                           ;	BORV = HI, Brown-out Reset Voltage (Vbor), high trip point selected.
  7790                           ;	Low-Power Brown Out Reset
  7791                           ;	LPBOR = ON, Low-Power BOR is enabled
  7792                           ;	Low-Voltage Programming Enable
  7793                           ;	LVP = OFF, High-voltage on MCLR/VPP must be used for programming
  7794  8008                     	org	32776
  7795  8008  13FF               	dw	5119

Data Sizes:
    Strings     6
    Constant    512
    Data        0
    BSS         72
    Persistent  34
    Stack       0

Auto Spaces:
    Space          Size  Autos    Used
    COMMON           14     12      14
    BANK0            80     71      78
    BANK1            80      6      71
    BANK2            80      0       0
    BANK3            80      0       0
    BANK4            48      0       0
    BANK5             0      0       0
    BANK6             0      0       0

Pointer List with Targets:

    NRF_Set_SPI_Handler@SPI_Handler	PTR FTN(unsigned char ,)unsigned char  size(2) Largest target is 1
		 -> SPI_Exchange(), 

    NRF_Read_Register@Bytes	PTR unsigned char  size(1) Largest target is 14
		 -> NRF_StatusHandler@NRF_Fifo(COMMON[1]), NRFChip.RF_SETUP(BANK1[1]), NRFChip.CONFIG(BANK1[1]), NRF_PipeDisableAA@AA(COMMON[1]), 
		 -> NRF_PipeEnableAA@AA(BANK0[1]), NRF_PipeDisable@EN(COMMON[1]), NRF_PipeEnable@EN(BANK0[1]), NRFChip(BANK1[14]), 

    NRF_Write_Register@Bytes	PTR unsigned char  size(2) Largest target is 4096
		 -> NRFChip.SETUP_RETR(BANK1[1]), NRFChip.RF_SETUP(BANK1[1]), NRFChip.RF_CH(BANK1[1]), NRFChip.CONFIG(BANK1[1]), 
		 -> NRF_PipeDisableAA@AA(COMMON[1]), NRF_PipeEnableAA@AA(BANK0[1]), NRF_PipeDisable@EN(COMMON[1]), NRF_PipeEnable@EN(BANK0[1]), 
		 -> NFR_RxPipes(BANK1[36]), NRFChip.AW(BANK1[1]), NRFChip(BANK1[14]), RAM(DATA[4096]), 

    NRF_ReadPayload@Payload	PTR unsigned char  size(1) Largest target is 8
		 -> NRF_Payload(BANK1[8]), 

    p_NRF_SPI_Exchange	PTR FTN(unsigned char ,)unsigned char  size(2) Largest target is 1
		 -> i1_SPI_Exchange(), Absolute function(), SPI_Exchange(), 

    NRF_OpenReadingPipe@PipeAddr	PTR unsigned char  size(2) Largest target is 6
		 -> STR_1(CODE[6]), 

    NRF24L01_Init@SPI_Exchange	PTR FTN(unsigned char ,)unsigned char  size(2) Largest target is 1
		 -> SPI_Exchange(), 


Critical Paths under _main in COMMON

    None.

Critical Paths under _ISR in COMMON

    _ISR->_NRF_ReadPayload
    _NRF_ReadPayload->i1_NRF_Write_Register
    i1_NRF_Write_Register->i1_SPI_Exchange
    _NRF_Available->_NRF_GetStatus
    _NRF_GetStatus->i1_SPI_Exchange

Critical Paths under _main in BANK0

    _main->_APPL_TASK_10MS
    _Appl_Init->_NRF_OpenReadingPipe
    _NRF_StartListening->_NRF_Write_Register
    _NRF_SetRFPower->_NRF_Write_Register
    _NRF_SetRFDataRate->_NRF_Write_Register
    _NRF_SetRFChannel->_NRF_Write_Register
    _NRF_SetCRCLen->_NRF_Write_Register
    _NRF_SetAddrWidth->_NRF_Write_Register
    _NRF_SetART->_NRF_Write_Register
    _NRF_OpenReadingPipe->_NRF_PipeEnable
    _NRF_OpenReadingPipe->_NRF_PipeEnableAA
    _NRF_PipeEnableAA->_NRF_Write_Register
    _NRF_PipeEnable->_NRF_Write_Register
    _NRF_Write_Register->___bmul
    _NRF_Read_Register->_SPI_Exchange
    _NRF24L01_Init->_NRF_Set_SPI_Handler
    _APPL_TASK_10MS->_LinearTransiant
    _deQueue->___lwmod
    _SetPWM1->_deQueue
    _LinearTransiant->___fltol
    _enQueue->___lwmod
    ___fltol->___flmul
    ___flmul->___xxtofl
    ___fldiv->___xxtofl

Critical Paths under _ISR in BANK0

    _ISR->_NRF_ReadPayload

Critical Paths under _main in BANK1

    None.

Critical Paths under _ISR in BANK1

    None.

Critical Paths under _main in BANK2

    None.

Critical Paths under _ISR in BANK2

    None.

Critical Paths under _main in BANK3

    None.

Critical Paths under _ISR in BANK3

    None.

Critical Paths under _main in BANK4

    None.

Critical Paths under _ISR in BANK4

    None.

Critical Paths under _main in BANK5

    None.

Critical Paths under _ISR in BANK5

    None.

Critical Paths under _main in BANK6

    None.

Critical Paths under _ISR in BANK6

    None.

Call Graph Tables:

 ---------------------------------------------------------------------------------
 (Depth) Function   	        Calls       Base Space   Used Autos Params    Refs
 ---------------------------------------------------------------------------------
 (0) _main                                                 6     6      0   71543
                                              0 BANK1      6     6      0
                     _APPL_TASK_10MS
                          _Appl_Init
                           _MCU_Init
                    _Task_LedManager
 ---------------------------------------------------------------------------------
 (1) _Task_LedManager                                      0     0      0       0
 ---------------------------------------------------------------------------------
 (1) _MCU_Init                                             0     0      0       0
 ---------------------------------------------------------------------------------
 (1) _Appl_Init                                            1     1      0   63775
                                             32 BANK0      1     1      0
                      _NRF24L01_Init
                _NRF_OpenReadingPipe
                         _NRF_SetART
                   _NRF_SetAddrWidth
                      _NRF_SetCRCLen
                   _NRF_SetRFChannel
                  _NRF_SetRFDataRate
                     _NRF_SetRFPower
                 _NRF_StartListening
                 _NRF_Write_Register
                          _QueueInit
                            _SetPWM1
                            _SetPWM2
 ---------------------------------------------------------------------------------
 (2) _SetPWM2                                              4     2      2     120
                                              2 BANK0      4     2      2
 ---------------------------------------------------------------------------------
 (2) _QueueInit                                            0     0      0       0
 ---------------------------------------------------------------------------------
 (2) _NRF_StartListening                                   1     1      0    6834
                                             13 BANK0      1     1      0
                  _NRF_Read_Register
                 _NRF_Write_Register
 ---------------------------------------------------------------------------------
 (2) _NRF_SetRFPower                                       5     5      0    6933
                                             13 BANK0      5     5      0
                  _NRF_Read_Register
                 _NRF_Write_Register
 ---------------------------------------------------------------------------------
 (2) _NRF_SetRFDataRate                                    2     2      0    6865
                                             13 BANK0      2     2      0
                  _NRF_Read_Register
                 _NRF_Write_Register
 ---------------------------------------------------------------------------------
 (2) _NRF_SetRFChannel                                     5     5      0    4166
                                             13 BANK0      5     5      0
                 _NRF_Write_Register
 ---------------------------------------------------------------------------------
 (2) _NRF_SetCRCLen                                        2     2      0    6865
                                             13 BANK0      2     2      0
                  _NRF_Read_Register
                 _NRF_Write_Register
 ---------------------------------------------------------------------------------
 (2) _NRF_SetAddrWidth                                     4     4      0    4203
                                             13 BANK0      4     4      0
                 _NRF_Write_Register
 ---------------------------------------------------------------------------------
 (2) _NRF_SetART                                           3     2      1    4219
                                             13 BANK0      3     2      1
                 _NRF_Write_Register
 ---------------------------------------------------------------------------------
 (2) _NRF_OpenReadingPipe                                 15    10      5   19111
                                             17 BANK0     15    10      5
                     _NRF_PipeEnable
                   _NRF_PipeEnableAA
                 _NRF_Write_Register
                             ___bmul
 ---------------------------------------------------------------------------------
 (3) ___bmul                                               4     3      1     196
                                              2 BANK0      4     3      1
 ---------------------------------------------------------------------------------
 (3) _NRF_PipeEnableAA                                     4     4      0    6942
                                             13 BANK0      4     4      0
                  _NRF_Read_Register
                 _NRF_Write_Register
 ---------------------------------------------------------------------------------
 (3) _NRF_PipeEnable                                       4     4      0    6942
                                             13 BANK0      4     4      0
                  _NRF_Read_Register
                 _NRF_Write_Register
 ---------------------------------------------------------------------------------
 (2) _NRF_Write_Register                                   7     4      3    4067
                                              6 BANK0      7     4      3
                   Absolute function *
                       _SPI_Exchange *
                             ___bmul (ARG)
 ---------------------------------------------------------------------------------
 (3) _NRF_Read_Register                                    6     4      2    2767
                                              3 BANK0      6     4      2
                   Absolute function *
                       _SPI_Exchange *
 ---------------------------------------------------------------------------------
 (3) _SPI_Exchange                                         1     0      1     474
                                              2 BANK0      1     0      1
 ---------------------------------------------------------------------------------
 (8) Absolute function(Fake)                               1     0      1       0
 ---------------------------------------------------------------------------------
 (2) _NRF24L01_Init                                        2     0      2     196
                                              4 BANK0      2     0      2
                _NRF_Set_SPI_Handler
 ---------------------------------------------------------------------------------
 (3) _NRF_Set_SPI_Handler                                  2     0      2      98
                                              2 BANK0      2     0      2
 ---------------------------------------------------------------------------------
 (1) _APPL_TASK_10MS                                       2     2      0    7657
                                             69 BANK0      2     2      0
                       _KeepDistance
                    _LinearTransiant
                            _SetPWM1
                            _deQueue
                            _enQueue
 ---------------------------------------------------------------------------------
 (2) _deQueue                                              4     4      0     487
                                              8 BANK0      4     4      0
                            _IsEmpty
                            ___lwmod
 ---------------------------------------------------------------------------------
 (3) _IsEmpty                                              0     0      0       0
 ---------------------------------------------------------------------------------
 (2) _SetPWM1                                              4     2      2     196
                                             12 BANK0      4     2      2
                            _deQueue (ARG)
 ---------------------------------------------------------------------------------
 (2) _LinearTransiant                                     16    14      2    6396
                                             53 BANK0     16    14      2
                            ___fldiv
                            ___flmul
                            ___fltol
                           ___xxtofl
                            _enQueue
 ---------------------------------------------------------------------------------
 (2) _enQueue                                              5     5      0     509
                                              8 BANK0      5     5      0
                             _IsFull
                            ___lwmod
 ---------------------------------------------------------------------------------
 (3) ___lwmod                                              6     2      4     463
                                              2 BANK0      6     2      4
 ---------------------------------------------------------------------------------
 (3) _IsFull                                               3     3      0      24
                                              2 BANK0      3     3      0
 ---------------------------------------------------------------------------------
 (3) ___xxtofl                                            14    10      4     778
                                              2 BANK0     14    10      4
 ---------------------------------------------------------------------------------
 (3) ___fltol                                             11     7      4     381
                                             42 BANK0     11     7      4
                            ___flmul (ARG)
                           ___xxtofl (ARG)
 ---------------------------------------------------------------------------------
 (3) ___flmul                                             26    18      8    2569
                                             16 BANK0     26    18      8
                          __Umul8_16
                           ___xxtofl (ARG)
 ---------------------------------------------------------------------------------
 (4) __Umul8_16                                            9     7      2     799
                                              2 BANK0      9     7      2
 ---------------------------------------------------------------------------------
 (3) ___fldiv                                             26    18      8    1425
                                             16 BANK0     26    18      8
                           ___xxtofl (ARG)
 ---------------------------------------------------------------------------------
 (2) _KeepDistance                                         5     5      0      69
                                              2 BANK0      5     5      0
 ---------------------------------------------------------------------------------
 Estimated maximum stack depth 8
 ---------------------------------------------------------------------------------
 (Depth) Function   	        Calls       Base Space   Used Autos Params    Refs
 ---------------------------------------------------------------------------------
 (6) _ISR                                                  1     1      0    1817
                                             11 COMMON     1     1      0
                           _ClickLed
                      _NRF_Available
                    _NRF_ReadPayload
               i1_NRF_Write_Register
 ---------------------------------------------------------------------------------
 (7) _NRF_ReadPayload                                      6     5      1     967
                                              7 COMMON     4     3      1
                                              0 BANK0      2     2      0
                   Absolute function *
               i1_NRF_Write_Register
                     i1_SPI_Exchange *
 ---------------------------------------------------------------------------------
 (7) i1_NRF_Write_Register                                 6     3      3     455
                                              1 COMMON     6     3      3
                   Absolute function *
                     i1_SPI_Exchange *
 ---------------------------------------------------------------------------------
 (7) _NRF_Available                                        2     2      0     274
                                              3 COMMON     2     2      0
                      _NRF_GetStatus
 ---------------------------------------------------------------------------------
 (8) _NRF_GetStatus                                        2     2      0     206
                                              1 COMMON     2     2      0
                   Absolute function *
                     i1_SPI_Exchange *
 ---------------------------------------------------------------------------------
 (8) i1_SPI_Exchange                                       1     0      1     206
                                              0 COMMON     1     0      1
 ---------------------------------------------------------------------------------
 (8) Absolute function(Fake)                               1     0      1       0
 ---------------------------------------------------------------------------------
 (7) _ClickLed                                             2     0      2     121
                                              0 COMMON     2     0      2
 ---------------------------------------------------------------------------------
 Estimated maximum stack depth 8
 ---------------------------------------------------------------------------------

 Call Graph Graphs:

 _main (ROOT)
   _APPL_TASK_10MS
     _KeepDistance
     _LinearTransiant
       ___fldiv
         ___xxtofl (ARG)
       ___flmul
         __Umul8_16
         ___xxtofl (ARG)
       ___fltol
         ___flmul (ARG)
           __Umul8_16
           ___xxtofl (ARG)
         ___xxtofl (ARG)
       ___xxtofl
       _enQueue
         _IsFull
         ___lwmod
     _SetPWM1
       _deQueue (ARG)
         _IsEmpty
         ___lwmod
     _deQueue
       _IsEmpty
       ___lwmod
     _enQueue
       _IsFull
       ___lwmod
   _Appl_Init
     _NRF24L01_Init
       _NRF_Set_SPI_Handler
     _NRF_OpenReadingPipe
       _NRF_PipeEnable
         _NRF_Read_Register
           Absolute function(Fake) *
           _SPI_Exchange *
         _NRF_Write_Register
           Absolute function(Fake) *
           _SPI_Exchange *
           ___bmul (ARG) *
       _NRF_PipeEnableAA
         _NRF_Read_Register
           Absolute function(Fake) *
           _SPI_Exchange *
         _NRF_Write_Register
           Absolute function(Fake) *
           _SPI_Exchange *
           ___bmul (ARG) *
       _NRF_Write_Register
         Absolute function(Fake) *
         _SPI_Exchange *
         ___bmul (ARG) *
       ___bmul
     _NRF_SetART
       _NRF_Write_Register
         Absolute function(Fake) *
         _SPI_Exchange *
         ___bmul (ARG) *
     _NRF_SetAddrWidth
       _NRF_Write_Register
         Absolute function(Fake) *
         _SPI_Exchange *
         ___bmul (ARG) *
     _NRF_SetCRCLen
       _NRF_Read_Register
         Absolute function(Fake) *
         _SPI_Exchange *
       _NRF_Write_Register
         Absolute function(Fake) *
         _SPI_Exchange *
         ___bmul (ARG) *
     _NRF_SetRFChannel
       _NRF_Write_Register
         Absolute function(Fake) *
         _SPI_Exchange *
         ___bmul (ARG) *
     _NRF_SetRFDataRate
       _NRF_Read_Register
         Absolute function(Fake) *
         _SPI_Exchange *
       _NRF_Write_Register
         Absolute function(Fake) *
         _SPI_Exchange *
         ___bmul (ARG) *
     _NRF_SetRFPower
       _NRF_Read_Register
         Absolute function(Fake) *
         _SPI_Exchange *
       _NRF_Write_Register
         Absolute function(Fake) *
         _SPI_Exchange *
         ___bmul (ARG) *
     _NRF_StartListening
       _NRF_Read_Register
         Absolute function(Fake) *
         _SPI_Exchange *
       _NRF_Write_Register
         Absolute function(Fake) *
         _SPI_Exchange *
         ___bmul (ARG) *
     _NRF_Write_Register
       Absolute function(Fake) *
       _SPI_Exchange *
       ___bmul (ARG) *
     _QueueInit
     _SetPWM1
       _deQueue (ARG)
         _IsEmpty
         ___lwmod
     _SetPWM2
   _MCU_Init
   _Task_LedManager

 _ISR (ROOT)
   _ClickLed
   _NRF_Available
     _NRF_GetStatus
       Absolute function(Fake) *
       i1_SPI_Exchange *
   _NRF_ReadPayload
     Absolute function(Fake) *
     i1_NRF_Write_Register *
       Absolute function(Fake) *
       i1_SPI_Exchange *
     i1_SPI_Exchange *
   i1_NRF_Write_Register
     Absolute function(Fake) *
     i1_SPI_Exchange *

 Address spaces:
Name               Size   Autos  Total    Cost      Usage
BIGRAM             1F0      0       0       0        0.0%
NULL                 0      0       0       0        0.0%
CODE                 0      0       0       0        0.0%
BITCOMMON            E      0       0       1        0.0%
BITSFR0              0      0       0       1        0.0%
SFR0                 0      0       0       1        0.0%
COMMON               E      C       E       2      100.0%
BITSFR1              0      0       0       2        0.0%
SFR1                 0      0       0       2        0.0%
BITSFR2              0      0       0       3        0.0%
SFR2                 0      0       0       3        0.0%
STACK                0      0       0       3        0.0%
BITSFR3              0      0       0       4        0.0%
SFR3                 0      0       0       4        0.0%
ABS                  0      0      A3       4        0.0%
BITBANK0            50      0       0       5        0.0%
BITSFR4              0      0       0       5        0.0%
SFR4                 0      0       0       5        0.0%
BANK0               50     47      4E       6       97.5%
BITSFR5              0      0       0       6        0.0%
SFR5                 0      0       0       6        0.0%
BITBANK1            50      0       0       7        0.0%
BITSFR6              0      0       0       7        0.0%
SFR6                 0      0       0       7        0.0%
BANK1               50      6      47       8       88.8%
BITSFR7              0      0       0       8        0.0%
SFR7                 0      0       0       8        0.0%
BITBANK2            50      0       0       9        0.0%
BITSFR8              0      0       0       9        0.0%
SFR8                 0      0       0       9        0.0%
BANK2               50      0       0      10        0.0%
BITSFR9              0      0       0      10        0.0%
SFR9                 0      0       0      10        0.0%
BITBANK3            50      0       0      11        0.0%
BITSFR10             0      0       0      11        0.0%
SFR10                0      0       0      11        0.0%
BANK3               50      0       0      12        0.0%
BITSFR11             0      0       0      12        0.0%
SFR11                0      0       0      12        0.0%
BITBANK4            50      0       0      13        0.0%
BITSFR12             0      0       0      13        0.0%
SFR12                0      0       0      13        0.0%
BANK4               30      0       0      14        0.0%
BITSFR13             0      0       0      14        0.0%
SFR13                0      0       0      14        0.0%
BITBANK5            50      0       0      15        0.0%
BITSFR14             0      0       0      15        0.0%
SFR14                0      0       0      15        0.0%
BITSFR15             0      0       0      16        0.0%
SFR15                0      0       0      16        0.0%
BANK5                0      0       0      16        0.0%
BITBANK6            10      0       0      17        0.0%
BITSFR16             0      0       0      17        0.0%
SFR16                0      0       0      17        0.0%
BITSFR17             0      0       0      18        0.0%
SFR17                0      0       0      18        0.0%
BANK6                0      0       0      18        0.0%
BITSFR18             0      0       0      19        0.0%
SFR18                0      0       0      19        0.0%
DATA                 0      0      A3      19        0.0%
BITSFR19             0      0       0      20        0.0%
SFR19                0      0       0      20        0.0%
BITSFR20             0      0       0      21        0.0%
SFR20                0      0       0      21        0.0%
BITSFR21             0      0       0      22        0.0%
SFR21                0      0       0      22        0.0%
BITSFR22             0      0       0      23        0.0%
SFR22                0      0       0      23        0.0%
BITSFR23             0      0       0      24        0.0%
SFR23                0      0       0      24        0.0%
BITSFR24             0      0       0      25        0.0%
SFR24                0      0       0      25        0.0%
BITSFR25             0      0       0      26        0.0%
SFR25                0      0       0      26        0.0%
BITSFR26             0      0       0      27        0.0%
SFR26                0      0       0      27        0.0%
BITSFR27             0      0       0      28        0.0%
SFR27                0      0       0      28        0.0%
BITSFR28             0      0       0      29        0.0%
SFR28                0      0       0      29        0.0%
BITSFR29             0      0       0      30        0.0%
SFR29                0      0       0      30        0.0%
BITSFR30             0      0       0      31        0.0%
SFR30                0      0       0      31        0.0%
BITSFR31             0      0       0      32        0.0%
SFR31                0      0       0      32        0.0%


Microchip Technology PIC Macro Assembler V2.31 build 20201012212115 
Symbol Table                                                                                   Sat Apr 03 11:07:37 2021

                    ___fldiv@aexp 0049                      ___fldiv@bexp 0048                      ___fldiv@sign 0041  
              ??_NRF_SetAddrWidth 002D                    ___bmul@product 0024           NRF_Write_Register@Bytes 0026  
                              l71 07ED                                l82 0969                                l74 099D  
                              l94 0DF5                                l79 0B98                                l89 0B42  
             __Umul8_16@word_mpld 0028          NRF_Write_Register@Length 0028                               l100 0DB3  
                             l113 0795                               l122 0A3B                               l132 0CF7  
                             l206 0D32                               l222 0A19                               l215 0C71  
                             l216 0C8A                               l209 0BC4                               l171 0F52  
                             l219 0AF0                               l252 0C20                               l340 0BF2  
                             l157 0975                               l253 0C24                               l183 0A81  
                             l352 098A                               l192 0AC9                               l273 094C  
                             l177 0A5E                               l346 09E0                               l258 0C53  
                             l355 098F                               l259 0C57                               l349 09F8  
                             l198 0B57                               l199 0B6C                               l633 0EA3  
                             l810 063B                               l626 0EB8                               l722 0CBF  
                             l458 09C8                               l811 0655                               l636 0EB8  
                             l813 0664                               l805 05EF                               l841 02AD  
                             l850 0AA5                               l835 0235                               l829 02B9  
                             l791 066D                               l848 0A95                               l873 0F76  
                             l875 0FFF                               l789 0511                               l886 0FCB  
                             l887 0FD7                               l879 0FB1                 ?_NRF_PipeEnableAA 0070  
                             _PR2 001B                               _ISR 0004                  SPI_Exchange@Data 0022  
        NRF_Write_Register@Status 002C        __size_of_NRF_Read_Register 0033                      main@Task10ms 00E1  
                             wreg 0009                ??_NRF_PipeEnableAA 002D                      ___flmul@aexp 0042  
                    ___flmul@bexp 0043         i1NRF_Write_Register@Bytes 0071                      ___flmul@sign 003D  
                    ___flmul@temp 0048                      ___flmul@prod 0044                    _Click_Duration 00A2  
                   _NRF24L01_Init 096A                              ?_ISR 0070                      ___fltol@exp1 0054  
                            l2000 0558                              l2010 057D                              l2002 0560  
                            l2020 059C                              l2012 0581                              l2004 0568  
                            l2100 008E                              l2030 05B8                              l2022 05A4  
                            l2014 0582                              l2006 056A                              l2110 00A1  
                            l2102 0093                              l2032 05BF                              l2040 05CF  
                            l2008 056F                              l2016 0589                              l2024 05A8  
                            l2200 0267                              l2120 00BD                              l2112 00A6  
                            l2104 0097                              l2042 05D3                              l2034 05C3  
                            l2026 05AE                              l2018 059B                              l2210 0297  
                            l2202 0274                              l2130 00E5                              l2122 00C2  
                            l2114 00AE                              l2106 009B                              l2060 061D  
                            l2052 05F4                              l2044 05D4                              l2036 05C4  
                            l2028 05B6                              l2212 02A4                              l2204 027E  
                            l2140 0140                              l2132 00FF                              l2116 00B0  
                            l2108 009C                              l2070 0654                              l2054 05F9  
                            l2062 0621                              l2046 05D8                              l2038 05CB  
                            l2214 02A8                              l2206 028C                              l2150 016F  
                            l2142 0147                              l2134 010C                              l2126 00CB  
                            l2118 00B8                              l2230 0F7E                              l2222 0F55  
                            l2072 065A                              l2064 062E                              l2056 0601  
                            l2048 05EC                              l2216 02A9                              l2208 0295  
                            l2160 01BF                              l2152 0183                              l2144 0154  
                            l2136 0126                              l2128 00D8                              l2240 0F9E  
                            l2224 0F5A                              l2400 0676                              l2074 065E  
                            l2066 0649                              l2058 0605                              l2218 02B1  
                            l2170 0205                              l2162 01D4                              l2154 018A  
                            l2146 015B                              l2138 0133                              l2090 0072  
                            l2082 0063                              l2250 0FC5                              l2242 0FA2  
                            l2234 0F87                              l2226 0F5E                              l2410 06F5  
                            l2402 067C                              l2076 0660                              l2068 064C  
                            l2180 0219                              l2172 0209                              l2164 01EB  
                            l2156 019E                              l2148 0168                              l2092 0077  
                            l2084 0069                              l2260 0FF6                              l2252 0FCF  
                            l2244 0FAA                              l2236 0F8C                              l2228 0F6E  
                            l2420 070F                              l2412 06F9                              l2404 0682  
                            l2190 023A                              l2182 021A                              l2174 020A  
                            l2166 01F2                              l2158 01AB                              l2094 007C  
                            l2086 006D                              l2262 0FF7                              l2254 0FD9  
                            l2246 0FB8                              l2238 0F97                              l2430 078B  
                            l2422 0748                              l2414 06FE                              l2406 06BB  
                            l2192 023F                              l2184 021E                              l2176 0211  
                            l2168 01FE                              l2096 0084                              l2088 0071  
                            l2256 0FED                              l2248 0FC1                              l1800 0B6D  
                            l2432 0791                              l2424 074B                              l2416 0704  
                            l2408 06BE                              l2272 09C9                              l2280 0972  
                            l2520 0A1A                              l2370 0B1E                              l2194 0247  
                            l2186 0232                              l2178 0215                              l2098 0086  
                            l2258 0FF2                              l1810 0B97                              l1802 0B70  
                            l2426 0782                              l2418 0709                              l2282 0974  
                            l2274 09E1                              l2530 0A35                              l2522 0A20  
                            l2372 0B2C                              l2196 024B                              l1804 0B80  
                            l2428 0786                              l2700 0C4C                              l1900 09C0  
                            l2276 0990                              l2460 0BCC                              l2532 0A3A  
                            l2524 0A21                              l2374 0B33                              l2198 0263  
                            l1806 0B86                              l1830 0C8B                              l2390 0D96  
                            l2382 0D73                              l2278 096A                              l2702 0C55  
                            l2710 0A54                              l1902 09C7                              l2470 0BD6  
                            l2462 0BCD                              l2454 0BC5                              l2526 0A23  
                            l2376 0B3E                              l2368 0B1C                              l1920 0E77  
                            l1912 0E59                              l1808 0B96                              l1840 0CA2  
                            l1832 0C92                              l2392 0D9F                              l2384 0D75  
                            l2712 0A61                              l2800 09F9                              l2480 0BE2  
                            l2472 0BD9                              l2464 0BCF                              l2456 0BC8  
                            l2528 0A2B                              l2378 0B40                              l1922 0E7B  
                            l1930 0E93                              l1914 0E6C                              l1906 0E44  
                            l1842 0CAC                              l1834 0C95                              l2386 0D7D  
                            l2394 0DB1                              l2706 0A3E                              l2714 0A6B  
                            l2730 0C5A                              l2802 0A04                              l2490 0BEE  
                            l2482 0BE4                              l2474 0BDB                              l2466 0BD2  
                            l2458 0BCA                              l1860 0A9C                              l1852 0A84  
                            l1940 0EAD                              l1916 0E6D                              l1908 0E50  
                            l1844 0CB0                              l1836 0C9A                              l2388 0D8C  
                            l1780 098E                              l2708 0A48                              l2716 0A77  
                            l2732 0C64                              l2724 0AA8                              l2740 0B9B  
                            l2804 0A06                              l2492 0BEF                              l2484 0BE6  
                            l2476 0BDE                              l2468 0BD4                              l2900 0E0C  
                            l1950 04C9                              l1942 04BA                              l1862 0AA1  
                            l1854 0A86                              l1918 0E75                              l1846 0CB5  
                            l1838 0C9E                              l1870 0DB6                              l2398 0670  
                            l2734 0C6A                              l2726 0AB2                              l2742 0BA5  
                            l2750 0D0B                              l2806 0A17                              l2830 0798  
                            l2494 0BF0                              l2486 0BE9                              l2478 0BE1  
                            l2910 0E31                              l2902 0E17                              l1952 04CE  
                            l1960 04DE                              l1944 04C0                              l1856 0A8D  
                            l1936 0E9A                              l1928 0E83                              l1848 0CBB  
                            l1872 0DBE                              l2680 0C07                              l2736 0C6D  
                            l2728 0AB9                              l2760 0B4B                              l2744 0BB4  
                            l2752 0D13                              l2840 07C1                              l2832 07B1  
                            l2496 0BF1                              l2488 0BEB                              l2912 0E3B  
                            l2904 0E1D                              l1970 04F4                              l1962 04E6  
                            l1954 04D3                              l1946 04C4                              l1858 0A91  
                            l1938 0EA8                              l1874 0DCF                              l1866 095E  
                            l2850 0CC0                              l1778 0986                              l2690 0C27  
                            l2682 0C14                              l2674 0BF5                              l2770 0ED2  
                            l2738 0C7A                              l2762 0B53                              l2754 0D17  
                            l2746 0CFA                              l2842 07C5                              l2834 07B5  
                            l2906 0E20                              l1972 04F9                              l1980 0509  
                            l1964 04EB                              l1956 04DB                              l1948 04C8  
                            l1876 0DE1                              l2852 0CCE                              l2692 0C27  
                            l2684 0C19                              l2676 0BF5                              l1892 09B5  
                            l2780 0F01                              l2772 0ED4                              l2764 0B5C  
                            l2756 0D22                              l2748 0D04                              l2844 07D6  
                            l2836 07B9                              l2828 0796                              l2908 0E2B  
                            l1982 0519                              l1990 0532                              l1974 04FE  
                            l1966 04EF                              l1958 04DC                              l2854 0CD4  
                            l1878 0947                              l2694 0C29                              l2686 0C22  
                            l2678 0BF7                              l1894 09B6                              l2790 0F1E  
                            l2782 0F05                              l2774 0EF2                              l2766 0EBB  
                            l2758 0B45                              l2846 07DF                              l2838 07BD  
                            l1992 0537                              l1984 0525                              l1976 0506  
                            l1968 04F3                              l2856 0CDD                              l2696 0C38  
                            l1896 09BA                              l2792 0F22                              l2784 0F0B  
                            l2776 0EF6                              l2768 0EC2                              l2848 07EA  
                            l1986 0529                              l1978 0507                              l2858 0CE2  
                            l2698 0C48                              l1898 09BE                              l2794 0F38  
                            l2786 0F0F                              l2778 0EFC                              l1996 0540  
                            l2788 0F16                              l2796 0ACC                              l2892 0DF6  
                            l1998 0550                              l2798 0AE0                              l2894 0E03  
                            l2896 0E06                              l2898 0E09                              STR_1 1000  
                            u2000 0649                              u2001 0648                              u2010 065E  
                            u2011 065D                              u2020 0071                              u2005 0645  
                            u2021 0070                              u2030 0077                              u2031 0076  
                            u2200 0232                              u2120 01CA                              u2040 007C  
                            u3000 0E17                              u2201 0231                              u2105 0141  
                            u2041 007B                              u3001 0E16                              u2210 0239  
                            u2130 01E1                              u2050 009B                              u1410 0B80  
                            u3010 0E2B                              u2211 0238                              u2115 0170  
                            u2051 009A                              u1411 0B7F                              u3011 0E2A  
                            u2220 023F                              u2060 00A1                              u2300 0F7E  
                            u1420 0B86                              u1500 0CBB                              u3020 0E3B  
                            u2221 023E                              u2125 01C6                              u2061 00A0  
                            u2301 0F7D                              u1421 0B85                              u1501 0CBA  
                            u3021 0E3A                              u3005 0E13                              u1510 0A91  
                            u2230 024B                              u2070 00A6                              u1430 0B96  
                            u1511 0A90                              u2231 024A                              u2135 01DD  
                            u2071 00A5                              u1431 0B95                              u1415 0B7C  
                            u3015 0E27                              u2240 0259                              u2160 0209  
                            u2080 00BD                              u2400 0FF2                              u2320 0F9D  
                            u2161 0208                              u2145 01EC                              u2081 00BC  
                            u2401 0FF1                              u2321 0F9C                              u3025 0E37  
                            u1530 0AA1                              u2250 0274                              u2090 00C2  
                            u2410 0FF6                              u1450 0C92                              u1610 09BA  
                            u1531 0AA0                              u2251 0273                              u2155 01FF  
                            u2091 00C1                              u2411 0FF5                              u2315 0F91  
                            u1435 0B92                              u1451 0C91                              u1611 09B9  
                            u2260 028C                              u2180 0219                              u2340 0FB7  
                            u1540 0968                              u1620 09C7                              u1525 0A96  
                            u2261 028B                              u2245 0255                              u2181 0218  
                            u2341 0FB6                              u1541 0966                              u1621 09C6  
                            u2270 02A8                              u2190 021E                              u1710 0EA8  
                            u1630 0E50                              u1470 0CA2                              u1550 0969  
                            u1390 098E                              u2271 02A7                              u2255 0270  
                            u2191 021D                              u2175 020B                              u1711 0EA7  
                            u1631 0E4F                              u2335 0FAB                              u1471 0CA1  
                            u1391 098D                              u1800 0537                              u1720 0EAD  
                            u1640 0E66                              u2360 0FC5                              u2280 0F5A  
                            u1480 0CAC                              u1560 0DBE                              u2600 0704  
                            u1801 0536                              u2265 0288                              u1721 0EAC  
                            u1705 0E9B                              u2361 0FC4                              u2281 0F59  
                            u1481 0CAB                              u1465 0C96                              u1561 0DBD  
                            u2601 0703                              u1810 056F                              u1730 04C8  
                            u1650 0E7B                              u2370 0FCB                              u2290 0F5E  
                            u1570 0DC8                              u2610 0791                              u1811 056E  
                            u1731 04C7                              u1651 0E7A                              u2371 0FCA  
                            u2355 0FBB                              u2291 0F5D                              u1571 0DC6  
                            u2611 0790                              u2435 09CD                              u2540 0B2C  
                            u1900 05C3                              u1740 04CE                              u1660 0E82  
                            u2380 0FCF                              u1580 0DC9                              u2541 0B2B  
                            u1901 05C2                              u1741 04CD                              u1661 0E81  
                            u1645 0E62                              u2381 0FCE                              u1485 0CA8  
                            u2445 09E5                              u2550 0B3E                              u1750 04D3  
                            u2390 0FE3                              u2630 0A20                              u2551 0B3D  
                            u1751 04D2                              u1495 0CB1                              u2631 0A1F  
                            u1920 05D3                              u1840 0581                              u1760 04F3  
                            u1680 0E92                              u2560 0D7D                              u2640 0A35  
                            u2545 0B28                              u1921 05D2                              u1841 0580  
                            u1825 0570                              u1761 04F2                              u1681 0E91  
                            u2561 0D7C                              u2641 0A34                              u1930 05D8  
                            u1770 04F9                              u1690 0E99                              u2570 0D96  
                            u2810 0C20                              u2650 0A3A                              u2555 0B3A  
                            u1931 05D7                              u1915 05C5                              u1835 0577  
                            u1771 04F8                              u1691 0E98                              u1675 0E84  
                            u2395 0FDF                              u2571 0D95                              u2811 0C1F  
                            u2651 0A39                              u1940 05EC                              u1860 059B  
                            u1780 04FE                              u2580 0676                              u2820 0C53  
                            u2900 0B4B                              u1941 05EB                              u1861 059A  
                            u1781 04FD                              u2581 0675                              u2821 0C52  
                            u2901 0B4A                              u2645 0A31                              u1950 05F3  
                            u1870 05AE                              u1790 0519                              u2590 067C  
                            u2910 0EFC                              u1951 05F2                              u1871 05AD  
                            u1855 0583                              u1791 0518                              u2591 067B  
                            u2575 0D92                              u2911 0EFB                              u1960 05F9  
                            u1880 05B6                              u2920 0F01                              u1961 05F8  
                            u1881 05B5                              u1865 0597                              u2921 0F00  
                            u1970 0605                              u2834 0A4E                              u2930 0F0B  
                            u1971 0604                              u2835 0A4D                              u2931 0F0A  
                            u1980 0613                              u2844 0A71                              u2940 0F16  
                            u2860 0C60                              u2845 0A70                              u2941 0F15  
                            u2861 0C5E                              u1990 062E                              u2870 0C61  
                            u1991 062D                              u1895 05B9                              u2960 0CDD  
                            u2880 0C6A                              u1985 060F                              u2961 0CDC  
                            u2881 0C69                              u2890 0D0B                              u1995 062A  
                            u2891 0D0A                              _TMR0 0015                              _main 0DF6  
                            fsr0h 0005                              fsr1h 0007                              indf0 0000  
                            fsr0l 0004                              indf1 0001                              fsr1l 0006  
                            btemp 007E                     main@Task100ms 00E3                              start 003F  
                 ___fldiv@new_exp 0042                 ___bmul@multiplier 0025                   __end_of_IsEmpty 096A  
      i1NRF_Write_Register@Length 0073                    i1_SPI_Exchange 0955                             ??_ISR 007B  
                 __end_of_SetPWM1 09E1                   __end_of_SetPWM2 09F9                        _IsFull$171 0024  
                   ___fltol@sign1 0053                             ?_main 0070                  ?_Task_LedManager 0070  
                 __end_of___fldiv 066E                   __end_of___flmul 02BA                   __end_of___fltol 0EB9  
                           _T2CON 001C                             _IOCAF 0393                             _IOCAN 0392  
                           _IOCIF 0058                  __end_of_MCU_Init 0BF3                             i1l125 0954  
                           i1l232 07FF                             i1l240 0D64                             i1l241 0D72  
                           i1l252 0B17                             i1l229 09B2                             i1l253 0B19  
                           i1l352 0958                             i1l360 0014                   __end_of___lwmod 0CC0  
                           i1l355 095D                             i1l363 0030                             i1l364 003D  
                 __end_of_deQueue 0DB4                       ?_NRF_SetART 002D                             _TRISA 008C  
                           _TRISB 008D                             _TRISC 008E                   __end_of_gamma10 04BA  
                           _Click 00A6                   __end_of_enQueue 0DF6                    ?_NRF24L01_Init 0024  
   __size_ofi1_NRF_Write_Register 0029      __size_of_NRF_Set_SPI_Handler 0006                    main@Task1000ms 00E5  
                           pclath 000A                             status 0003    NRF_Set_SPI_Handler@SPI_Handler 0022  
                           wtemp0 007E                  __end_of_ClickLed 0955        __size_of_NRF_SetRFDataRate 002C  
          __end_ofi1_SPI_Exchange 095E                   __initialization 0041                      __end_of_main 0E44  
            __end_of_KeepDistance 0B43                            ??_main 0067          __size_of_LinearTransiant 0128  
              __size_of_Appl_Init 0058              NRF_PipeEnable@PipeNo 002F           __size_of_NRF_SetRFPower 003B  
                          _ANSELA 018C                            _ANSELB 018D                            _ANSELC 018E  
           __end_of_NRF_Available 09B3                    enQueue@element 002C            NRF_ReadPayload@Payload 0020  
                          i1l2720 095C                            i1l2810 07F0                            i1l2812 07FD  
                          i1l2820 0AF4                            i1l2718 0955                            i1l2822 0AFF  
                          i1l2808 07EE                            i1l2824 0B0C                            i1l2816 0AF2  
                          i1l2826 0B10                            i1l2818 0AF2                            i1l2860 094D  
                          i1l2862 0950             __end_of_NRF_GetStatus 0800                            i1l2870 09AB  
                          i1l2872 09AF                            i1l2864 099F                            i1l2880 0D37  
                          i1l2874 09B1                            i1l2866 09A0                            i1l2890 0D68  
                          i1l2882 0D44                            i1l2868 09A3                            i1l2884 0D47  
                          i1l2980 0012                            i1l2886 0D5A                            i1l2878 0D35  
                          i1l2982 0018                            i1l2888 0D5E                            i1l2984 0028  
                          i1l2976 0006                            i1l2986 003A                            i1l2978 000A  
                          i1l2988 003C                            u310_20 0028                            u310_21 0027  
                          u308_20 000A                            u308_21 0009                            u309_20 0018  
                          u309_21 0017                            u285_20 095C                            u285_21 095B  
         __size_of_NRF_PipeEnable 0023                            u295_20 0B17                            u295_21 0B16  
                          u297_20 09AB                            u297_21 09AA                            u298_20 09AF  
                          _OSCCON 0099                            u298_21 09AE                            u299_20 0D64  
                          u299_21 0D63                            _TMR0IF 005A                         ??_IsEmpty 0022  
                __end_of___xxtofl 1000                            _IsFull 0B6D                         ??_SetPWM1 002E  
                       ??_SetPWM2 0024                   ?i1_SPI_Exchange 0070                  NRF_PipeEnable@EN 0030  
             __size_of_NRF_SetART 0027                            ___bmul 09B3             __end_of_NRF_SetCRCLen 0ACA  
                       ??___fldiv 0038                         ??___flmul 0038                         ??___fltol 004E  
              _p_NRF_SPI_Exchange 007C                i1SPI_Exchange@Data 0070                         ??___lwmod 0026  
                       ??_deQueue 0028           __size_of_APPL_TASK_10MS 0038                         ??_enQueue 0028  
            NRF_SetRFPower@RF_Pow 0031       __size_of_NRF_Write_Register 0032                   ??_NRF24L01_Init 0026  
              __size_of__Umul8_16 0024         NRF_SetRFDataRate@Datarate 002E                __size_of_QueueInit 000E  
     NRF_OpenReadingPipe@PipeAddr 0031                _NRF_StartListening 09F9                      ___xxtofl@arg 002C  
                    ___xxtofl@exp 002B                      ___xxtofl@val 0022           __end_of__initialization 005F  
             ?_NRF_StartListening 0070                        ___fltol@f1 004A                 __end_of_Appl_Init 07EE  
                       ?_MCU_Init 0070               ___bmul@multiplicand 0022        NRF_Write_Register@Register 002B  
                  __pcstackCOMMON 0070         __size_of_NRF_SetRFChannel 002A              ??_NRF_StartListening 002D  
       __size_of_NRF_SetAddrWidth 0033                         ?_ClickLed 0070      NRF_SetAddrWidth@AddressWidth 0030  
               ??_LinearTransiant 0057                        __pbssBANK0 0067                        __pbssBANK1 00A0  
        __size_of_NRF_ReadPayload 0040      __size_of_NRF_OpenReadingPipe 009A                    _CircularBuffer 2170  
       __size_of_NRF_PipeEnableAA 0023                        __pnvCOMMON 007C                           ?_IsFull 0070  
                      ??_MCU_Init 0022                 __end_of__Umul8_16 0AA6               NRF_Available@PipeNo 0073  
                      __pmaintext 0DF6             __size_of_KeepDistance 0029                 __end_of_QueueInit 099E  
                         ?___bmul 0022               _NRF_Set_SPI_Handler 0947                        __pintentry 0004  
                    ??_NRF_SetART 002E                         ?___xxtofl 0022                        ??_ClickLed 0072  
         LinearTransiant@OldValue 0055           LinearTransiant@NewValue 0064                           _PWM1DCH 0612  
                         _PWM1DCL 0611                           _NRFChip 00CB                           _PWM2DCH 0615  
                         _PWM2DCL 0614                           _PWM1CON 0613                           _PWM2CON 0616  
            ?_NRF_Set_SPI_Handler 0022                  LinearTransiant@a 0062                           _SSP1BUF 0211  
                LinearTransiant@i 0063                    _NRF_SetRFPower 0CF8        NRF_SetRFChannel@RF_Channel 0031  
                  _NRF_PipeEnable 0A3C                      _KeepDistance 0B1A                           _IsEmpty 095E  
                         _SetPWM1 09C9                           _SetPWM2 09E1                   __size_of_IsFull 002C  
    __end_ofi1_NRF_Write_Register 0B1A                           _MyQueue 0067                __end_of_NRF_SetART 0AF1  
                 __size_of___bmul 0016                           ___fldiv 04BA                           ___flmul 0063  
                         ___fltol 0E44                    _APPL_TASK_10MS 0CC0                           ___lwmod 0C8B  
                         _deQueue 0D73                           _gamma10 02BA                           _enQueue 0DB4  
                KeepDistance@diff 0023                           __ptext1 0A1A                           __ptext2 0BC5  
                         __ptext3 0796                           __ptext4 09E1                           __ptext5 0990  
                         __ptext6 09F9                           __ptext7 0CF8                           __ptext8 0B99  
                         __ptext9 0B43                      __size_of_ISR 003B                        ??___xxtofl 0026  
          __end_of_NRF_SetRFPower 0D33             ??_NRF_Set_SPI_Handler 0024            __end_of_NRF_PipeEnable 0A5F  
        __size_of_Task_LedManager 0022                           clrloop0 0977              end_of_initialization 005F  
                ??i1_SPI_Exchange 0071            APPL_TASK_10MS@OldValue 006D          NRF_Available@IsAvailable 0074  
    i1NRF_Write_Register@Register 0076                 ??_NRF_ReadPayload 0078            __end_of_APPL_TASK_10MS 0CF8  
                _NRF_SetRFChannel 0B43              _NRF_SetRFChannel$444 002F                  _NRF_SetAddrWidth 0C58  
                   ___xxtofl@sign 002A                   ?_NRF_SetRFPower 0070                   NRF_SetART@delay 002D  
                 NRF_SetART@count 002F                       ___fldiv@grs 0044                       ___fldiv@rem 003D  
                 ?_NRF_PipeEnable 0070             NRF_OpenReadingPipe@AW 003D                       ___flmul@grs 003E  
                _NRF_PipeEnableAA 0A5F                  SetPWM1@DutyCycle 002C                     ?_SPI_Exchange 0022  
                  __end_of_IsFull 0B99                   ?_APPL_TASK_10MS 0070                  SetPWM2@DutyCycle 0022  
               __size_of_MCU_Init 002E                         _Appl_Init 0796        __end_of_NRF_Write_Register 0C25  
                  __end_of___bmul 09C9               _NRF_OpenReadingPipe 0EB9            __size_of_NRF_Available 0015  
          __size_of_NRF_GetStatus 0012                   _LinearTransiant 066E               start_initialization 0041  
                     __end_of_ISR 003F             __end_of_NRF24L01_Init 0976              i1_NRF_Write_Register 0AF1  
       NRF24L01_Init@SPI_Exchange 0024                 __size_of_ClickLed 0008            __size_of_NRF_SetCRCLen 0024  
            ?_NRF_OpenReadingPipe 0031                 ??_Task_LedManager 0022                    ??_SPI_Exchange 0023  
                        ??_IsFull 0022            NRF_PipeEnableAA@PipeNo 002F                          ??___bmul 0023  
                      ?_Appl_Init 0070                         __Umul8_16 0A82        NRF_OpenReadingPipe@AutoAck 0034  
                       _QueueInit 0990       __size_of_NRF_StartListening 0021                         ___fldiv@a 0030  
                       ___fldiv@b 0034                       __pbssBIGRAM 2170                         ___flmul@a 0034  
                       ___flmul@b 0030                         ___latbits 0002             ?i1_NRF_Write_Register 0071  
                   __pcstackBANK0 0020                     __pcstackBANK1 00E1                 __size_of___xxtofl 00AD  
           ??_NRF_OpenReadingPipe 0036            _SPI_Exchange$intlevel0 0986                     _NRF_Available 099E  
                   _NRF_GetStatus 07EE                          ?_IsEmpty 0070                          ?_SetPWM1 002C  
                        ?_SetPWM2 0022           __end_of_LinearTransiant 0796                KeepDistance@amount 0025  
                        ?___fldiv 0030                          ?___flmul 0030                          ?___fltol 004A  
              KeepDistance@retVal 0026                        ?__Umul8_16 0022                          ?___lwmod 0022  
                   _NRF_SetCRCLen 0AA6                          ?_deQueue 0070                        ?_QueueInit 0070  
                        ?_enQueue 0070                    deQueue@element 002B          __end_of_NRF_SetRFChannel 0B6D  
                 _NRF_ReadPayload 0D33                    ?_NRF_Available 0070                    ?_NRF_GetStatus 0070  
                        _LATCbits 010E         NRF_Read_Register@Register 0027                         clear_ram0 0976  
                        _MCU_Init 0BC5          __end_of_NRF_SetAddrWidth 0C8B           _NRF_OpenReadingPipe$416 003B  
                        _SSP1CON1 0215                    ?_NRF_SetCRCLen 0070                       ??_Appl_Init 0040  
                        _SSP1STAT 0214                  ??_NRF_SetRFPower 002D          __end_of_NRF_PipeEnableAA 0A82  
     __end_of_NRF_Set_SPI_Handler 094D              NRF_OpenReadingPipe@i 003E                  ??_NRF_PipeEnable 002D  
          ??i1_NRF_Write_Register 0074              __end_of_SPI_Exchange 0990                          _ClickLed 094D  
          Task_LedManager@Timeout 00A0           NRF_Read_Register@Length 0024      NRF_ReadPayload@PayloadLength 0077  
              NRF_PipeEnableAA@AA 0030                  ??_APPL_TASK_10MS 0065           NRF_Read_Register@Status 0028  
     LinearTransiant@Duration10ms 0056                  __size_of_IsEmpty 000C                          _Tick_1ms 00A4  
                __size_of_SetPWM1 0018                  __size_of_SetPWM2 0018         NRF_OpenReadingPipe@Enable 0035  
                ?_LinearTransiant 0055                       ??__Umul8_16 0024         NRF_OpenReadingPipe@PipeNo 003F  
                __size_of___fldiv 01B4                  __size_of___flmul 0257                  __size_of___fltol 0075  
                     ??_QueueInit 0022                  __size_of___lwmod 0035                  __size_of_deQueue 0041  
                __size_of_enQueue 0042           __end_of_NRF_ReadPayload 0D73                          ___xxtofl 0F53  
                 _Task_LedManager 0A1A                _NRF_Write_Register 0BF3                          __ptext10 0AA6  
                        __ptext11 0C58                          __ptext20 096A                          __ptext12 0ACA  
                        __ptext21 0947                          __ptext13 0EB9                          __ptext30 0F53  
                        __ptext22 0CC0                          __ptext14 09B3                          __ptext31 0E44  
                        __ptext23 0D73                          __ptext15 0A5F                          __ptext40 07EE  
                        __ptext32 0063                          __ptext24 095E                          __ptext16 0A3C  
                        __ptext41 0955                          __ptext33 0A82                          __ptext25 09C9  
                        __ptext17 0BF3                          __ptext42 094D                          __ptext34 04BA  
                        __ptext26 066E                          __ptext18 0C25                          __ptext35 0B1A  
                        __ptext27 0DB4                          __ptext19 0982                          __ptext28 0C8B  
                        __ptext37 0D33                          __ptext29 0B6D                          __ptext38 0AF1  
                        __ptext39 099E                 _NRF_Read_Register 0C25                   ??_NRF_Available 0073  
              ClickLed@DurationMs 0070                   ??_NRF_GetStatus 0071                ?_NRF_Read_Register 0023  
             ?_NRF_Write_Register 0026                     __size_of_main 004E               ??_NRF_Read_Register 0025  
                 ??_NRF_SetCRCLen 002D           __size_ofi1_SPI_Exchange 0009                          int$flags 007E  
                     _NFR_RxPipes 00A7                      _SSP1STATbits 0214              ??_NRF_Write_Register 0029  
          NRF_Read_Register@Bytes 0023                        _INTCONbits 000B         __end_of_NRF_Read_Register 0C58  
                        intlevel1 0000                     ?_KeepDistance 0070                  ___lwmod@dividend 0024  
            LinearTransiant@Slope 005C                       _NRF_Payload 00D9              _NRF_SetAddrWidth$456 002E  
               _NRF_SetRFDataRate 0B99            __size_of_NRF24L01_Init 000C                ?_NRF_SetRFDataRate 0070  
      __end_of_NRF_StartListening 0A1A             __size_of_SPI_Exchange 000E                _NRF_SetRFPower$451 002F  
         __end_of_Task_LedManager 0A3C                     __pstringtext1 02BA                     __pstringtext2 1000  
                   __pstringtext3 0000            __Umul8_16@multiplicand 0022                        _OPTION_REG 0095  
             ??_NRF_SetRFDataRate 002D                  ?_NRF_ReadPayload 0077                        _NRF_SetART 0ACA  
                 ___lwmod@divisor 0022       __end_of_NRF_OpenReadingPipe 0F53                   ___lwmod@counter 0027  
             LinearTransiant@diff 0060                 ?_NRF_SetRFChannel 0070  NRF_OpenReadingPipe@PayloadLength 0033  
                  ??_KeepDistance 0022                ??_NRF_SetRFChannel 002D                  NRF_SetCRCLen@Len 002E  
                NRF_ReadPayload@i 0021              __Umul8_16@multiplier 002A         __end_of_NRF_SetRFDataRate 0BC5  
                    _SPI_Exchange 0982                 __Umul8_16@product 0026                 ?_NRF_SetAddrWidth 0070  
