

Microchip MPLAB XC8 Assembler V2.31 build 20201012212115 
                                                                                               Thu Apr 22 00:16:49 2021

Microchip MPLAB XC8 C Compiler v2.31 (Free license) build 20201012212115 Og1 
     1                           	processor	16F1509
     2                           	pagewidth 120
     3                           	opt	flic
     4                           	psect	stringtext1,global,class=STRCODE,delta=2,noexec
     5                           	psect	cinit,global,class=CODE,merge=1,delta=2
     6                           	psect	bssBANK0,global,class=BANK0,space=1,delta=1,noexec
     7                           	psect	bssBANK1,global,class=BANK1,space=1,delta=1,noexec
     8                           	psect	bssBANK2,global,class=BANK2,space=1,delta=1,noexec
     9                           	psect	clrtext,global,class=CODE,delta=2
    10                           	psect	cstackBANK1,global,class=BANK1,space=1,delta=1,noexec
    11                           	psect	cstackCOMMON,global,class=COMMON,space=1,delta=1,noexec
    12                           	psect	cstackBANK0,global,class=BANK0,space=1,delta=1,noexec
    13                           	psect	maintext,global,class=CODE,merge=1,split=1,delta=2
    14                           	psect	text1,local,class=CODE,merge=1,delta=2
    15                           	psect	text2,local,class=CODE,merge=1,delta=2
    16                           	psect	text3,local,class=CODE,merge=1,delta=2
    17                           	psect	text4,local,class=CODE,merge=1,delta=2
    18                           	psect	text5,local,class=CODE,merge=1,delta=2
    19                           	psect	text6,local,class=CODE,merge=1,delta=2
    20                           	psect	text7,local,class=CODE,merge=1,delta=2
    21                           	psect	text8,local,class=CODE,merge=1,delta=2
    22                           	psect	text9,local,class=CODE,merge=1,delta=2
    23                           	psect	text10,local,class=CODE,merge=1,delta=2
    24                           	psect	text11,local,class=CODE,merge=1,delta=2
    25                           	psect	text12,local,class=CODE,merge=1,delta=2
    26                           	psect	text13,local,class=CODE,merge=1,delta=2
    27                           	psect	text14,local,class=CODE,merge=1,delta=2,group=1
    28                           	psect	text15,local,class=CODE,merge=1,delta=2
    29                           	psect	text16,local,class=CODE,merge=1,delta=2
    30                           	psect	text17,local,class=CODE,merge=1,delta=2
    31                           	psect	text18,local,class=CODE,merge=1,delta=2
    32                           	psect	text19,local,class=CODE,merge=1,delta=2
    33                           	psect	text20,local,class=CODE,merge=1,delta=2
    34                           	psect	text21,local,class=CODE,merge=1,delta=2
    35                           	psect	text22,local,class=CODE,merge=1,delta=2
    36                           	psect	text23,local,class=CODE,merge=1,delta=2
    37                           	psect	text24,local,class=CODE,merge=1,delta=2
    38                           	psect	text25,local,class=CODE,merge=1,delta=2
    39                           	psect	text26,local,class=CODE,merge=1,delta=2
    40                           	psect	text27,local,class=CODE,merge=1,delta=2
    41                           	psect	text28,local,class=CODE,merge=1,delta=2
    42                           	psect	text29,local,class=CODE,merge=1,delta=2
    43                           	psect	text30,local,class=CODE,merge=1,delta=2
    44                           	psect	text31,local,class=CODE,merge=1,delta=2
    45                           	psect	text32,local,class=CODE,merge=1,delta=2
    46                           	psect	text33,local,class=CODE,merge=1,delta=2
    47                           	psect	text34,local,class=CODE,merge=1,delta=2
    48                           	psect	text35,local,class=CODE,merge=1,delta=2
    49                           	psect	text36,local,class=CODE,merge=1,delta=2,group=1
    50                           	psect	text37,local,class=CODE,merge=1,delta=2
    51                           	psect	text38,local,class=CODE,merge=1,delta=2,group=1
    52                           	psect	text39,local,class=CODE,merge=1,delta=2,group=1
    53                           	psect	text40,local,class=CODE,merge=1,delta=2,group=1
    54                           	psect	text41,local,class=CODE,merge=1,delta=2,group=1
    55                           	psect	text42,local,class=CODE,merge=1,delta=2,group=1
    56                           	psect	text43,local,class=CODE,merge=1,delta=2
    57                           	psect	text44,local,class=CODE,merge=1,delta=2
    58                           	psect	text45,local,class=CODE,merge=1,delta=2
    59                           	psect	text46,local,class=CODE,merge=1,delta=2
    60                           	psect	intentry,global,class=CODE,delta=2
    61                           	psect	text48,local,class=CODE,merge=1,delta=2
    62                           	psect	text49,local,class=CODE,merge=1,delta=2
    63                           	psect	text50,local,class=CODE,merge=1,delta=2
    64                           	psect	text51,local,class=CODE,merge=1,delta=2
    65                           	psect	text52,local,class=CODE,merge=1,delta=2
    66                           	psect	text53,local,class=CODE,merge=1,delta=2
    67                           	psect	config,global,abs,ovrld,class=CONFIG,space=4,delta=2,noexec
    68                           	dabs	1,0x320,16
    69                           	dabs	1,0x2A0,80
    70                           	dabs	1,0x250,32
    71                           	dabs	1,0x2170,0,_CircularBuffer
    72                           	dabs	1,0x7E,2
    73  0000                     
    74                           ; Version 2.31
    75                           ; Generated 13/10/2020 GMT
    76                           ; 
    77                           ; Copyright © 2020, Microchip Technology Inc. and its subsidiaries ("Microchip")
    78                           ; All rights reserved.
    79                           ; 
    80                           ; This software is developed by Microchip Technology Inc. and its subsidiaries ("Microch
      +                          ip").
    81                           ; 
    82                           ; Redistribution and use in source and binary forms, with or without modification, are
    83                           ; permitted provided that the following conditions are met:
    84                           ; 
    85                           ;     1. Redistributions of source code must retain the above copyright notice, this lis
      +                          t of
    86                           ;        conditions and the following disclaimer.
    87                           ; 
    88                           ;     2. Redistributions in binary form must reproduce the above copyright notice, this 
      +                          list
    89                           ;        of conditions and the following disclaimer in the documentation and/or other
    90                           ;        materials provided with the distribution. Publication is not required when
    91                           ;        this file is used in an embedded application.
    92                           ; 
    93                           ;     3. Microchip's name may not be used to endorse or promote products derived from th
      +                          is
    94                           ;        software without specific prior written permission.
    95                           ; 
    96                           ; THIS SOFTWARE IS PROVIDED BY MICROCHIP "AS IS" AND ANY EXPRESS OR IMPLIED WARRANTIES,
    97                           ; INCLUDING, BUT NOT LIMITED TO, THE IMPLIED WARRANTIES OF MERCHANTABILITY AND FITNESS F
      +                          OR
    98                           ; PURPOSE ARE DISCLAIMED.  IN NO EVENT SHALL MICROCHIP BE LIABLE FOR ANY DIRECT, INDIREC
      +                          T,
    99                           ; INCIDENTAL, SPECIAL, EXEMPLARY, OR CONSEQUENTIAL DAMAGES (INCLUDING BUT NOT LIMITED TO
   100                           ; PROCUREMENT OF SUBSTITUTE GOODS OR SERVICES; LOSS OF USE, DATA OR PROFITS; OR BUSINESS
   101                           ; INTERRUPTION) HOWSOEVER CAUSED AND ON ANY THEORY OF LIABILITY, WHETHER IN CONTRACT, ST
      +                          RICT
   102                           ; LIABILITY, OR TORT (INCLUDING NEGLIGENCE OR OTHERWISE) ARISING IN ANY WAY OUT OF THE U
      +                          SE OF
   103                           ; THIS SOFTWARE, EVEN IF ADVISED OF THE POSSIBILITY OF SUCH DAMAGE.
   104                           ; 
   105                           ; 
   106                           ; Code-generator required, PIC16F1509 Definitions
   107                           ; 
   108                           ; SFR Addresses
   109  0000                     	;# 
   110  0001                     	;# 
   111  0002                     	;# 
   112  0003                     	;# 
   113  0004                     	;# 
   114  0005                     	;# 
   115  0006                     	;# 
   116  0007                     	;# 
   117  0008                     	;# 
   118  0009                     	;# 
   119  000A                     	;# 
   120  000B                     	;# 
   121  000C                     	;# 
   122  000D                     	;# 
   123  000E                     	;# 
   124  0011                     	;# 
   125  0012                     	;# 
   126  0013                     	;# 
   127  0015                     	;# 
   128  0016                     	;# 
   129  0016                     	;# 
   130  0017                     	;# 
   131  0018                     	;# 
   132  0019                     	;# 
   133  001A                     	;# 
   134  001B                     	;# 
   135  001C                     	;# 
   136  008C                     	;# 
   137  008D                     	;# 
   138  008E                     	;# 
   139  0091                     	;# 
   140  0092                     	;# 
   141  0093                     	;# 
   142  0095                     	;# 
   143  0096                     	;# 
   144  0097                     	;# 
   145  0099                     	;# 
   146  009A                     	;# 
   147  009B                     	;# 
   148  009B                     	;# 
   149  009C                     	;# 
   150  009D                     	;# 
   151  009E                     	;# 
   152  009F                     	;# 
   153  010C                     	;# 
   154  010D                     	;# 
   155  010E                     	;# 
   156  0111                     	;# 
   157  0112                     	;# 
   158  0113                     	;# 
   159  0114                     	;# 
   160  0115                     	;# 
   161  0116                     	;# 
   162  0117                     	;# 
   163  0118                     	;# 
   164  0119                     	;# 
   165  011D                     	;# 
   166  018C                     	;# 
   167  018D                     	;# 
   168  018E                     	;# 
   169  0191                     	;# 
   170  0191                     	;# 
   171  0192                     	;# 
   172  0193                     	;# 
   173  0193                     	;# 
   174  0194                     	;# 
   175  0195                     	;# 
   176  0196                     	;# 
   177  0197                     	;# 
   178  0199                     	;# 
   179  019A                     	;# 
   180  019B                     	;# 
   181  019B                     	;# 
   182  019C                     	;# 
   183  019D                     	;# 
   184  019E                     	;# 
   185  019F                     	;# 
   186  020C                     	;# 
   187  020D                     	;# 
   188  0211                     	;# 
   189  0211                     	;# 
   190  0212                     	;# 
   191  0212                     	;# 
   192  0213                     	;# 
   193  0213                     	;# 
   194  0214                     	;# 
   195  0214                     	;# 
   196  0215                     	;# 
   197  0215                     	;# 
   198  0215                     	;# 
   199  0216                     	;# 
   200  0216                     	;# 
   201  0217                     	;# 
   202  0217                     	;# 
   203  0391                     	;# 
   204  0392                     	;# 
   205  0393                     	;# 
   206  0394                     	;# 
   207  0395                     	;# 
   208  0396                     	;# 
   209  0498                     	;# 
   210  0498                     	;# 
   211  0499                     	;# 
   212  049A                     	;# 
   213  049B                     	;# 
   214  049B                     	;# 
   215  049C                     	;# 
   216  049D                     	;# 
   217  049E                     	;# 
   218  049F                     	;# 
   219  0611                     	;# 
   220  0612                     	;# 
   221  0613                     	;# 
   222  0613                     	;# 
   223  0614                     	;# 
   224  0615                     	;# 
   225  0616                     	;# 
   226  0616                     	;# 
   227  0617                     	;# 
   228  0618                     	;# 
   229  0619                     	;# 
   230  0619                     	;# 
   231  061A                     	;# 
   232  061B                     	;# 
   233  061C                     	;# 
   234  061C                     	;# 
   235  0691                     	;# 
   236  0692                     	;# 
   237  0693                     	;# 
   238  0694                     	;# 
   239  0695                     	;# 
   240  0F0F                     	;# 
   241  0F10                     	;# 
   242  0F11                     	;# 
   243  0F12                     	;# 
   244  0F13                     	;# 
   245  0F14                     	;# 
   246  0F15                     	;# 
   247  0F16                     	;# 
   248  0F17                     	;# 
   249  0F18                     	;# 
   250  0F19                     	;# 
   251  0F1A                     	;# 
   252  0F1B                     	;# 
   253  0F1C                     	;# 
   254  0F1D                     	;# 
   255  0F1E                     	;# 
   256  0F1F                     	;# 
   257  0F20                     	;# 
   258  0F21                     	;# 
   259  0F22                     	;# 
   260  0F23                     	;# 
   261  0F24                     	;# 
   262  0F25                     	;# 
   263  0F26                     	;# 
   264  0F27                     	;# 
   265  0F28                     	;# 
   266  0F29                     	;# 
   267  0F2A                     	;# 
   268  0F2B                     	;# 
   269  0F2C                     	;# 
   270  0F2D                     	;# 
   271  0F2E                     	;# 
   272  0F2F                     	;# 
   273  0F8C                     	;# 
   274  0F8D                     	;# 
   275  0F91                     	;# 
   276  0F95                     	;# 
   277  0F96                     	;# 
   278  0F97                     	;# 
   279  0F9C                     	;# 
   280  0F9D                     	;# 
   281  0F9E                     	;# 
   282  0FE3                     	;# 
   283  0FE4                     	;# 
   284  0FE5                     	;# 
   285  0FE6                     	;# 
   286  0FE7                     	;# 
   287  0FE8                     	;# 
   288  0FE9                     	;# 
   289  0FEA                     	;# 
   290  0FEB                     	;# 
   291  0FED                     	;# 
   292  0FEE                     	;# 
   293  0FEF                     	;# 
   294  0000                     	;# 
   295  0001                     	;# 
   296  0002                     	;# 
   297  0003                     	;# 
   298  0004                     	;# 
   299  0005                     	;# 
   300  0006                     	;# 
   301  0007                     	;# 
   302  0008                     	;# 
   303  0009                     	;# 
   304  000A                     	;# 
   305  000B                     	;# 
   306  000C                     	;# 
   307  000D                     	;# 
   308  000E                     	;# 
   309  0011                     	;# 
   310  0012                     	;# 
   311  0013                     	;# 
   312  0015                     	;# 
   313  0016                     	;# 
   314  0016                     	;# 
   315  0017                     	;# 
   316  0018                     	;# 
   317  0019                     	;# 
   318  001A                     	;# 
   319  001B                     	;# 
   320  001C                     	;# 
   321  008C                     	;# 
   322  008D                     	;# 
   323  008E                     	;# 
   324  0091                     	;# 
   325  0092                     	;# 
   326  0093                     	;# 
   327  0095                     	;# 
   328  0096                     	;# 
   329  0097                     	;# 
   330  0099                     	;# 
   331  009A                     	;# 
   332  009B                     	;# 
   333  009B                     	;# 
   334  009C                     	;# 
   335  009D                     	;# 
   336  009E                     	;# 
   337  009F                     	;# 
   338  010C                     	;# 
   339  010D                     	;# 
   340  010E                     	;# 
   341  0111                     	;# 
   342  0112                     	;# 
   343  0113                     	;# 
   344  0114                     	;# 
   345  0115                     	;# 
   346  0116                     	;# 
   347  0117                     	;# 
   348  0118                     	;# 
   349  0119                     	;# 
   350  011D                     	;# 
   351  018C                     	;# 
   352  018D                     	;# 
   353  018E                     	;# 
   354  0191                     	;# 
   355  0191                     	;# 
   356  0192                     	;# 
   357  0193                     	;# 
   358  0193                     	;# 
   359  0194                     	;# 
   360  0195                     	;# 
   361  0196                     	;# 
   362  0197                     	;# 
   363  0199                     	;# 
   364  019A                     	;# 
   365  019B                     	;# 
   366  019B                     	;# 
   367  019C                     	;# 
   368  019D                     	;# 
   369  019E                     	;# 
   370  019F                     	;# 
   371  020C                     	;# 
   372  020D                     	;# 
   373  0211                     	;# 
   374  0211                     	;# 
   375  0212                     	;# 
   376  0212                     	;# 
   377  0213                     	;# 
   378  0213                     	;# 
   379  0214                     	;# 
   380  0214                     	;# 
   381  0215                     	;# 
   382  0215                     	;# 
   383  0215                     	;# 
   384  0216                     	;# 
   385  0216                     	;# 
   386  0217                     	;# 
   387  0217                     	;# 
   388  0391                     	;# 
   389  0392                     	;# 
   390  0393                     	;# 
   391  0394                     	;# 
   392  0395                     	;# 
   393  0396                     	;# 
   394  0498                     	;# 
   395  0498                     	;# 
   396  0499                     	;# 
   397  049A                     	;# 
   398  049B                     	;# 
   399  049B                     	;# 
   400  049C                     	;# 
   401  049D                     	;# 
   402  049E                     	;# 
   403  049F                     	;# 
   404  0611                     	;# 
   405  0612                     	;# 
   406  0613                     	;# 
   407  0613                     	;# 
   408  0614                     	;# 
   409  0615                     	;# 
   410  0616                     	;# 
   411  0616                     	;# 
   412  0617                     	;# 
   413  0618                     	;# 
   414  0619                     	;# 
   415  0619                     	;# 
   416  061A                     	;# 
   417  061B                     	;# 
   418  061C                     	;# 
   419  061C                     	;# 
   420  0691                     	;# 
   421  0692                     	;# 
   422  0693                     	;# 
   423  0694                     	;# 
   424  0695                     	;# 
   425  0F0F                     	;# 
   426  0F10                     	;# 
   427  0F11                     	;# 
   428  0F12                     	;# 
   429  0F13                     	;# 
   430  0F14                     	;# 
   431  0F15                     	;# 
   432  0F16                     	;# 
   433  0F17                     	;# 
   434  0F18                     	;# 
   435  0F19                     	;# 
   436  0F1A                     	;# 
   437  0F1B                     	;# 
   438  0F1C                     	;# 
   439  0F1D                     	;# 
   440  0F1E                     	;# 
   441  0F1F                     	;# 
   442  0F20                     	;# 
   443  0F21                     	;# 
   444  0F22                     	;# 
   445  0F23                     	;# 
   446  0F24                     	;# 
   447  0F25                     	;# 
   448  0F26                     	;# 
   449  0F27                     	;# 
   450  0F28                     	;# 
   451  0F29                     	;# 
   452  0F2A                     	;# 
   453  0F2B                     	;# 
   454  0F2C                     	;# 
   455  0F2D                     	;# 
   456  0F2E                     	;# 
   457  0F2F                     	;# 
   458  0F8C                     	;# 
   459  0F8D                     	;# 
   460  0F91                     	;# 
   461  0F95                     	;# 
   462  0F96                     	;# 
   463  0F97                     	;# 
   464  0F9C                     	;# 
   465  0F9D                     	;# 
   466  0F9E                     	;# 
   467  0FE3                     	;# 
   468  0FE4                     	;# 
   469  0FE5                     	;# 
   470  0FE6                     	;# 
   471  0FE7                     	;# 
   472  0FE8                     	;# 
   473  0FE9                     	;# 
   474  0FEA                     	;# 
   475  0FEB                     	;# 
   476  0FED                     	;# 
   477  0FEE                     	;# 
   478  0FEF                     	;# 
   479  0000                     	;# 
   480  0001                     	;# 
   481  0002                     	;# 
   482  0003                     	;# 
   483  0004                     	;# 
   484  0005                     	;# 
   485  0006                     	;# 
   486  0007                     	;# 
   487  0008                     	;# 
   488  0009                     	;# 
   489  000A                     	;# 
   490  000B                     	;# 
   491  000C                     	;# 
   492  000D                     	;# 
   493  000E                     	;# 
   494  0011                     	;# 
   495  0012                     	;# 
   496  0013                     	;# 
   497  0015                     	;# 
   498  0016                     	;# 
   499  0016                     	;# 
   500  0017                     	;# 
   501  0018                     	;# 
   502  0019                     	;# 
   503  001A                     	;# 
   504  001B                     	;# 
   505  001C                     	;# 
   506  008C                     	;# 
   507  008D                     	;# 
   508  008E                     	;# 
   509  0091                     	;# 
   510  0092                     	;# 
   511  0093                     	;# 
   512  0095                     	;# 
   513  0096                     	;# 
   514  0097                     	;# 
   515  0099                     	;# 
   516  009A                     	;# 
   517  009B                     	;# 
   518  009B                     	;# 
   519  009C                     	;# 
   520  009D                     	;# 
   521  009E                     	;# 
   522  009F                     	;# 
   523  010C                     	;# 
   524  010D                     	;# 
   525  010E                     	;# 
   526  0111                     	;# 
   527  0112                     	;# 
   528  0113                     	;# 
   529  0114                     	;# 
   530  0115                     	;# 
   531  0116                     	;# 
   532  0117                     	;# 
   533  0118                     	;# 
   534  0119                     	;# 
   535  011D                     	;# 
   536  018C                     	;# 
   537  018D                     	;# 
   538  018E                     	;# 
   539  0191                     	;# 
   540  0191                     	;# 
   541  0192                     	;# 
   542  0193                     	;# 
   543  0193                     	;# 
   544  0194                     	;# 
   545  0195                     	;# 
   546  0196                     	;# 
   547  0197                     	;# 
   548  0199                     	;# 
   549  019A                     	;# 
   550  019B                     	;# 
   551  019B                     	;# 
   552  019C                     	;# 
   553  019D                     	;# 
   554  019E                     	;# 
   555  019F                     	;# 
   556  020C                     	;# 
   557  020D                     	;# 
   558  0211                     	;# 
   559  0211                     	;# 
   560  0212                     	;# 
   561  0212                     	;# 
   562  0213                     	;# 
   563  0213                     	;# 
   564  0214                     	;# 
   565  0214                     	;# 
   566  0215                     	;# 
   567  0215                     	;# 
   568  0215                     	;# 
   569  0216                     	;# 
   570  0216                     	;# 
   571  0217                     	;# 
   572  0217                     	;# 
   573  0391                     	;# 
   574  0392                     	;# 
   575  0393                     	;# 
   576  0394                     	;# 
   577  0395                     	;# 
   578  0396                     	;# 
   579  0498                     	;# 
   580  0498                     	;# 
   581  0499                     	;# 
   582  049A                     	;# 
   583  049B                     	;# 
   584  049B                     	;# 
   585  049C                     	;# 
   586  049D                     	;# 
   587  049E                     	;# 
   588  049F                     	;# 
   589  0611                     	;# 
   590  0612                     	;# 
   591  0613                     	;# 
   592  0613                     	;# 
   593  0614                     	;# 
   594  0615                     	;# 
   595  0616                     	;# 
   596  0616                     	;# 
   597  0617                     	;# 
   598  0618                     	;# 
   599  0619                     	;# 
   600  0619                     	;# 
   601  061A                     	;# 
   602  061B                     	;# 
   603  061C                     	;# 
   604  061C                     	;# 
   605  0691                     	;# 
   606  0692                     	;# 
   607  0693                     	;# 
   608  0694                     	;# 
   609  0695                     	;# 
   610  0F0F                     	;# 
   611  0F10                     	;# 
   612  0F11                     	;# 
   613  0F12                     	;# 
   614  0F13                     	;# 
   615  0F14                     	;# 
   616  0F15                     	;# 
   617  0F16                     	;# 
   618  0F17                     	;# 
   619  0F18                     	;# 
   620  0F19                     	;# 
   621  0F1A                     	;# 
   622  0F1B                     	;# 
   623  0F1C                     	;# 
   624  0F1D                     	;# 
   625  0F1E                     	;# 
   626  0F1F                     	;# 
   627  0F20                     	;# 
   628  0F21                     	;# 
   629  0F22                     	;# 
   630  0F23                     	;# 
   631  0F24                     	;# 
   632  0F25                     	;# 
   633  0F26                     	;# 
   634  0F27                     	;# 
   635  0F28                     	;# 
   636  0F29                     	;# 
   637  0F2A                     	;# 
   638  0F2B                     	;# 
   639  0F2C                     	;# 
   640  0F2D                     	;# 
   641  0F2E                     	;# 
   642  0F2F                     	;# 
   643  0F8C                     	;# 
   644  0F8D                     	;# 
   645  0F91                     	;# 
   646  0F95                     	;# 
   647  0F96                     	;# 
   648  0F97                     	;# 
   649  0F9C                     	;# 
   650  0F9D                     	;# 
   651  0F9E                     	;# 
   652  0FE3                     	;# 
   653  0FE4                     	;# 
   654  0FE5                     	;# 
   655  0FE6                     	;# 
   656  0FE7                     	;# 
   657  0FE8                     	;# 
   658  0FE9                     	;# 
   659  0FEA                     	;# 
   660  0FEB                     	;# 
   661  0FED                     	;# 
   662  0FEE                     	;# 
   663  0FEF                     	;# 
   664  0000                     	;# 
   665  0001                     	;# 
   666  0002                     	;# 
   667  0003                     	;# 
   668  0004                     	;# 
   669  0005                     	;# 
   670  0006                     	;# 
   671  0007                     	;# 
   672  0008                     	;# 
   673  0009                     	;# 
   674  000A                     	;# 
   675  000B                     	;# 
   676  000C                     	;# 
   677  000D                     	;# 
   678  000E                     	;# 
   679  0011                     	;# 
   680  0012                     	;# 
   681  0013                     	;# 
   682  0015                     	;# 
   683  0016                     	;# 
   684  0016                     	;# 
   685  0017                     	;# 
   686  0018                     	;# 
   687  0019                     	;# 
   688  001A                     	;# 
   689  001B                     	;# 
   690  001C                     	;# 
   691  008C                     	;# 
   692  008D                     	;# 
   693  008E                     	;# 
   694  0091                     	;# 
   695  0092                     	;# 
   696  0093                     	;# 
   697  0095                     	;# 
   698  0096                     	;# 
   699  0097                     	;# 
   700  0099                     	;# 
   701  009A                     	;# 
   702  009B                     	;# 
   703  009B                     	;# 
   704  009C                     	;# 
   705  009D                     	;# 
   706  009E                     	;# 
   707  009F                     	;# 
   708  010C                     	;# 
   709  010D                     	;# 
   710  010E                     	;# 
   711  0111                     	;# 
   712  0112                     	;# 
   713  0113                     	;# 
   714  0114                     	;# 
   715  0115                     	;# 
   716  0116                     	;# 
   717  0117                     	;# 
   718  0118                     	;# 
   719  0119                     	;# 
   720  011D                     	;# 
   721  018C                     	;# 
   722  018D                     	;# 
   723  018E                     	;# 
   724  0191                     	;# 
   725  0191                     	;# 
   726  0192                     	;# 
   727  0193                     	;# 
   728  0193                     	;# 
   729  0194                     	;# 
   730  0195                     	;# 
   731  0196                     	;# 
   732  0197                     	;# 
   733  0199                     	;# 
   734  019A                     	;# 
   735  019B                     	;# 
   736  019B                     	;# 
   737  019C                     	;# 
   738  019D                     	;# 
   739  019E                     	;# 
   740  019F                     	;# 
   741  020C                     	;# 
   742  020D                     	;# 
   743  0211                     	;# 
   744  0211                     	;# 
   745  0212                     	;# 
   746  0212                     	;# 
   747  0213                     	;# 
   748  0213                     	;# 
   749  0214                     	;# 
   750  0214                     	;# 
   751  0215                     	;# 
   752  0215                     	;# 
   753  0215                     	;# 
   754  0216                     	;# 
   755  0216                     	;# 
   756  0217                     	;# 
   757  0217                     	;# 
   758  0391                     	;# 
   759  0392                     	;# 
   760  0393                     	;# 
   761  0394                     	;# 
   762  0395                     	;# 
   763  0396                     	;# 
   764  0498                     	;# 
   765  0498                     	;# 
   766  0499                     	;# 
   767  049A                     	;# 
   768  049B                     	;# 
   769  049B                     	;# 
   770  049C                     	;# 
   771  049D                     	;# 
   772  049E                     	;# 
   773  049F                     	;# 
   774  0611                     	;# 
   775  0612                     	;# 
   776  0613                     	;# 
   777  0613                     	;# 
   778  0614                     	;# 
   779  0615                     	;# 
   780  0616                     	;# 
   781  0616                     	;# 
   782  0617                     	;# 
   783  0618                     	;# 
   784  0619                     	;# 
   785  0619                     	;# 
   786  061A                     	;# 
   787  061B                     	;# 
   788  061C                     	;# 
   789  061C                     	;# 
   790  0691                     	;# 
   791  0692                     	;# 
   792  0693                     	;# 
   793  0694                     	;# 
   794  0695                     	;# 
   795  0F0F                     	;# 
   796  0F10                     	;# 
   797  0F11                     	;# 
   798  0F12                     	;# 
   799  0F13                     	;# 
   800  0F14                     	;# 
   801  0F15                     	;# 
   802  0F16                     	;# 
   803  0F17                     	;# 
   804  0F18                     	;# 
   805  0F19                     	;# 
   806  0F1A                     	;# 
   807  0F1B                     	;# 
   808  0F1C                     	;# 
   809  0F1D                     	;# 
   810  0F1E                     	;# 
   811  0F1F                     	;# 
   812  0F20                     	;# 
   813  0F21                     	;# 
   814  0F22                     	;# 
   815  0F23                     	;# 
   816  0F24                     	;# 
   817  0F25                     	;# 
   818  0F26                     	;# 
   819  0F27                     	;# 
   820  0F28                     	;# 
   821  0F29                     	;# 
   822  0F2A                     	;# 
   823  0F2B                     	;# 
   824  0F2C                     	;# 
   825  0F2D                     	;# 
   826  0F2E                     	;# 
   827  0F2F                     	;# 
   828  0F8C                     	;# 
   829  0F8D                     	;# 
   830  0F91                     	;# 
   831  0F95                     	;# 
   832  0F96                     	;# 
   833  0F97                     	;# 
   834  0F9C                     	;# 
   835  0F9D                     	;# 
   836  0F9E                     	;# 
   837  0FE3                     	;# 
   838  0FE4                     	;# 
   839  0FE5                     	;# 
   840  0FE6                     	;# 
   841  0FE7                     	;# 
   842  0FE8                     	;# 
   843  0FE9                     	;# 
   844  0FEA                     	;# 
   845  0FEB                     	;# 
   846  0FED                     	;# 
   847  0FEE                     	;# 
   848  0FEF                     	;# 
   849  0000                     	;# 
   850  0001                     	;# 
   851  0002                     	;# 
   852  0003                     	;# 
   853  0004                     	;# 
   854  0005                     	;# 
   855  0006                     	;# 
   856  0007                     	;# 
   857  0008                     	;# 
   858  0009                     	;# 
   859  000A                     	;# 
   860  000B                     	;# 
   861  000C                     	;# 
   862  000D                     	;# 
   863  000E                     	;# 
   864  0011                     	;# 
   865  0012                     	;# 
   866  0013                     	;# 
   867  0015                     	;# 
   868  0016                     	;# 
   869  0016                     	;# 
   870  0017                     	;# 
   871  0018                     	;# 
   872  0019                     	;# 
   873  001A                     	;# 
   874  001B                     	;# 
   875  001C                     	;# 
   876  008C                     	;# 
   877  008D                     	;# 
   878  008E                     	;# 
   879  0091                     	;# 
   880  0092                     	;# 
   881  0093                     	;# 
   882  0095                     	;# 
   883  0096                     	;# 
   884  0097                     	;# 
   885  0099                     	;# 
   886  009A                     	;# 
   887  009B                     	;# 
   888  009B                     	;# 
   889  009C                     	;# 
   890  009D                     	;# 
   891  009E                     	;# 
   892  009F                     	;# 
   893  010C                     	;# 
   894  010D                     	;# 
   895  010E                     	;# 
   896  0111                     	;# 
   897  0112                     	;# 
   898  0113                     	;# 
   899  0114                     	;# 
   900  0115                     	;# 
   901  0116                     	;# 
   902  0117                     	;# 
   903  0118                     	;# 
   904  0119                     	;# 
   905  011D                     	;# 
   906  018C                     	;# 
   907  018D                     	;# 
   908  018E                     	;# 
   909  0191                     	;# 
   910  0191                     	;# 
   911  0192                     	;# 
   912  0193                     	;# 
   913  0193                     	;# 
   914  0194                     	;# 
   915  0195                     	;# 
   916  0196                     	;# 
   917  0197                     	;# 
   918  0199                     	;# 
   919  019A                     	;# 
   920  019B                     	;# 
   921  019B                     	;# 
   922  019C                     	;# 
   923  019D                     	;# 
   924  019E                     	;# 
   925  019F                     	;# 
   926  020C                     	;# 
   927  020D                     	;# 
   928  0211                     	;# 
   929  0211                     	;# 
   930  0212                     	;# 
   931  0212                     	;# 
   932  0213                     	;# 
   933  0213                     	;# 
   934  0214                     	;# 
   935  0214                     	;# 
   936  0215                     	;# 
   937  0215                     	;# 
   938  0215                     	;# 
   939  0216                     	;# 
   940  0216                     	;# 
   941  0217                     	;# 
   942  0217                     	;# 
   943  0391                     	;# 
   944  0392                     	;# 
   945  0393                     	;# 
   946  0394                     	;# 
   947  0395                     	;# 
   948  0396                     	;# 
   949  0498                     	;# 
   950  0498                     	;# 
   951  0499                     	;# 
   952  049A                     	;# 
   953  049B                     	;# 
   954  049B                     	;# 
   955  049C                     	;# 
   956  049D                     	;# 
   957  049E                     	;# 
   958  049F                     	;# 
   959  0611                     	;# 
   960  0612                     	;# 
   961  0613                     	;# 
   962  0613                     	;# 
   963  0614                     	;# 
   964  0615                     	;# 
   965  0616                     	;# 
   966  0616                     	;# 
   967  0617                     	;# 
   968  0618                     	;# 
   969  0619                     	;# 
   970  0619                     	;# 
   971  061A                     	;# 
   972  061B                     	;# 
   973  061C                     	;# 
   974  061C                     	;# 
   975  0691                     	;# 
   976  0692                     	;# 
   977  0693                     	;# 
   978  0694                     	;# 
   979  0695                     	;# 
   980  0F0F                     	;# 
   981  0F10                     	;# 
   982  0F11                     	;# 
   983  0F12                     	;# 
   984  0F13                     	;# 
   985  0F14                     	;# 
   986  0F15                     	;# 
   987  0F16                     	;# 
   988  0F17                     	;# 
   989  0F18                     	;# 
   990  0F19                     	;# 
   991  0F1A                     	;# 
   992  0F1B                     	;# 
   993  0F1C                     	;# 
   994  0F1D                     	;# 
   995  0F1E                     	;# 
   996  0F1F                     	;# 
   997  0F20                     	;# 
   998  0F21                     	;# 
   999  0F22                     	;# 
  1000  0F23                     	;# 
  1001  0F24                     	;# 
  1002  0F25                     	;# 
  1003  0F26                     	;# 
  1004  0F27                     	;# 
  1005  0F28                     	;# 
  1006  0F29                     	;# 
  1007  0F2A                     	;# 
  1008  0F2B                     	;# 
  1009  0F2C                     	;# 
  1010  0F2D                     	;# 
  1011  0F2E                     	;# 
  1012  0F2F                     	;# 
  1013  0F8C                     	;# 
  1014  0F8D                     	;# 
  1015  0F91                     	;# 
  1016  0F95                     	;# 
  1017  0F96                     	;# 
  1018  0F97                     	;# 
  1019  0F9C                     	;# 
  1020  0F9D                     	;# 
  1021  0F9E                     	;# 
  1022  0FE3                     	;# 
  1023  0FE4                     	;# 
  1024  0FE5                     	;# 
  1025  0FE6                     	;# 
  1026  0FE7                     	;# 
  1027  0FE8                     	;# 
  1028  0FE9                     	;# 
  1029  0FEA                     	;# 
  1030  0FEB                     	;# 
  1031  0FED                     	;# 
  1032  0FEE                     	;# 
  1033  0FEF                     	;_CircularBuffer
  1034                           
  1035                           	psect	stringtext1
  1036  02CB                     __pstringtext1:
  1037  02CB                     _gamma10:
  1038  02CB  3400               	retlw	0
  1039  02CC  3400               	retlw	0
  1040  02CD  3400               	retlw	0
  1041  02CE  3400               	retlw	0
  1042  02CF  3400               	retlw	0
  1043  02D0  3400               	retlw	0
  1044  02D1  3400               	retlw	0
  1045  02D2  3400               	retlw	0
  1046  02D3  3400               	retlw	0
  1047  02D4  3400               	retlw	0
  1048  02D5  3400               	retlw	0
  1049  02D6  3400               	retlw	0
  1050  02D7  3401               	retlw	1
  1051  02D8  3400               	retlw	0
  1052  02D9  3401               	retlw	1
  1053  02DA  3400               	retlw	0
  1054  02DB  3401               	retlw	1
  1055  02DC  3400               	retlw	0
  1056  02DD  3401               	retlw	1
  1057  02DE  3400               	retlw	0
  1058  02DF  3402               	retlw	2
  1059  02E0  3400               	retlw	0
  1060  02E1  3402               	retlw	2
  1061  02E2  3400               	retlw	0
  1062  02E3  3402               	retlw	2
  1063  02E4  3400               	retlw	0
  1064  02E5  3403               	retlw	3
  1065  02E6  3400               	retlw	0
  1066  02E7  3403               	retlw	3
  1067  02E8  3400               	retlw	0
  1068  02E9  3404               	retlw	4
  1069  02EA  3400               	retlw	0
  1070  02EB  3404               	retlw	4
  1071  02EC  3400               	retlw	0
  1072  02ED  3405               	retlw	5
  1073  02EE  3400               	retlw	0
  1074  02EF  3405               	retlw	5
  1075  02F0  3400               	retlw	0
  1076  02F1  3406               	retlw	6
  1077  02F2  3400               	retlw	0
  1078  02F3  3406               	retlw	6
  1079  02F4  3400               	retlw	0
  1080  02F5  3407               	retlw	7
  1081  02F6  3400               	retlw	0
  1082  02F7  3408               	retlw	8
  1083  02F8  3400               	retlw	0
  1084  02F9  3408               	retlw	8
  1085  02FA  3400               	retlw	0
  1086  02FB  3409               	retlw	9
  1087  02FC  3400               	retlw	0
  1088  02FD  340A               	retlw	10
  1089  02FE  3400               	retlw	0
  1090  02FF  340B               	retlw	11
  1091  0300  3400               	retlw	0
  1092  0301  340B               	retlw	11
  1093  0302  3400               	retlw	0
  1094  0303  340C               	retlw	12
  1095  0304  3400               	retlw	0
  1096  0305  340D               	retlw	13
  1097  0306  3400               	retlw	0
  1098  0307  340E               	retlw	14
  1099  0308  3400               	retlw	0
  1100  0309  340F               	retlw	15
  1101  030A  3400               	retlw	0
  1102  030B  3410               	retlw	16
  1103  030C  3400               	retlw	0
  1104  030D  3411               	retlw	17
  1105  030E  3400               	retlw	0
  1106  030F  3412               	retlw	18
  1107  0310  3400               	retlw	0
  1108  0311  3413               	retlw	19
  1109  0312  3400               	retlw	0
  1110  0313  3414               	retlw	20
  1111  0314  3400               	retlw	0
  1112  0315  3416               	retlw	22
  1113  0316  3400               	retlw	0
  1114  0317  3417               	retlw	23
  1115  0318  3400               	retlw	0
  1116  0319  3418               	retlw	24
  1117  031A  3400               	retlw	0
  1118  031B  3419               	retlw	25
  1119  031C  3400               	retlw	0
  1120  031D  341A               	retlw	26
  1121  031E  3400               	retlw	0
  1122  031F  341C               	retlw	28
  1123  0320  3400               	retlw	0
  1124  0321  341D               	retlw	29
  1125  0322  3400               	retlw	0
  1126  0323  341E               	retlw	30
  1127  0324  3400               	retlw	0
  1128  0325  3420               	retlw	32
  1129  0326  3400               	retlw	0
  1130  0327  3421               	retlw	33
  1131  0328  3400               	retlw	0
  1132  0329  3423               	retlw	35
  1133  032A  3400               	retlw	0
  1134  032B  3424               	retlw	36
  1135  032C  3400               	retlw	0
  1136  032D  3426               	retlw	38
  1137  032E  3400               	retlw	0
  1138  032F  3427               	retlw	39
  1139  0330  3400               	retlw	0
  1140  0331  3429               	retlw	41
  1141  0332  3400               	retlw	0
  1142  0333  342B               	retlw	43
  1143  0334  3400               	retlw	0
  1144  0335  342C               	retlw	44
  1145  0336  3400               	retlw	0
  1146  0337  342E               	retlw	46
  1147  0338  3400               	retlw	0
  1148  0339  3430               	retlw	48
  1149  033A  3400               	retlw	0
  1150  033B  3431               	retlw	49
  1151  033C  3400               	retlw	0
  1152  033D  3433               	retlw	51
  1153  033E  3400               	retlw	0
  1154  033F  3435               	retlw	53
  1155  0340  3400               	retlw	0
  1156  0341  3437               	retlw	55
  1157  0342  3400               	retlw	0
  1158  0343  3439               	retlw	57
  1159  0344  3400               	retlw	0
  1160  0345  343B               	retlw	59
  1161  0346  3400               	retlw	0
  1162  0347  343C               	retlw	60
  1163  0348  3400               	retlw	0
  1164  0349  343E               	retlw	62
  1165  034A  3400               	retlw	0
  1166  034B  3440               	retlw	64
  1167  034C  3400               	retlw	0
  1168  034D  3442               	retlw	66
  1169  034E  3400               	retlw	0
  1170  034F  3445               	retlw	69
  1171  0350  3400               	retlw	0
  1172  0351  3447               	retlw	71
  1173  0352  3400               	retlw	0
  1174  0353  3449               	retlw	73
  1175  0354  3400               	retlw	0
  1176  0355  344B               	retlw	75
  1177  0356  3400               	retlw	0
  1178  0357  344D               	retlw	77
  1179  0358  3400               	retlw	0
  1180  0359  344F               	retlw	79
  1181  035A  3400               	retlw	0
  1182  035B  3452               	retlw	82
  1183  035C  3400               	retlw	0
  1184  035D  3454               	retlw	84
  1185  035E  3400               	retlw	0
  1186  035F  3456               	retlw	86
  1187  0360  3400               	retlw	0
  1188  0361  3458               	retlw	88
  1189  0362  3400               	retlw	0
  1190  0363  345B               	retlw	91
  1191  0364  3400               	retlw	0
  1192  0365  345D               	retlw	93
  1193  0366  3400               	retlw	0
  1194  0367  3460               	retlw	96
  1195  0368  3400               	retlw	0
  1196  0369  3462               	retlw	98
  1197  036A  3400               	retlw	0
  1198  036B  3465               	retlw	101
  1199  036C  3400               	retlw	0
  1200  036D  3467               	retlw	103
  1201  036E  3400               	retlw	0
  1202  036F  346A               	retlw	106
  1203  0370  3400               	retlw	0
  1204  0371  346C               	retlw	108
  1205  0372  3400               	retlw	0
  1206  0373  346F               	retlw	111
  1207  0374  3400               	retlw	0
  1208  0375  3472               	retlw	114
  1209  0376  3400               	retlw	0
  1210  0377  3474               	retlw	116
  1211  0378  3400               	retlw	0
  1212  0379  3477               	retlw	119
  1213  037A  3400               	retlw	0
  1214  037B  347A               	retlw	122
  1215  037C  3400               	retlw	0
  1216  037D  347D               	retlw	125
  1217  037E  3400               	retlw	0
  1218  037F  347F               	retlw	127
  1219  0380  3400               	retlw	0
  1220  0381  3482               	retlw	130
  1221  0382  3400               	retlw	0
  1222  0383  3485               	retlw	133
  1223  0384  3400               	retlw	0
  1224  0385  3488               	retlw	136
  1225  0386  3400               	retlw	0
  1226  0387  348B               	retlw	139
  1227  0388  3400               	retlw	0
  1228  0389  348E               	retlw	142
  1229  038A  3400               	retlw	0
  1230  038B  3491               	retlw	145
  1231  038C  3400               	retlw	0
  1232  038D  3494               	retlw	148
  1233  038E  3400               	retlw	0
  1234  038F  3497               	retlw	151
  1235  0390  3400               	retlw	0
  1236  0391  349A               	retlw	154
  1237  0392  3400               	retlw	0
  1238  0393  349D               	retlw	157
  1239  0394  3400               	retlw	0
  1240  0395  34A0               	retlw	160
  1241  0396  3400               	retlw	0
  1242  0397  34A4               	retlw	164
  1243  0398  3400               	retlw	0
  1244  0399  34A7               	retlw	167
  1245  039A  3400               	retlw	0
  1246  039B  34AA               	retlw	170
  1247  039C  3400               	retlw	0
  1248  039D  34AD               	retlw	173
  1249  039E  3400               	retlw	0
  1250  039F  34B1               	retlw	177
  1251  03A0  3400               	retlw	0
  1252  03A1  34B4               	retlw	180
  1253  03A2  3400               	retlw	0
  1254  03A3  34B8               	retlw	184
  1255  03A4  3400               	retlw	0
  1256  03A5  34BB               	retlw	187
  1257  03A6  3400               	retlw	0
  1258  03A7  34BE               	retlw	190
  1259  03A8  3400               	retlw	0
  1260  03A9  34C2               	retlw	194
  1261  03AA  3400               	retlw	0
  1262  03AB  34C5               	retlw	197
  1263  03AC  3400               	retlw	0
  1264  03AD  34C9               	retlw	201
  1265  03AE  3400               	retlw	0
  1266  03AF  34CC               	retlw	204
  1267  03B0  3400               	retlw	0
  1268  03B1  34D0               	retlw	208
  1269  03B2  3400               	retlw	0
  1270  03B3  34D4               	retlw	212
  1271  03B4  3400               	retlw	0
  1272  03B5  34D7               	retlw	215
  1273  03B6  3400               	retlw	0
  1274  03B7  34DB               	retlw	219
  1275  03B8  3400               	retlw	0
  1276  03B9  34DF               	retlw	223
  1277  03BA  3400               	retlw	0
  1278  03BB  34E3               	retlw	227
  1279  03BC  3400               	retlw	0
  1280  03BD  34E6               	retlw	230
  1281  03BE  3400               	retlw	0
  1282  03BF  34EA               	retlw	234
  1283  03C0  3400               	retlw	0
  1284  03C1  34EE               	retlw	238
  1285  03C2  3400               	retlw	0
  1286  03C3  34F2               	retlw	242
  1287  03C4  3400               	retlw	0
  1288  03C5  34F6               	retlw	246
  1289  03C6  3400               	retlw	0
  1290  03C7  34FA               	retlw	250
  1291  03C8  3400               	retlw	0
  1292  03C9  34FE               	retlw	254
  1293  03CA  3400               	retlw	0
  1294  03CB  3402               	retlw	2
  1295  03CC  3401               	retlw	1
  1296  03CD  3406               	retlw	6
  1297  03CE  3401               	retlw	1
  1298  03CF  340A               	retlw	10
  1299  03D0  3401               	retlw	1
  1300  03D1  340E               	retlw	14
  1301  03D2  3401               	retlw	1
  1302  03D3  3412               	retlw	18
  1303  03D4  3401               	retlw	1
  1304  03D5  3416               	retlw	22
  1305  03D6  3401               	retlw	1
  1306  03D7  341A               	retlw	26
  1307  03D8  3401               	retlw	1
  1308  03D9  341F               	retlw	31
  1309  03DA  3401               	retlw	1
  1310  03DB  3423               	retlw	35
  1311  03DC  3401               	retlw	1
  1312  03DD  3427               	retlw	39
  1313  03DE  3401               	retlw	1
  1314  03DF  342C               	retlw	44
  1315  03E0  3401               	retlw	1
  1316  03E1  3430               	retlw	48
  1317  03E2  3401               	retlw	1
  1318  03E3  3434               	retlw	52
  1319  03E4  3401               	retlw	1
  1320  03E5  3439               	retlw	57
  1321  03E6  3401               	retlw	1
  1322  03E7  343D               	retlw	61
  1323  03E8  3401               	retlw	1
  1324  03E9  3442               	retlw	66
  1325  03EA  3401               	retlw	1
  1326  03EB  3446               	retlw	70
  1327  03EC  3401               	retlw	1
  1328  03ED  344B               	retlw	75
  1329  03EE  3401               	retlw	1
  1330  03EF  344F               	retlw	79
  1331  03F0  3401               	retlw	1
  1332  03F1  3454               	retlw	84
  1333  03F2  3401               	retlw	1
  1334  03F3  3459               	retlw	89
  1335  03F4  3401               	retlw	1
  1336  03F5  345D               	retlw	93
  1337  03F6  3401               	retlw	1
  1338  03F7  3462               	retlw	98
  1339  03F8  3401               	retlw	1
  1340  03F9  3467               	retlw	103
  1341  03FA  3401               	retlw	1
  1342  03FB  346B               	retlw	107
  1343  03FC  3401               	retlw	1
  1344  03FD  3470               	retlw	112
  1345  03FE  3401               	retlw	1
  1346  03FF  3475               	retlw	117
  1347  0400  3401               	retlw	1
  1348  0401  347A               	retlw	122
  1349  0402  3401               	retlw	1
  1350  0403  347F               	retlw	127
  1351  0404  3401               	retlw	1
  1352  0405  3484               	retlw	132
  1353  0406  3401               	retlw	1
  1354  0407  3489               	retlw	137
  1355  0408  3401               	retlw	1
  1356  0409  348E               	retlw	142
  1357  040A  3401               	retlw	1
  1358  040B  3493               	retlw	147
  1359  040C  3401               	retlw	1
  1360  040D  3498               	retlw	152
  1361  040E  3401               	retlw	1
  1362  040F  349D               	retlw	157
  1363  0410  3401               	retlw	1
  1364  0411  34A2               	retlw	162
  1365  0412  3401               	retlw	1
  1366  0413  34A7               	retlw	167
  1367  0414  3401               	retlw	1
  1368  0415  34AC               	retlw	172
  1369  0416  3401               	retlw	1
  1370  0417  34B2               	retlw	178
  1371  0418  3401               	retlw	1
  1372  0419  34B7               	retlw	183
  1373  041A  3401               	retlw	1
  1374  041B  34BC               	retlw	188
  1375  041C  3401               	retlw	1
  1376  041D  34C1               	retlw	193
  1377  041E  3401               	retlw	1
  1378  041F  34C7               	retlw	199
  1379  0420  3401               	retlw	1
  1380  0421  34CC               	retlw	204
  1381  0422  3401               	retlw	1
  1382  0423  34D1               	retlw	209
  1383  0424  3401               	retlw	1
  1384  0425  34D7               	retlw	215
  1385  0426  3401               	retlw	1
  1386  0427  34DC               	retlw	220
  1387  0428  3401               	retlw	1
  1388  0429  34E2               	retlw	226
  1389  042A  3401               	retlw	1
  1390  042B  34E7               	retlw	231
  1391  042C  3401               	retlw	1
  1392  042D  34ED               	retlw	237
  1393  042E  3401               	retlw	1
  1394  042F  34F2               	retlw	242
  1395  0430  3401               	retlw	1
  1396  0431  34F8               	retlw	248
  1397  0432  3401               	retlw	1
  1398  0433  34FE               	retlw	254
  1399  0434  3401               	retlw	1
  1400  0435  3403               	retlw	3
  1401  0436  3402               	retlw	2
  1402  0437  3409               	retlw	9
  1403  0438  3402               	retlw	2
  1404  0439  340F               	retlw	15
  1405  043A  3402               	retlw	2
  1406  043B  3415               	retlw	21
  1407  043C  3402               	retlw	2
  1408  043D  341A               	retlw	26
  1409  043E  3402               	retlw	2
  1410  043F  3420               	retlw	32
  1411  0440  3402               	retlw	2
  1412  0441  3426               	retlw	38
  1413  0442  3402               	retlw	2
  1414  0443  342C               	retlw	44
  1415  0444  3402               	retlw	2
  1416  0445  3432               	retlw	50
  1417  0446  3402               	retlw	2
  1418  0447  3438               	retlw	56
  1419  0448  3402               	retlw	2
  1420  0449  343E               	retlw	62
  1421  044A  3402               	retlw	2
  1422  044B  3444               	retlw	68
  1423  044C  3402               	retlw	2
  1424  044D  344A               	retlw	74
  1425  044E  3402               	retlw	2
  1426  044F  3450               	retlw	80
  1427  0450  3402               	retlw	2
  1428  0451  3456               	retlw	86
  1429  0452  3402               	retlw	2
  1430  0453  345C               	retlw	92
  1431  0454  3402               	retlw	2
  1432  0455  3463               	retlw	99
  1433  0456  3402               	retlw	2
  1434  0457  3469               	retlw	105
  1435  0458  3402               	retlw	2
  1436  0459  346F               	retlw	111
  1437  045A  3402               	retlw	2
  1438  045B  3475               	retlw	117
  1439  045C  3402               	retlw	2
  1440  045D  347C               	retlw	124
  1441  045E  3402               	retlw	2
  1442  045F  3482               	retlw	130
  1443  0460  3402               	retlw	2
  1444  0461  3488               	retlw	136
  1445  0462  3402               	retlw	2
  1446  0463  348F               	retlw	143
  1447  0464  3402               	retlw	2
  1448  0465  3495               	retlw	149
  1449  0466  3402               	retlw	2
  1450  0467  349C               	retlw	156
  1451  0468  3402               	retlw	2
  1452  0469  34A2               	retlw	162
  1453  046A  3402               	retlw	2
  1454  046B  34A9               	retlw	169
  1455  046C  3402               	retlw	2
  1456  046D  34AF               	retlw	175
  1457  046E  3402               	retlw	2
  1458  046F  34B6               	retlw	182
  1459  0470  3402               	retlw	2
  1460  0471  34BC               	retlw	188
  1461  0472  3402               	retlw	2
  1462  0473  34C3               	retlw	195
  1463  0474  3402               	retlw	2
  1464  0475  34CA               	retlw	202
  1465  0476  3402               	retlw	2
  1466  0477  34D0               	retlw	208
  1467  0478  3402               	retlw	2
  1468  0479  34D7               	retlw	215
  1469  047A  3402               	retlw	2
  1470  047B  34DE               	retlw	222
  1471  047C  3402               	retlw	2
  1472  047D  34E5               	retlw	229
  1473  047E  3402               	retlw	2
  1474  047F  34EC               	retlw	236
  1475  0480  3402               	retlw	2
  1476  0481  34F3               	retlw	243
  1477  0482  3402               	retlw	2
  1478  0483  34F9               	retlw	249
  1479  0484  3402               	retlw	2
  1480  0485  3400               	retlw	0
  1481  0486  3403               	retlw	3
  1482  0487  3407               	retlw	7
  1483  0488  3403               	retlw	3
  1484  0489  340E               	retlw	14
  1485  048A  3403               	retlw	3
  1486  048B  3415               	retlw	21
  1487  048C  3403               	retlw	3
  1488  048D  341C               	retlw	28
  1489  048E  3403               	retlw	3
  1490  048F  3424               	retlw	36
  1491  0490  3403               	retlw	3
  1492  0491  342B               	retlw	43
  1493  0492  3403               	retlw	3
  1494  0493  3432               	retlw	50
  1495  0494  3403               	retlw	3
  1496  0495  3439               	retlw	57
  1497  0496  3403               	retlw	3
  1498  0497  3440               	retlw	64
  1499  0498  3403               	retlw	3
  1500  0499  3447               	retlw	71
  1501  049A  3403               	retlw	3
  1502  049B  344F               	retlw	79
  1503  049C  3403               	retlw	3
  1504  049D  3456               	retlw	86
  1505  049E  3403               	retlw	3
  1506  049F  345D               	retlw	93
  1507  04A0  3403               	retlw	3
  1508  04A1  3465               	retlw	101
  1509  04A2  3403               	retlw	3
  1510  04A3  346C               	retlw	108
  1511  04A4  3403               	retlw	3
  1512  04A5  3474               	retlw	116
  1513  04A6  3403               	retlw	3
  1514  04A7  347B               	retlw	123
  1515  04A8  3403               	retlw	3
  1516  04A9  3483               	retlw	131
  1517  04AA  3403               	retlw	3
  1518  04AB  348A               	retlw	138
  1519  04AC  3403               	retlw	3
  1520  04AD  3492               	retlw	146
  1521  04AE  3403               	retlw	3
  1522  04AF  3499               	retlw	153
  1523  04B0  3403               	retlw	3
  1524  04B1  34A1               	retlw	161
  1525  04B2  3403               	retlw	3
  1526  04B3  34A9               	retlw	169
  1527  04B4  3403               	retlw	3
  1528  04B5  34B0               	retlw	176
  1529  04B6  3403               	retlw	3
  1530  04B7  34B8               	retlw	184
  1531  04B8  3403               	retlw	3
  1532  04B9  34C0               	retlw	192
  1533  04BA  3403               	retlw	3
  1534  04BB  34C8               	retlw	200
  1535  04BC  3403               	retlw	3
  1536  04BD  34CF               	retlw	207
  1537  04BE  3403               	retlw	3
  1538  04BF  34D7               	retlw	215
  1539  04C0  3403               	retlw	3
  1540  04C1  34DF               	retlw	223
  1541  04C2  3403               	retlw	3
  1542  04C3  34E7               	retlw	231
  1543  04C4  3403               	retlw	3
  1544  04C5  34EF               	retlw	239
  1545  04C6  3403               	retlw	3
  1546  04C7  34F7               	retlw	247
  1547  04C8  3403               	retlw	3
  1548  04C9  34FF               	retlw	255
  1549  04CA  3403               	retlw	3
  1550  04CB                     __end_of_gamma10:
  1551  001C                     _T2CON	set	28
  1552  001B                     _PR2	set	27
  1553  000B                     _INTCONbits	set	11
  1554  0015                     _TMR0	set	21
  1555  0058                     _IOCIF	set	88
  1556  005A                     _TMR0IF	set	90
  1557  009B                     _ADRESL	set	155
  1558  009C                     _ADRESH	set	156
  1559  009D                     _ADCON0	set	157
  1560  009E                     _ADCON1	set	158
  1561  0095                     _OPTION_REG	set	149
  1562  008C                     _TRISA	set	140
  1563  008D                     _TRISB	set	141
  1564  008E                     _TRISC	set	142
  1565  0099                     _OSCCON	set	153
  1566  010E                     _LATCbits	set	270
  1567  0194                     _PMDATH	set	404
  1568  0196                     _PMCON2	set	406
  1569  0193                     _PMDATL	set	403
  1570  0191                     _PMADRL	set	401
  1571  0192                     _PMADRH	set	402
  1572  0195                     _PMCON1bits	set	405
  1573  018E                     _ANSELC	set	398
  1574  018D                     _ANSELB	set	397
  1575  018C                     _ANSELA	set	396
  1576  0214                     _SSP1STATbits	set	532
  1577  0211                     _SSP1BUF	set	529
  1578  0215                     _SSP1CON1	set	533
  1579  0214                     _SSP1STAT	set	532
  1580  0393                     _IOCAF	set	915
  1581  0392                     _IOCAN	set	914
  1582  0615                     _PWM2DCH	set	1557
  1583  0614                     _PWM2DCL	set	1556
  1584  0612                     _PWM1DCH	set	1554
  1585  0611                     _PWM1DCL	set	1553
  1586  0616                     _PWM2CON	set	1558
  1587  0613                     _PWM1CON	set	1555
  1588                           
  1589                           	psect	cinit
  1590  0049                     start_initialization:	
  1591                           ; #config settings
  1592                           
  1593  0049                     __initialization:	;BIGRAM
  1594                           
  1595                           ; Clear objects allocated to BIGRAM
  1596  0049  3070               	movlw	low (0+8560)
  1597  004A  0084               	movwf	4
  1598  004B  3021               	movlw	high (0+8560)
  1599  004C  0085               	movwf	5
  1600  004D  3080               	movlw	128
  1601  004E  00FE               	movwf	btemp
  1602  004F  3000               	movlw	0
  1603  0050  00FF               	movwf	btemp+1
  1604  0051  3197  273F  3180   	fcall	clear_ram0
  1605                           
  1606                           ; Clear objects allocated to BANK0
  1607  0054  0020               	movlb	0	; select bank0
  1608  0055  01E4               	clrf	__pbssBANK0& (0+127)
  1609  0056  01E5               	clrf	(__pbssBANK0+1)& (0+127)
  1610  0057  01E6               	clrf	(__pbssBANK0+2)& (0+127)
  1611  0058  01E7               	clrf	(__pbssBANK0+3)& (0+127)
  1612  0059  01E8               	clrf	(__pbssBANK0+4)& (0+127)
  1613                           
  1614                           ; Clear objects allocated to BANK1
  1615  005A  30A0               	movlw	low __pbssBANK1
  1616  005B  0084               	movwf	4
  1617  005C  3000               	movlw	high __pbssBANK1
  1618  005D  0085               	movwf	5
  1619  005E  3040               	movlw	64
  1620  005F  00FE               	movwf	btemp
  1621  0060  3000               	movlw	0
  1622  0061  00FF               	movwf	btemp+1
  1623  0062  3197  273F  3180   	fcall	clear_ram0
  1624                           
  1625                           ; Clear objects allocated to BANK2
  1626  0065  3020               	movlw	low __pbssBANK2
  1627  0066  0084               	movwf	4
  1628  0067  3001               	movlw	high __pbssBANK2
  1629  0068  0085               	movwf	5
  1630  0069  3044               	movlw	68
  1631  006A  00FE               	movwf	btemp
  1632  006B  3000               	movlw	0
  1633  006C  00FF               	movwf	btemp+1
  1634  006D  3197  273F  3180   	fcall	clear_ram0
  1635  0070                     end_of_initialization:	
  1636                           ;End of C runtime variable initialization code
  1637                           
  1638  0070                     __end_of__initialization:
  1639  0070  107E               	bcf	int$flags,0	;clear compiler interrupt flag (level 1)
  1640  0071  0020               	movlb	0
  1641  0072  318C  2CA7         	ljmp	_main	;jump to C main() function
  1642                           
  1643                           	psect	bssBANK0
  1644  0064                     __pbssBANK0:
  1645  0064                     _p_NRF_SPI_Exchange:
  1646  0064                     	ds	2
  1647  0066                     _NwtFlags:
  1648  0066                     	ds	1
  1649  0067                     APPL_TASK_10MS@OldValue:
  1650  0067                     	ds	1
  1651  0068                     _Click:
  1652  0068                     	ds	1
  1653                           
  1654                           	psect	bssBANK1
  1655  00A0                     __pbssBANK1:
  1656  00A0                     _DataTx:
  1657  00A0                     	ds	8
  1658  00A8                     _MyQueue:
  1659  00A8                     	ds	6
  1660  00AE                     NetworkInit@F3699:
  1661  00AE                     	ds	5
  1662  00B3                     NetworkInit@F3697:
  1663  00B3                     	ds	5
  1664  00B8                     Task_LedManager@Timeout:
  1665  00B8                     	ds	2
  1666  00BA                     _Click_Duration:
  1667  00BA                     	ds	2
  1668  00BC                     _Tick_1ms:
  1669  00BC                     	ds	2
  1670  00BE                     _Slope2:
  1671  00BE                     	ds	1
  1672  00BF                     _Slope1:
  1673  00BF                     	ds	1
  1674  00C0                     _CmdPWM2:
  1675  00C0                     	ds	1
  1676  00C1                     _CmdPWM1:
  1677  00C1                     	ds	1
  1678  00C2                     _DataPipe:
  1679  00C2                     	ds	16
  1680  00D2                     _NRFChip:
  1681  00D2                     	ds	14
  1682                           
  1683                           	psect	bssBANK2
  1684  0120                     __pbssBANK2:
  1685  0120                     NVM_Init@F3693:
  1686  0120                     	ds	32
  1687  0140                     _NFR_RxPipes:
  1688  0140                     	ds	36
  1689                           
  1690                           	psect	clrtext
  1691  173F                     clear_ram0:	
  1692                           ;	Called with FSR0 containing the base address, and
  1693                           ;	btemp/btemp+1 has the size to clear
  1694                           
  1695  173F  0064               	clrwdt	;clear the watchdog before getting into this loop
  1696  1740                     clrloop0:
  1697  1740  0180               	clrf	0	;clear RAM location pointed to by FSR
  1698  1741  3101               	addfsr 0,1
  1699  1742  3001               	movlw	1
  1700  1743  02FE               	subwf	btemp,f
  1701  1744  3000               	movlw	0
  1702  1745  3BFF               	subwfb	btemp+1,f
  1703  1746  087F               	movf	btemp+1,w
  1704  1747  047E               	iorwf	btemp,w
  1705  1748  1D03               	skipz
  1706  1749  2F40               	goto	clrloop0	;have we reached the end yet?
  1707  174A  3400               	retlw	0	;all done for this memory range, return
  1708                           
  1709                           	psect	cstackBANK1
  1710  00E0                     __pcstackBANK1:
  1711  00E0                     LinearTransiant@Slope:
  1712                           
  1713                           ; 4 bytes @ 0x0
  1714  00E0                     	ds	4
  1715  00E4                     LinearTransiant@diff:
  1716                           
  1717                           ; 2 bytes @ 0x4
  1718  00E4                     	ds	2
  1719  00E6                     LinearTransiant@a:
  1720                           
  1721                           ; 1 bytes @ 0x6
  1722  00E6                     	ds	1
  1723  00E7                     LinearTransiant@i:
  1724                           
  1725                           ; 1 bytes @ 0x7
  1726  00E7                     	ds	1
  1727  00E8                     LinearTransiant@NewValue:
  1728                           
  1729                           ; 1 bytes @ 0x8
  1730  00E8                     	ds	1
  1731  00E9                     main@Task10ms:
  1732                           
  1733                           ; 2 bytes @ 0x9
  1734  00E9                     	ds	2
  1735  00EB                     main@Task100ms:
  1736                           
  1737                           ; 2 bytes @ 0xB
  1738  00EB                     	ds	2
  1739  00ED                     main@Task1000ms:
  1740                           
  1741                           ; 2 bytes @ 0xD
  1742  00ED                     	ds	2
  1743                           
  1744                           	psect	cstackCOMMON
  1745  0070                     __pcstackCOMMON:
  1746  0070                     ?_MCU_Init:
  1747  0070                     ?_NVM_Init:	
  1748                           ; 1 bytes @ 0x0
  1749                           
  1750  0070                     ?_NetworkInit:	
  1751                           ; 1 bytes @ 0x0
  1752                           
  1753  0070                     ?_Appl_Init:	
  1754                           ; 1 bytes @ 0x0
  1755                           
  1756  0070                     ?_Task_LedManager:	
  1757                           ; 1 bytes @ 0x0
  1758                           
  1759  0070                     ?_NetworkManager:	
  1760                           ; 1 bytes @ 0x0
  1761                           
  1762  0070                     ?_APPL_TASK_10MS:	
  1763                           ; 1 bytes @ 0x0
  1764                           
  1765  0070                     ?_QueueInit:	
  1766                           ; 1 bytes @ 0x0
  1767                           
  1768  0070                     ?_Get_PWM1Cmd:	
  1769                           ; 1 bytes @ 0x0
  1770                           
  1771  0070                     ?_Get_Slope1:	
  1772                           ; 1 bytes @ 0x0
  1773                           
  1774  0070                     ?_Get_PWM2Cmd:	
  1775                           ; 1 bytes @ 0x0
  1776                           
  1777  0070                     ?_NRF_SetCRCLen:	
  1778                           ; 1 bytes @ 0x0
  1779                           
  1780  0070                     ?_NRF_SetAddrWidth:	
  1781                           ; 1 bytes @ 0x0
  1782                           
  1783  0070                     ?_NRF_SetRFDataRate:	
  1784                           ; 1 bytes @ 0x0
  1785                           
  1786  0070                     ?_NRF_SetRFPower:	
  1787                           ; 1 bytes @ 0x0
  1788                           
  1789  0070                     ?_NRF_SetRFChannel:	
  1790                           ; 1 bytes @ 0x0
  1791                           
  1792  0070                     ?_NRF_SetTxAddr:	
  1793                           ; 1 bytes @ 0x0
  1794                           
  1795  0070                     ?_NRF_StartListening:	
  1796                           ; 1 bytes @ 0x0
  1797                           
  1798  0070                     ?_NRF_PipeEnable:	
  1799                           ; 1 bytes @ 0x0
  1800                           
  1801  0070                     ?_NRF_PipeEnableAA:	
  1802                           ; 1 bytes @ 0x0
  1803                           
  1804  0070                     ?_NRF_GetStatus:	
  1805                           ; 1 bytes @ 0x0
  1806                           
  1807  0070                     ?_main:	
  1808                           ; 1 bytes @ 0x0
  1809                           
  1810  0070                     ?_IsFull:	
  1811                           ; 1 bytes @ 0x0
  1812                           
  1813  0070                     ?_IsEmpty:	
  1814                           ; 1 bytes @ 0x0
  1815                           
  1816  0070                     ?_KeepDistance:	
  1817                           ; 1 bytes @ 0x0
  1818                           
  1819  0070                     ?_enQueue:	
  1820                           ; 1 bytes @ 0x0
  1821                           
  1822  0070                     ?_deQueue:	
  1823                           ; 1 bytes @ 0x0
  1824                           
  1825  0070                     ?_ClickLed:	
  1826                           ; 1 bytes @ 0x0
  1827                           
  1828  0070                     ?_NRF_Available:	
  1829                           ; 1 bytes @ 0x0
  1830                           
  1831  0070                     ?_NWM_Unlock:	
  1832                           ; 1 bytes @ 0x0
  1833                           
  1834  0070                     ?_ISR:	
  1835                           ; 1 bytes @ 0x0
  1836                           
  1837  0070                     ?i1_SPI_Exchange:	
  1838                           ; 1 bytes @ 0x0
  1839                           
  1840  0070                     i1SPI_Exchange@Data:	
  1841                           ; 1 bytes @ 0x0
  1842                           
  1843  0070                     ClickLed@DurationMs:	
  1844                           ; 1 bytes @ 0x0
  1845                           
  1846                           
  1847                           ; 2 bytes @ 0x0
  1848  0070                     	ds	1
  1849  0071                     ??_NRF_GetStatus:
  1850  0071                     ?i1_NRF_Write_Register:	
  1851                           ; 1 bytes @ 0x1
  1852                           
  1853  0071                     ??i1_SPI_Exchange:	
  1854                           ; 1 bytes @ 0x1
  1855                           
  1856  0071                     i1NRF_Write_Register@Bytes:	
  1857                           ; 1 bytes @ 0x1
  1858                           
  1859                           
  1860                           ; 2 bytes @ 0x1
  1861  0071                     	ds	1
  1862  0072                     ??_ClickLed:
  1863                           
  1864                           ; 1 bytes @ 0x2
  1865  0072                     	ds	1
  1866  0073                     ??_NRF_Available:
  1867  0073                     i1NRF_Write_Register@Length:	
  1868                           ; 1 bytes @ 0x3
  1869                           
  1870                           
  1871                           ; 1 bytes @ 0x3
  1872  0073                     	ds	1
  1873  0074                     ??i1_NRF_Write_Register:
  1874  0074                     NRF_Available@PipiNo:	
  1875                           ; 1 bytes @ 0x4
  1876                           
  1877                           
  1878                           ; 1 bytes @ 0x4
  1879  0074                     	ds	4
  1880  0078                     i1NRF_Write_Register@Register:
  1881                           
  1882                           ; 1 bytes @ 0x8
  1883  0078                     	ds	1
  1884  0079                     i1NRF_Write_Register@i:
  1885                           
  1886                           ; 1 bytes @ 0x9
  1887  0079                     	ds	1
  1888  007A                     ?_NRF_ReadPayload:
  1889  007A                     NRF_ReadPayload@PayloadLength:	
  1890                           ; 1 bytes @ 0xA
  1891                           
  1892                           
  1893                           ; 1 bytes @ 0xA
  1894  007A                     	ds	1
  1895  007B                     ??_NRF_ReadPayload:
  1896                           
  1897                           ; 1 bytes @ 0xB
  1898  007B                     	ds	3
  1899                           
  1900                           	psect	cstackBANK0
  1901  0020                     __pcstackBANK0:
  1902  0020                     NRF_ReadPayload@Payload:
  1903                           
  1904                           ; 1 bytes @ 0x0
  1905  0020                     	ds	1
  1906  0021                     NRF_ReadPayload@i:
  1907                           
  1908                           ; 1 bytes @ 0x1
  1909  0021                     	ds	1
  1910  0022                     ??_ISR:
  1911                           
  1912                           ; 1 bytes @ 0x2
  1913  0022                     	ds	2
  1914  0024                     ISR@PipeNo:
  1915                           
  1916                           ; 1 bytes @ 0x4
  1917  0024                     	ds	1
  1918  0025                     ??_Appl_Init:
  1919  0025                     ??_Task_LedManager:	
  1920                           ; 1 bytes @ 0x5
  1921                           
  1922  0025                     ??_NetworkManager:	
  1923                           ; 1 bytes @ 0x5
  1924                           
  1925  0025                     ??_QueueInit:	
  1926                           ; 1 bytes @ 0x5
  1927                           
  1928  0025                     ??_Get_PWM1Cmd:	
  1929                           ; 1 bytes @ 0x5
  1930                           
  1931  0025                     ??_Get_Slope1:	
  1932                           ; 1 bytes @ 0x5
  1933                           
  1934  0025                     ??_Get_PWM2Cmd:	
  1935                           ; 1 bytes @ 0x5
  1936                           
  1937  0025                     ?_SetPWM2:	
  1938                           ; 1 bytes @ 0x5
  1939                           
  1940  0025                     ?_SPI_Exchange:	
  1941                           ; 1 bytes @ 0x5
  1942                           
  1943  0025                     ?_NVM_Read:	
  1944                           ; 1 bytes @ 0x5
  1945                           
  1946  0025                     ?_NVM_Write_Row:	
  1947                           ; 1 bytes @ 0x5
  1948                           
  1949  0025                     ??_IsFull:	
  1950                           ; 1 bytes @ 0x5
  1951                           
  1952  0025                     ??_IsEmpty:	
  1953                           ; 1 bytes @ 0x5
  1954                           
  1955  0025                     ??_KeepDistance:	
  1956                           ; 1 bytes @ 0x5
  1957                           
  1958  0025                     ?_NRF_Set_SPI_Handler:	
  1959                           ; 1 bytes @ 0x5
  1960                           
  1961  0025                     ??_NWM_Unlock:	
  1962                           ; 1 bytes @ 0x5
  1963                           
  1964  0025                     ?___bmul:	
  1965                           ; 1 bytes @ 0x5
  1966                           
  1967  0025                     ?__Umul8_16:	
  1968                           ; 1 bytes @ 0x5
  1969                           
  1970  0025                     ?___lwmod:	
  1971                           ; 2 bytes @ 0x5
  1972                           
  1973  0025                     ?___xxtofl:	
  1974                           ; 2 bytes @ 0x5
  1975                           
  1976  0025                     SPI_Exchange@Data:	
  1977                           ; 4 bytes @ 0x5
  1978                           
  1979  0025                     ___bmul@multiplicand:	
  1980                           ; 1 bytes @ 0x5
  1981                           
  1982  0025                     __Umul8_16@multiplicand:	
  1983                           ; 1 bytes @ 0x5
  1984                           
  1985  0025                     NRF_Set_SPI_Handler@SPI_Handler:	
  1986                           ; 1 bytes @ 0x5
  1987                           
  1988  0025                     SetPWM2@DutyCycle:	
  1989                           ; 2 bytes @ 0x5
  1990                           
  1991  0025                     NVM_Read@address:	
  1992                           ; 2 bytes @ 0x5
  1993                           
  1994  0025                     NVM_Write_Row@address:	
  1995                           ; 2 bytes @ 0x5
  1996                           
  1997  0025                     ___lwmod@divisor:	
  1998                           ; 2 bytes @ 0x5
  1999                           
  2000  0025                     ___xxtofl@val:	
  2001                           ; 2 bytes @ 0x5
  2002                           
  2003                           
  2004                           ; 4 bytes @ 0x5
  2005  0025                     	ds	1
  2006  0026                     ??_SPI_Exchange:
  2007  0026                     ?_NRF_Read_Register:	
  2008                           ; 1 bytes @ 0x6
  2009                           
  2010  0026                     ??___bmul:	
  2011                           ; 1 bytes @ 0x6
  2012                           
  2013  0026                     NRF_Read_Register@Bytes:	
  2014                           ; 1 bytes @ 0x6
  2015                           
  2016  0026                     KeepDistance@diff:	
  2017                           ; 1 bytes @ 0x6
  2018                           
  2019                           
  2020                           ; 2 bytes @ 0x6
  2021  0026                     	ds	1
  2022  0027                     ??_SetPWM2:
  2023  0027                     ?_NVM_Read_Buff:	
  2024                           ; 1 bytes @ 0x7
  2025                           
  2026  0027                     ?_NRF24L01_Init:	
  2027                           ; 1 bytes @ 0x7
  2028                           
  2029  0027                     ??_NVM_Read:	
  2030                           ; 1 bytes @ 0x7
  2031                           
  2032  0027                     ??__Umul8_16:	
  2033                           ; 1 bytes @ 0x7
  2034                           
  2035  0027                     ??_NRF_Set_SPI_Handler:	
  2036                           ; 1 bytes @ 0x7
  2037                           
  2038  0027                     _IsFull$130:	
  2039                           ; 1 bytes @ 0x7
  2040                           
  2041  0027                     NRF_Read_Register@Length:	
  2042                           ; 1 bytes @ 0x7
  2043                           
  2044  0027                     NVM_Write_Row@WriteBuff:	
  2045                           ; 1 bytes @ 0x7
  2046                           
  2047  0027                     ___bmul@product:	
  2048                           ; 1 bytes @ 0x7
  2049                           
  2050  0027                     NRF24L01_Init@SPI_Exchange:	
  2051                           ; 1 bytes @ 0x7
  2052                           
  2053  0027                     NVM_Read_Buff@address:	
  2054                           ; 2 bytes @ 0x7
  2055                           
  2056  0027                     ___lwmod@dividend:	
  2057                           ; 2 bytes @ 0x7
  2058                           
  2059                           
  2060                           ; 2 bytes @ 0x7
  2061  0027                     	ds	1
  2062  0028                     ??_NRF_Read_Register:
  2063  0028                     KeepDistance@amount:	
  2064                           ; 1 bytes @ 0x8
  2065                           
  2066  0028                     NVM_Write_Row@Length:	
  2067                           ; 1 bytes @ 0x8
  2068                           
  2069  0028                     ___bmul@multiplier:	
  2070                           ; 1 bytes @ 0x8
  2071                           
  2072                           
  2073                           ; 1 bytes @ 0x8
  2074  0028                     	ds	1
  2075  0029                     ??_NRF24L01_Init:
  2076  0029                     ??_NVM_Write_Row:	
  2077                           ; 1 bytes @ 0x9
  2078                           
  2079  0029                     ?_NRF_Write_Register:	
  2080                           ; 1 bytes @ 0x9
  2081                           
  2082  0029                     ??___lwmod:	
  2083                           ; 1 bytes @ 0x9
  2084                           
  2085  0029                     ??___xxtofl:	
  2086                           ; 1 bytes @ 0x9
  2087                           
  2088  0029                     KeepDistance@retVal:	
  2089                           ; 1 bytes @ 0x9
  2090                           
  2091  0029                     NVM_Read_Buff@RBuff:	
  2092                           ; 1 bytes @ 0x9
  2093                           
  2094  0029                     NRF_Write_Register@Bytes:	
  2095                           ; 1 bytes @ 0x9
  2096                           
  2097  0029                     __Umul8_16@product:	
  2098                           ; 2 bytes @ 0x9
  2099                           
  2100                           
  2101                           ; 2 bytes @ 0x9
  2102  0029                     	ds	1
  2103  002A                     NVM_Read_Buff@length:
  2104  002A                     ___lwmod@counter:	
  2105                           ; 1 bytes @ 0xA
  2106                           
  2107                           
  2108                           ; 1 bytes @ 0xA
  2109  002A                     	ds	1
  2110  002B                     ??_NVM_Read_Buff:
  2111  002B                     ??_enQueue:	
  2112                           ; 1 bytes @ 0xB
  2113                           
  2114  002B                     ??_deQueue:	
  2115                           ; 1 bytes @ 0xB
  2116                           
  2117  002B                     NRF_Write_Register@Length:	
  2118                           ; 1 bytes @ 0xB
  2119                           
  2120  002B                     NVM_Write_Row@i:	
  2121                           ; 1 bytes @ 0xB
  2122                           
  2123  002B                     __Umul8_16@word_mpld:	
  2124                           ; 1 bytes @ 0xB
  2125                           
  2126                           
  2127                           ; 2 bytes @ 0xB
  2128  002B                     	ds	1
  2129  002C                     ??_NVM_Init:
  2130  002C                     ??_NRF_Write_Register:	
  2131                           ; 1 bytes @ 0xC
  2132                           
  2133  002C                     NRF_Read_Register@Register:	
  2134                           ; 1 bytes @ 0xC
  2135                           
  2136                           
  2137                           ; 1 bytes @ 0xC
  2138  002C                     	ds	1
  2139  002D                     NRF_Read_Register@i:
  2140  002D                     NVM_Read_Buff@i:	
  2141                           ; 1 bytes @ 0xD
  2142                           
  2143  002D                     __Umul8_16@multiplier:	
  2144                           ; 1 bytes @ 0xD
  2145                           
  2146  002D                     ___xxtofl@sign:	
  2147                           ; 1 bytes @ 0xD
  2148                           
  2149                           
  2150                           ; 1 bytes @ 0xD
  2151  002D                     	ds	1
  2152  002E                     deQueue@element:
  2153  002E                     ___xxtofl@exp:	
  2154                           ; 1 bytes @ 0xE
  2155                           
  2156  002E                     NVM_Init@InitBuffer:	
  2157                           ; 1 bytes @ 0xE
  2158                           
  2159                           
  2160                           ; 32 bytes @ 0xE
  2161  002E                     	ds	1
  2162  002F                     ?_SetPWM1:
  2163  002F                     enQueue@element:	
  2164                           ; 1 bytes @ 0xF
  2165                           
  2166  002F                     NRF_Write_Register@Register:	
  2167                           ; 1 bytes @ 0xF
  2168                           
  2169  002F                     SetPWM1@DutyCycle:	
  2170                           ; 1 bytes @ 0xF
  2171                           
  2172  002F                     ___xxtofl@arg:	
  2173                           ; 2 bytes @ 0xF
  2174                           
  2175                           
  2176                           ; 4 bytes @ 0xF
  2177  002F                     	ds	1
  2178  0030                     NRF_Write_Register@Status:
  2179                           
  2180                           ; 1 bytes @ 0x10
  2181  0030                     	ds	1
  2182  0031                     ??_SetPWM1:
  2183  0031                     NRF_Write_Register@i:	
  2184                           ; 1 bytes @ 0x11
  2185                           
  2186                           
  2187                           ; 1 bytes @ 0x11
  2188  0031                     	ds	1
  2189  0032                     ??_NRF_SetCRCLen:
  2190  0032                     ??_NRF_SetAddrWidth:	
  2191                           ; 1 bytes @ 0x12
  2192                           
  2193  0032                     ??_NRF_SetRFDataRate:	
  2194                           ; 1 bytes @ 0x12
  2195                           
  2196  0032                     ??_NRF_SetRFPower:	
  2197                           ; 1 bytes @ 0x12
  2198                           
  2199  0032                     ??_NRF_SetRFChannel:	
  2200                           ; 1 bytes @ 0x12
  2201                           
  2202  0032                     ??_NRF_SetTxAddr:	
  2203                           ; 1 bytes @ 0x12
  2204                           
  2205  0032                     ?_NRF_SetART:	
  2206                           ; 1 bytes @ 0x12
  2207                           
  2208  0032                     ??_NRF_StartListening:	
  2209                           ; 1 bytes @ 0x12
  2210                           
  2211  0032                     ??_NRF_PipeEnable:	
  2212                           ; 1 bytes @ 0x12
  2213                           
  2214  0032                     ??_NRF_PipeEnableAA:	
  2215                           ; 1 bytes @ 0x12
  2216                           
  2217  0032                     NRF_SetART@delay:	
  2218                           ; 1 bytes @ 0x12
  2219                           
  2220                           
  2221                           ; 1 bytes @ 0x12
  2222  0032                     	ds	1
  2223  0033                     ??_MCU_Init:
  2224  0033                     ??_NRF_SetART:	
  2225                           ; 1 bytes @ 0x13
  2226                           
  2227  0033                     ?___fldiv:	
  2228                           ; 1 bytes @ 0x13
  2229                           
  2230  0033                     ?___flmul:	
  2231                           ; 4 bytes @ 0x13
  2232                           
  2233  0033                     NRF_SetCRCLen@Len:	
  2234                           ; 4 bytes @ 0x13
  2235                           
  2236  0033                     NRF_SetRFDataRate@Datarate:	
  2237                           ; 1 bytes @ 0x13
  2238                           
  2239  0033                     _NRF_SetAddrWidth$547:	
  2240                           ; 1 bytes @ 0x13
  2241                           
  2242  0033                     ___fldiv@a:	
  2243                           ; 2 bytes @ 0x13
  2244                           
  2245  0033                     ___flmul@b:	
  2246                           ; 4 bytes @ 0x13
  2247                           
  2248                           
  2249                           ; 4 bytes @ 0x13
  2250  0033                     	ds	1
  2251  0034                     NRF_SetTxAddr@PipeAddr:
  2252  0034                     NRF_PipeEnable@PipeNo:	
  2253                           ; 1 bytes @ 0x14
  2254                           
  2255  0034                     NRF_PipeEnableAA@PipeNo:	
  2256                           ; 1 bytes @ 0x14
  2257                           
  2258  0034                     NRF_SetART@count:	
  2259                           ; 1 bytes @ 0x14
  2260                           
  2261  0034                     _NRF_SetRFChannel$535:	
  2262                           ; 1 bytes @ 0x14
  2263                           
  2264  0034                     _NRF_SetRFPower$542:	
  2265                           ; 2 bytes @ 0x14
  2266                           
  2267                           
  2268                           ; 2 bytes @ 0x14
  2269  0034                     	ds	1
  2270  0035                     NRF_PipeEnable@EN:
  2271  0035                     NRF_PipeEnableAA@AA:	
  2272                           ; 1 bytes @ 0x15
  2273                           
  2274  0035                     NRF_SetAddrWidth@AddressWidth:	
  2275                           ; 1 bytes @ 0x15
  2276                           
  2277                           
  2278                           ; 1 bytes @ 0x15
  2279  0035                     	ds	1
  2280  0036                     ?_NRF_OpenReadingPipe:
  2281  0036                     NRF_OpenReadingPipe@PipeAddr:	
  2282                           ; 1 bytes @ 0x16
  2283                           
  2284  0036                     NRF_SetRFChannel@RF_Channel:	
  2285                           ; 1 bytes @ 0x16
  2286                           
  2287  0036                     NRF_SetRFPower@RF_Pow:	
  2288                           ; 1 bytes @ 0x16
  2289                           
  2290                           
  2291                           ; 1 bytes @ 0x16
  2292  0036                     	ds	1
  2293  0037                     NRF_OpenReadingPipe@PayloadLength:
  2294  0037                     ___fldiv@b:	
  2295                           ; 1 bytes @ 0x17
  2296                           
  2297  0037                     ___flmul@a:	
  2298                           ; 4 bytes @ 0x17
  2299                           
  2300                           
  2301                           ; 4 bytes @ 0x17
  2302  0037                     	ds	1
  2303  0038                     NRF_OpenReadingPipe@AutoAck:
  2304                           
  2305                           ; 1 bytes @ 0x18
  2306  0038                     	ds	1
  2307  0039                     NRF_OpenReadingPipe@Enable:
  2308                           
  2309                           ; 1 bytes @ 0x19
  2310  0039                     	ds	1
  2311  003A                     ??_NRF_OpenReadingPipe:
  2312                           
  2313                           ; 1 bytes @ 0x1A
  2314  003A                     	ds	1
  2315  003B                     ??___fldiv:
  2316  003B                     ??___flmul:	
  2317                           ; 1 bytes @ 0x1B
  2318                           
  2319                           
  2320                           ; 1 bytes @ 0x1B
  2321  003B                     	ds	3
  2322  003E                     _NRF_OpenReadingPipe$506:
  2323                           
  2324                           ; 2 bytes @ 0x1E
  2325  003E                     	ds	2
  2326  0040                     NRF_OpenReadingPipe@AW:
  2327  0040                     ___flmul@sign:	
  2328                           ; 1 bytes @ 0x20
  2329                           
  2330  0040                     ___fldiv@rem:	
  2331                           ; 1 bytes @ 0x20
  2332                           
  2333                           
  2334                           ; 4 bytes @ 0x20
  2335  0040                     	ds	1
  2336  0041                     NRF_OpenReadingPipe@i:
  2337  0041                     ___flmul@aexp:	
  2338                           ; 1 bytes @ 0x21
  2339                           
  2340                           
  2341                           ; 1 bytes @ 0x21
  2342  0041                     	ds	1
  2343  0042                     NRF_OpenReadingPipe@PipeNo:
  2344  0042                     ___flmul@grs:	
  2345                           ; 1 bytes @ 0x22
  2346                           
  2347                           
  2348                           ; 4 bytes @ 0x22
  2349  0042                     	ds	1
  2350  0043                     ??_NetworkInit:
  2351                           
  2352                           ; 1 bytes @ 0x23
  2353  0043                     	ds	1
  2354  0044                     ___fldiv@sign:
  2355                           
  2356                           ; 1 bytes @ 0x24
  2357  0044                     	ds	1
  2358  0045                     ___fldiv@new_exp:
  2359  0045                     NetworkInit@AddrPipe1:	
  2360                           ; 2 bytes @ 0x25
  2361                           
  2362                           
  2363                           ; 5 bytes @ 0x25
  2364  0045                     	ds	1
  2365  0046                     ___flmul@bexp:
  2366                           
  2367                           ; 1 bytes @ 0x26
  2368  0046                     	ds	1
  2369  0047                     ___fldiv@grs:
  2370  0047                     ___flmul@prod:	
  2371                           ; 4 bytes @ 0x27
  2372                           
  2373                           
  2374                           ; 4 bytes @ 0x27
  2375  0047                     	ds	3
  2376  004A                     NetworkInit@ModuleAddr:
  2377                           
  2378                           ; 5 bytes @ 0x2A
  2379  004A                     	ds	1
  2380  004B                     ___fldiv@bexp:
  2381  004B                     ___flmul@temp:	
  2382                           ; 1 bytes @ 0x2B
  2383                           
  2384                           
  2385                           ; 2 bytes @ 0x2B
  2386  004B                     	ds	1
  2387  004C                     ___fldiv@aexp:
  2388                           
  2389                           ; 1 bytes @ 0x2C
  2390  004C                     	ds	1
  2391  004D                     ?___fltol:
  2392  004D                     ___fltol@f1:	
  2393                           ; 4 bytes @ 0x2D
  2394                           
  2395                           
  2396                           ; 4 bytes @ 0x2D
  2397  004D                     	ds	4
  2398  0051                     ??___fltol:
  2399                           
  2400                           ; 1 bytes @ 0x31
  2401  0051                     	ds	5
  2402  0056                     ___fltol@sign1:
  2403                           
  2404                           ; 1 bytes @ 0x36
  2405  0056                     	ds	1
  2406  0057                     ___fltol@exp1:
  2407                           
  2408                           ; 1 bytes @ 0x37
  2409  0057                     	ds	1
  2410  0058                     ?_LinearTransiant:
  2411  0058                     LinearTransiant@OldValue:	
  2412                           ; 1 bytes @ 0x38
  2413                           
  2414                           
  2415                           ; 1 bytes @ 0x38
  2416  0058                     	ds	1
  2417  0059                     LinearTransiant@Duration10ms:
  2418                           
  2419                           ; 1 bytes @ 0x39
  2420  0059                     	ds	1
  2421  005A                     ??_LinearTransiant:
  2422                           
  2423                           ; 1 bytes @ 0x3A
  2424  005A                     	ds	5
  2425  005F                     ??_APPL_TASK_10MS:
  2426                           
  2427                           ; 1 bytes @ 0x3F
  2428  005F                     	ds	2
  2429  0061                     APPL_TASK_10MS@D_lay:
  2430                           
  2431                           ; 1 bytes @ 0x41
  2432  0061                     	ds	1
  2433  0062                     APPL_TASK_10MS@LED2:
  2434                           
  2435                           ; 1 bytes @ 0x42
  2436  0062                     	ds	1
  2437  0063                     APPL_TASK_10MS@LED1:
  2438                           
  2439                           ; 1 bytes @ 0x43
  2440  0063                     	ds	1
  2441  0064                     ??_main:
  2442                           
  2443                           	psect	maintext
  2444  0CA7                     __pmaintext:	
  2445                           ; 1 bytes @ 0x44
  2446 ;;
  2447 ;;Main: autosize = 0, tempsize = 0, incstack = 0, save=0
  2448 ;;
  2449 ;; *************** function _main *****************
  2450 ;; Defined at:
  2451 ;;		line 11 in file "02-SRC/02-APPLICATION/main.c"
  2452 ;; Parameters:    Size  Location     Type
  2453 ;;		None
  2454 ;; Auto vars:     Size  Location     Type
  2455 ;;  Task1000ms      2   13[BANK1 ] unsigned short 
  2456 ;;  Task100ms       2   11[BANK1 ] unsigned short 
  2457 ;;  Task10ms        2    9[BANK1 ] unsigned short 
  2458 ;; Return value:  Size  Location     Type
  2459 ;;                  1    wreg      void 
  2460 ;; Registers used:
  2461 ;;		wreg, fsr0l, fsr0h, fsr1l, fsr1h, status,2, status,0, pclath, cstack
  2462 ;; Tracked objects:
  2463 ;;		On entry : B1F/0
  2464 ;;		On exit  : 0/0
  2465 ;;		Unchanged: 0/0
  2466 ;; Data sizes:     COMMON   BANK0   BANK1   BANK2   BANK3   BANK4   BANK5   BANK6
  2467 ;;      Params:         0       0       0       0       0       0       0       0
  2468 ;;      Locals:         0       0       6       0       0       0       0       0
  2469 ;;      Temps:          0       0       0       0       0       0       0       0
  2470 ;;      Totals:         0       0       6       0       0       0       0       0
  2471 ;;Total ram usage:        6 bytes
  2472 ;; Hardware stack levels required when called:    9
  2473 ;; This function calls:
  2474 ;;		_APPL_TASK_10MS
  2475 ;;		_Appl_Init
  2476 ;;		_MCU_Init
  2477 ;;		_NVM_Init
  2478 ;;		_NetworkInit
  2479 ;;		_NetworkManager
  2480 ;;		_Task_LedManager
  2481 ;; This function is called by:
  2482 ;;		Startup code after reset
  2483 ;; This function uses a non-reentrant model
  2484 ;;
  2485                           
  2486                           
  2487                           ;psect for function _main
  2488  0CA7                     _main:
  2489  0CA7                     l3777:	
  2490                           ;incstack = 0
  2491                           ; Regs used in _main: [wreg-fsr1h+status,2+status,0+pclath+cstack]
  2492                           
  2493  0CA7  300A               	movlw	10
  2494  0CA8  0021               	movlb	1	; select bank1
  2495  0CA9  00E9               	movwf	main@Task10ms^(0+128)
  2496  0CAA  3000               	movlw	0
  2497  0CAB  00EA               	movwf	(main@Task10ms^(0+128)+1)
  2498  0CAC  3064               	movlw	100
  2499  0CAD  00EB               	movwf	main@Task100ms^(0+128)
  2500  0CAE  3000               	movlw	0
  2501  0CAF  00EC               	movwf	(main@Task100ms^(0+128)+1)
  2502  0CB0  30E8               	movlw	232
  2503  0CB1  00ED               	movwf	main@Task1000ms^(0+128)
  2504  0CB2  3003               	movlw	3
  2505  0CB3  00EE               	movwf	(main@Task1000ms^(0+128)+1)
  2506  0CB4                     l3779:
  2507  0CB4  318B  2338  318C   	fcall	_MCU_Init
  2508  0CB7                     l3781:
  2509  0CB7  318D  255B  318C   	fcall	_NVM_Init
  2510  0CBA                     l3783:
  2511  0CBA  318E  262E  318C   	fcall	_NetworkInit
  2512  0CBD                     l3785:
  2513  0CBD  3197  2706  318C   	fcall	_Appl_Init
  2514  0CC0                     l3787:
  2515  0CC0  3188  206A  318C   	fcall	_Task_LedManager
  2516  0CC3                     l3789:
  2517  0CC3  318A  2286  318C   	fcall	_NetworkManager
  2518  0CC6  0021               	movlb	1	; select bank1
  2519  0CC7  086A               	movf	(main@Task10ms+1)^(0+128),w
  2520  0CC8  023D               	subwf	(_Tick_1ms+1)^(0+128),w
  2521  0CC9  1D03               	skipz
  2522  0CCA  2CCD               	goto	u4255
  2523  0CCB  0869               	movf	main@Task10ms^(0+128),w
  2524  0CCC  023C               	subwf	_Tick_1ms^(0+128),w
  2525  0CCD                     u4255:
  2526  0CCD  1C03               	skipc
  2527  0CCE  2CD0               	goto	u4251
  2528  0CCF  2CD1               	goto	u4250
  2529  0CD0                     u4251:
  2530  0CD0  2CDA               	goto	l3795
  2531  0CD1                     u4250:
  2532  0CD1                     l3791:
  2533  0CD1  083C               	movf	_Tick_1ms^(0+128),w
  2534  0CD2  3E0A               	addlw	10
  2535  0CD3  00E9               	movwf	main@Task10ms^(0+128)
  2536  0CD4  3000               	movlw	0
  2537  0CD5  3D3D               	addwfc	(_Tick_1ms+1)^(0+128),w
  2538  0CD6  00EA               	movwf	(main@Task10ms+1)^(0+128)
  2539  0CD7                     l3793:
  2540  0CD7  318C  24FE  318C   	fcall	_APPL_TASK_10MS
  2541  0CDA                     l3795:
  2542  0CDA  0021               	movlb	1	; select bank1
  2543  0CDB  086C               	movf	(main@Task100ms+1)^(0+128),w
  2544  0CDC  023D               	subwf	(_Tick_1ms+1)^(0+128),w
  2545  0CDD  1D03               	skipz
  2546  0CDE  2CE1               	goto	u4265
  2547  0CDF  086B               	movf	main@Task100ms^(0+128),w
  2548  0CE0  023C               	subwf	_Tick_1ms^(0+128),w
  2549  0CE1                     u4265:
  2550  0CE1  1C03               	skipc
  2551  0CE2  2CE4               	goto	u4261
  2552  0CE3  2CE5               	goto	u4260
  2553  0CE4                     u4261:
  2554  0CE4  2CEB               	goto	l3799
  2555  0CE5                     u4260:
  2556  0CE5                     l3797:
  2557  0CE5  083C               	movf	_Tick_1ms^(0+128),w
  2558  0CE6  3E64               	addlw	100
  2559  0CE7  00EB               	movwf	main@Task100ms^(0+128)
  2560  0CE8  3000               	movlw	0
  2561  0CE9  3D3D               	addwfc	(_Tick_1ms+1)^(0+128),w
  2562  0CEA  00EC               	movwf	(main@Task100ms+1)^(0+128)
  2563  0CEB                     l3799:
  2564  0CEB  086E               	movf	(main@Task1000ms+1)^(0+128),w
  2565  0CEC  023D               	subwf	(_Tick_1ms+1)^(0+128),w
  2566  0CED  1D03               	skipz
  2567  0CEE  2CF1               	goto	u4275
  2568  0CEF  086D               	movf	main@Task1000ms^(0+128),w
  2569  0CF0  023C               	subwf	_Tick_1ms^(0+128),w
  2570  0CF1                     u4275:
  2571  0CF1  1C03               	skipc
  2572  0CF2  2CF4               	goto	u4271
  2573  0CF3  2CF5               	goto	u4270
  2574  0CF4                     u4271:
  2575  0CF4  2CC0               	goto	l3787
  2576  0CF5                     u4270:
  2577  0CF5                     l3801:
  2578  0CF5  083C               	movf	_Tick_1ms^(0+128),w
  2579  0CF6  3EE8               	addlw	232
  2580  0CF7  00ED               	movwf	main@Task1000ms^(0+128)
  2581  0CF8  3003               	movlw	3
  2582  0CF9  3D3D               	addwfc	(_Tick_1ms+1)^(0+128),w
  2583  0CFA  00EE               	movwf	(main@Task1000ms+1)^(0+128)
  2584  0CFB  2CC0               	goto	l3787
  2585  0CFC  3180  2847         	ljmp	start
  2586  0CFE                     __end_of_main:
  2587                           
  2588                           	psect	text1
  2589  086A                     __ptext1:	
  2590 ;; *************** function _Task_LedManager *****************
  2591 ;; Defined at:
  2592 ;;		line 146 in file "02-SRC/02-APPLICATION/Appl.c"
  2593 ;; Parameters:    Size  Location     Type
  2594 ;;		None
  2595 ;; Auto vars:     Size  Location     Type
  2596 ;;		None
  2597 ;; Return value:  Size  Location     Type
  2598 ;;                  1    wreg      void 
  2599 ;; Registers used:
  2600 ;;		wreg, status,2, status,0
  2601 ;; Tracked objects:
  2602 ;;		On entry : 0/0
  2603 ;;		On exit  : 0/0
  2604 ;;		Unchanged: 0/0
  2605 ;; Data sizes:     COMMON   BANK0   BANK1   BANK2   BANK3   BANK4   BANK5   BANK6
  2606 ;;      Params:         0       0       0       0       0       0       0       0
  2607 ;;      Locals:         0       0       0       0       0       0       0       0
  2608 ;;      Temps:          0       0       0       0       0       0       0       0
  2609 ;;      Totals:         0       0       0       0       0       0       0       0
  2610 ;;Total ram usage:        0 bytes
  2611 ;; Hardware stack levels used:    1
  2612 ;; Hardware stack levels required when called:    4
  2613 ;; This function calls:
  2614 ;;		Nothing
  2615 ;; This function is called by:
  2616 ;;		_main
  2617 ;; This function uses a non-reentrant model
  2618 ;;
  2619                           
  2620                           
  2621                           ;psect for function _Task_LedManager
  2622  086A                     _Task_LedManager:
  2623  086A                     l2899:	
  2624                           ;incstack = 0
  2625                           ; Regs used in _Task_LedManager: [wreg+status,2+status,0]
  2626                           
  2627  086A  0020               	movlb	0	; select bank0
  2628  086B  0868               	movf	_Click,w
  2629  086C  1903               	btfsc	3,2
  2630  086D  286F               	goto	u2861
  2631  086E  2870               	goto	u2860
  2632  086F                     u2861:
  2633  086F  287B               	goto	l2907
  2634  0870                     u2860:
  2635  0870                     l2901:
  2636  0870  01E8               	clrf	_Click
  2637  0871                     l2903:
  2638  0871  0022               	movlb	2	; select bank2
  2639  0872  160E               	bsf	14,4	;volatile
  2640  0873                     l2905:
  2641  0873  0021               	movlb	1	; select bank1
  2642  0874  083A               	movf	_Click_Duration^(0+128),w
  2643  0875  073C               	addwf	_Tick_1ms^(0+128),w
  2644  0876  00B8               	movwf	Task_LedManager@Timeout^(0+128)
  2645  0877  083B               	movf	(_Click_Duration+1)^(0+128),w
  2646  0878  3D3D               	addwfc	(_Tick_1ms+1)^(0+128),w
  2647  0879  00B9               	movwf	(Task_LedManager@Timeout+1)^(0+128)
  2648  087A  288C               	goto	l110
  2649  087B                     l2907:
  2650  087B  0021               	movlb	1	; select bank1
  2651  087C  0839               	movf	(Task_LedManager@Timeout+1)^(0+128),w
  2652  087D  023D               	subwf	(_Tick_1ms+1)^(0+128),w
  2653  087E  1D03               	skipz
  2654  087F  2882               	goto	u2875
  2655  0880  0838               	movf	Task_LedManager@Timeout^(0+128),w
  2656  0881  023C               	subwf	_Tick_1ms^(0+128),w
  2657  0882                     u2875:
  2658  0882  1C03               	skipc
  2659  0883  2885               	goto	u2871
  2660  0884  2886               	goto	u2870
  2661  0885                     u2871:
  2662  0885  288C               	goto	l110
  2663  0886                     u2870:
  2664  0886                     l2909:
  2665  0886  0022               	movlb	2	; select bank2
  2666  0887  1E0E               	btfss	14,4	;volatile
  2667  0888  288A               	goto	u2881
  2668  0889  288B               	goto	u2880
  2669  088A                     u2881:
  2670  088A  288C               	goto	l110
  2671  088B                     u2880:
  2672  088B                     l2911:
  2673  088B  120E               	bcf	14,4	;volatile
  2674  088C                     l110:
  2675  088C  0008               	return
  2676  088D                     __end_of_Task_LedManager:
  2677                           
  2678                           	psect	text2
  2679  0A86                     __ptext2:	
  2680 ;; *************** function _NetworkManager *****************
  2681 ;; Defined at:
  2682 ;;		line 40 in file "02-SRC/03-NETWORK/network.c"
  2683 ;; Parameters:    Size  Location     Type
  2684 ;;		None
  2685 ;; Auto vars:     Size  Location     Type
  2686 ;;		None
  2687 ;; Return value:  Size  Location     Type
  2688 ;;                  1    wreg      void 
  2689 ;; Registers used:
  2690 ;;		wreg, status,2, status,0
  2691 ;; Tracked objects:
  2692 ;;		On entry : 0/0
  2693 ;;		On exit  : 0/0
  2694 ;;		Unchanged: 0/0
  2695 ;; Data sizes:     COMMON   BANK0   BANK1   BANK2   BANK3   BANK4   BANK5   BANK6
  2696 ;;      Params:         0       0       0       0       0       0       0       0
  2697 ;;      Locals:         0       0       0       0       0       0       0       0
  2698 ;;      Temps:          0       1       0       0       0       0       0       0
  2699 ;;      Totals:         0       1       0       0       0       0       0       0
  2700 ;;Total ram usage:        1 bytes
  2701 ;; Hardware stack levels used:    1
  2702 ;; Hardware stack levels required when called:    4
  2703 ;; This function calls:
  2704 ;;		Nothing
  2705 ;; This function is called by:
  2706 ;;		_main
  2707 ;; This function uses a non-reentrant model
  2708 ;;
  2709                           
  2710                           
  2711                           ;psect for function _NetworkManager
  2712  0A86                     _NetworkManager:
  2713  0A86                     l2913:	
  2714                           ;incstack = 0
  2715                           ; Regs used in _NetworkManager: [wreg+status,2+status,0]
  2716                           
  2717  0A86  0020               	movlb	0	; select bank0
  2718  0A87  1CE6               	btfss	_NwtFlags,1
  2719  0A88  2A8A               	goto	u2891
  2720  0A89  2A8B               	goto	u2890
  2721  0A8A                     u2891:
  2722  0A8A  2A9A               	goto	l169
  2723  0A8B                     u2890:
  2724  0A8B                     l2915:
  2725  0A8B  0021               	movlb	1	; select bank1
  2726  0A8C  084C               	movf	(_DataPipe^(0+128)+10),w
  2727  0A8D  0020               	movlb	0	; select bank0
  2728  0A8E  00A5               	movwf	??_NetworkManager
  2729  0A8F  0825               	movf	??_NetworkManager,w
  2730  0A90  0021               	movlb	1	; select bank1
  2731  0A91  00C1               	movwf	_CmdPWM1^(0+128)
  2732  0A92  084D               	movf	(_DataPipe^(0+128)+11),w
  2733  0A93  0020               	movlb	0	; select bank0
  2734  0A94  00A5               	movwf	??_NetworkManager
  2735  0A95  0825               	movf	??_NetworkManager,w
  2736  0A96  0021               	movlb	1	; select bank1
  2737  0A97  00C0               	movwf	_CmdPWM2^(0+128)
  2738  0A98                     l2917:
  2739  0A98  0020               	movlb	0	; select bank0
  2740  0A99  10E6               	bcf	_NwtFlags,1
  2741  0A9A                     l169:
  2742  0A9A  1C66               	btfss	_NwtFlags,0
  2743  0A9B  2A9D               	goto	u2901
  2744  0A9C  2A9E               	goto	u2900
  2745  0A9D                     u2901:
  2746  0A9D  2ABF               	goto	l174
  2747  0A9E                     u2900:
  2748  0A9E                     l2919:
  2749  0A9E  3007               	movlw	7
  2750  0A9F  0021               	movlb	1	; select bank1
  2751  0AA0  0642               	xorwf	_DataPipe^(0+128),w
  2752  0AA1  1D03               	btfss	3,2
  2753  0AA2  2AA4               	goto	u2911
  2754  0AA3  2AA5               	goto	u2910
  2755  0AA4                     u2911:
  2756  0AA4  2ABD               	goto	l172
  2757  0AA5                     u2910:
  2758  0AA5                     l2921:
  2759  0AA5  0843               	movf	(_DataPipe^(0+128)+1),w
  2760  0AA6  0020               	movlb	0	; select bank0
  2761  0AA7  00A5               	movwf	??_NetworkManager
  2762  0AA8  0825               	movf	??_NetworkManager,w
  2763  0AA9  0021               	movlb	1	; select bank1
  2764  0AAA  00C1               	movwf	_CmdPWM1^(0+128)
  2765  0AAB  0844               	movf	(_DataPipe^(0+128)+2),w
  2766  0AAC  0020               	movlb	0	; select bank0
  2767  0AAD  00A5               	movwf	??_NetworkManager
  2768  0AAE  0825               	movf	??_NetworkManager,w
  2769  0AAF  0021               	movlb	1	; select bank1
  2770  0AB0  00BF               	movwf	_Slope1^(0+128)
  2771  0AB1  0845               	movf	(_DataPipe^(0+128)+3),w
  2772  0AB2  0020               	movlb	0	; select bank0
  2773  0AB3  00A5               	movwf	??_NetworkManager
  2774  0AB4  0825               	movf	??_NetworkManager,w
  2775  0AB5  0021               	movlb	1	; select bank1
  2776  0AB6  00C0               	movwf	_CmdPWM2^(0+128)
  2777  0AB7  0846               	movf	(_DataPipe^(0+128)+4),w
  2778  0AB8  0020               	movlb	0	; select bank0
  2779  0AB9  00A5               	movwf	??_NetworkManager
  2780  0ABA  0825               	movf	??_NetworkManager,w
  2781  0ABB  0021               	movlb	1	; select bank1
  2782  0ABC  00BE               	movwf	_Slope2^(0+128)
  2783  0ABD                     l172:
  2784  0ABD  0020               	movlb	0	; select bank0
  2785  0ABE  1066               	bcf	_NwtFlags,0
  2786  0ABF                     l174:
  2787  0ABF  0008               	return
  2788  0AC0                     __end_of_NetworkManager:
  2789                           
  2790                           	psect	text3
  2791  0E2E                     __ptext3:	
  2792 ;; *************** function _NetworkInit *****************
  2793 ;; Defined at:
  2794 ;;		line 18 in file "02-SRC/03-NETWORK/network.c"
  2795 ;; Parameters:    Size  Location     Type
  2796 ;;		None
  2797 ;; Auto vars:     Size  Location     Type
  2798 ;;  ModuleAddr      5   42[BANK0 ] unsigned char [5]
  2799 ;;  AddrPipe1       5   37[BANK0 ] unsigned char [5]
  2800 ;; Return value:  Size  Location     Type
  2801 ;;                  1    wreg      void 
  2802 ;; Registers used:
  2803 ;;		wreg, fsr1l, fsr1h, status,2, status,0, pclath, cstack
  2804 ;; Tracked objects:
  2805 ;;		On entry : 0/0
  2806 ;;		On exit  : 0/0
  2807 ;;		Unchanged: 0/0
  2808 ;; Data sizes:     COMMON   BANK0   BANK1   BANK2   BANK3   BANK4   BANK5   BANK6
  2809 ;;      Params:         0       0       0       0       0       0       0       0
  2810 ;;      Locals:         0      10       0       0       0       0       0       0
  2811 ;;      Temps:          0       2       0       0       0       0       0       0
  2812 ;;      Totals:         0      12       0       0       0       0       0       0
  2813 ;;Total ram usage:       12 bytes
  2814 ;; Hardware stack levels used:    1
  2815 ;; Hardware stack levels required when called:    8
  2816 ;; This function calls:
  2817 ;;		_NRF24L01_Init
  2818 ;;		_NRF_OpenReadingPipe
  2819 ;;		_NRF_SetART
  2820 ;;		_NRF_SetAddrWidth
  2821 ;;		_NRF_SetCRCLen
  2822 ;;		_NRF_SetRFChannel
  2823 ;;		_NRF_SetRFDataRate
  2824 ;;		_NRF_SetRFPower
  2825 ;;		_NRF_SetTxAddr
  2826 ;;		_NRF_StartListening
  2827 ;;		_NVM_Read_Buff
  2828 ;; This function is called by:
  2829 ;;		_main
  2830 ;; This function uses a non-reentrant model
  2831 ;;
  2832                           
  2833                           
  2834                           ;psect for function _NetworkInit
  2835  0E2E                     _NetworkInit:
  2836  0E2E                     l3705:	
  2837                           ;incstack = 0
  2838                           ; Regs used in _NetworkInit: [wreg+fsr1l+fsr1h+status,2+status,0+pclath+cstack]
  2839                           
  2840  0E2E  3045               	movlw	low NetworkInit@AddrPipe1
  2841  0E2F  0086               	movwf	6
  2842  0E30  3000               	movlw	high NetworkInit@AddrPipe1
  2843  0E31  0087               	movwf	7
  2844  0E32  3005               	movlw	5
  2845  0E33  0020               	movlb	0	; select bank0
  2846  0E34  00C3               	movwf	??_NetworkInit
  2847  0E35  3000               	movlw	0
  2848  0E36                     u4200:
  2849  0E36  001E               	movwi fsr1++
  2850  0E37  0BC3               	decfsz	??_NetworkInit,f
  2851  0E38  2E36               	goto	u4200
  2852  0E39  304A               	movlw	low NetworkInit@ModuleAddr
  2853  0E3A  0086               	movwf	6
  2854  0E3B  3000               	movlw	high NetworkInit@ModuleAddr
  2855  0E3C  0087               	movwf	7
  2856  0E3D  3005               	movlw	5
  2857  0E3E  00C3               	movwf	??_NetworkInit
  2858  0E3F  3000               	movlw	0
  2859  0E40                     u4210:
  2860  0E40  001E               	movwi fsr1++
  2861  0E41  0BC3               	decfsz	??_NetworkInit,f
  2862  0E42  2E40               	goto	u4210
  2863  0E43                     l3707:
  2864  0E43  3081               	movlw	129
  2865  0E44  00A7               	movwf	NVM_Read_Buff@address
  2866  0E45  301F               	movlw	31
  2867  0E46  00A8               	movwf	NVM_Read_Buff@address+1
  2868  0E47  3045               	movlw	(low (NetworkInit@AddrPipe1| 0))& (0+255)
  2869  0E48  00C3               	movwf	??_NetworkInit
  2870  0E49  0843               	movf	??_NetworkInit,w
  2871  0E4A  00A9               	movwf	NVM_Read_Buff@RBuff
  2872  0E4B  3005               	movlw	5
  2873  0E4C  00C4               	movwf	??_NetworkInit+1
  2874  0E4D  0844               	movf	??_NetworkInit+1,w
  2875  0E4E  00AA               	movwf	NVM_Read_Buff@length
  2876  0E4F  3188  2047  318E   	fcall	_NVM_Read_Buff
  2877  0E52                     l3709:
  2878  0E52  3086               	movlw	134
  2879  0E53  0020               	movlb	0	; select bank0
  2880  0E54  00A7               	movwf	NVM_Read_Buff@address
  2881  0E55  301F               	movlw	31
  2882  0E56  00A8               	movwf	NVM_Read_Buff@address+1
  2883  0E57  304A               	movlw	(low (NetworkInit@ModuleAddr| 0))& (0+255)
  2884  0E58  00C3               	movwf	??_NetworkInit
  2885  0E59  0843               	movf	??_NetworkInit,w
  2886  0E5A  00A9               	movwf	NVM_Read_Buff@RBuff
  2887  0E5B  3005               	movlw	5
  2888  0E5C  00C4               	movwf	??_NetworkInit+1
  2889  0E5D  0844               	movf	??_NetworkInit+1,w
  2890  0E5E  00AA               	movwf	NVM_Read_Buff@length
  2891  0E5F  3188  2047  318E   	fcall	_NVM_Read_Buff
  2892  0E62                     l3711:
  2893  0E62  3059               	movlw	low _SPI_Exchange
  2894  0E63  0020               	movlb	0	; select bank0
  2895  0E64  00A7               	movwf	NRF24L01_Init@SPI_Exchange
  2896  0E65  3017               	movlw	high _SPI_Exchange
  2897  0E66  00A8               	movwf	NRF24L01_Init@SPI_Exchange+1
  2898  0E67  3197  2733  318E   	fcall	_NRF24L01_Init
  2899  0E6A                     l3713:
  2900  0E6A  3001               	movlw	1
  2901  0E6B  3188  20B1  318E   	fcall	_NRF_SetCRCLen
  2902  0E6E                     l3715:
  2903  0E6E  3005               	movlw	5
  2904  0E6F  3189  21E6  318E   	fcall	_NRF_SetAddrWidth
  2905  0E72                     l3717:
  2906  0E72  3000               	movlw	0
  2907  0E73  3189  2126  318E   	fcall	_NRF_SetRFDataRate
  2908  0E76                     l3719:
  2909  0E76  3003               	movlw	3
  2910  0E77  318A  22C0  318E   	fcall	_NRF_SetRFPower
  2911  0E7A                     l3721:
  2912  0E7A  3064               	movlw	100
  2913  0E7B  3188  20FC  318E   	fcall	_NRF_SetRFChannel
  2914  0E7E                     l3723:
  2915  0E7E  304A               	movlw	(low (NetworkInit@ModuleAddr| 0))& (0+255)
  2916  0E7F  0020               	movlb	0	; select bank0
  2917  0E80  00C3               	movwf	??_NetworkInit
  2918  0E81  0843               	movf	??_NetworkInit,w
  2919  0E82  00B6               	movwf	NRF_OpenReadingPipe@PipeAddr
  2920  0E83  3008               	movlw	8
  2921  0E84  00C4               	movwf	??_NetworkInit+1
  2922  0E85  0844               	movf	??_NetworkInit+1,w
  2923  0E86  00B7               	movwf	NRF_OpenReadingPipe@PayloadLength
  2924  0E87  01B8               	clrf	NRF_OpenReadingPipe@AutoAck
  2925  0E88  0AB8               	incf	NRF_OpenReadingPipe@AutoAck,f
  2926  0E89  01B9               	clrf	NRF_OpenReadingPipe@Enable
  2927  0E8A  0AB9               	incf	NRF_OpenReadingPipe@Enable,f
  2928  0E8B  3000               	movlw	0
  2929  0E8C  318E  26BC  318E   	fcall	_NRF_OpenReadingPipe
  2930  0E8F                     l3725:
  2931  0E8F  3045               	movlw	(low (NetworkInit@AddrPipe1| 0))& (0+255)
  2932  0E90  0020               	movlb	0	; select bank0
  2933  0E91  00C3               	movwf	??_NetworkInit
  2934  0E92  0843               	movf	??_NetworkInit,w
  2935  0E93  00B6               	movwf	NRF_OpenReadingPipe@PipeAddr
  2936  0E94  3008               	movlw	8
  2937  0E95  00C4               	movwf	??_NetworkInit+1
  2938  0E96  0844               	movf	??_NetworkInit+1,w
  2939  0E97  00B7               	movwf	NRF_OpenReadingPipe@PayloadLength
  2940  0E98  01B8               	clrf	NRF_OpenReadingPipe@AutoAck
  2941  0E99  01B9               	clrf	NRF_OpenReadingPipe@Enable
  2942  0E9A  0AB9               	incf	NRF_OpenReadingPipe@Enable,f
  2943  0E9B  3001               	movlw	1
  2944  0E9C  318E  26BC  318E   	fcall	_NRF_OpenReadingPipe
  2945  0E9F                     l3727:
  2946  0E9F  304A               	movlw	(low (NetworkInit@ModuleAddr| 0))& (0+255)
  2947  0EA0  3197  279D  318E   	fcall	_NRF_SetTxAddr
  2948  0EA3                     l3729:
  2949  0EA3  3004               	movlw	4
  2950  0EA4  0020               	movlb	0	; select bank0
  2951  0EA5  00C3               	movwf	??_NetworkInit
  2952  0EA6  0843               	movf	??_NetworkInit,w
  2953  0EA7  00B2               	movwf	NRF_SetART@delay
  2954  0EA8  300A               	movlw	10
  2955  0EA9  3188  20D5  318E   	fcall	_NRF_SetART
  2956  0EAC                     l3731:
  2957  0EAC  3197  27DF  318E   	fcall	_NRF_StartListening
  2958  0EAF                     l3733:
  2959  0EAF  3032               	movlw	50
  2960  0EB0  0020               	movlb	0	; select bank0
  2961  0EB1  00C3               	movwf	??_NetworkInit
  2962  0EB2  0843               	movf	??_NetworkInit,w
  2963  0EB3  0021               	movlb	1	; select bank1
  2964  0EB4  00BF               	movwf	_Slope1^(0+128)
  2965  0EB5                     l3735:
  2966  0EB5  30FF               	movlw	255
  2967  0EB6  0020               	movlb	0	; select bank0
  2968  0EB7  00C3               	movwf	??_NetworkInit
  2969  0EB8  0843               	movf	??_NetworkInit,w
  2970  0EB9  0021               	movlb	1	; select bank1
  2971  0EBA  00C1               	movwf	_CmdPWM1^(0+128)
  2972  0EBB                     l165:
  2973  0EBB  0008               	return
  2974  0EBC                     __end_of_NetworkInit:
  2975                           
  2976                           	psect	text4
  2977  0847                     __ptext4:	
  2978 ;; *************** function _NVM_Read_Buff *****************
  2979 ;; Defined at:
  2980 ;;		line 134 in file "02-SRC/04-DRIVER/target.c"
  2981 ;; Parameters:    Size  Location     Type
  2982 ;;  address         2    7[BANK0 ] unsigned short 
  2983 ;;  RBuff           1    9[BANK0 ] PTR unsigned char 
  2984 ;;		 -> NetworkInit@ModuleAddr(5), NetworkInit@AddrPipe1(5), 
  2985 ;;  length          1   10[BANK0 ] unsigned char 
  2986 ;; Auto vars:     Size  Location     Type
  2987 ;;  i               1   13[BANK0 ] unsigned char 
  2988 ;; Return value:  Size  Location     Type
  2989 ;;                  1    wreg      void 
  2990 ;; Registers used:
  2991 ;;		wreg, fsr1l, fsr1h, status,2, status,0, pclath, cstack
  2992 ;; Tracked objects:
  2993 ;;		On entry : 0/0
  2994 ;;		On exit  : 0/0
  2995 ;;		Unchanged: 0/0
  2996 ;; Data sizes:     COMMON   BANK0   BANK1   BANK2   BANK3   BANK4   BANK5   BANK6
  2997 ;;      Params:         0       4       0       0       0       0       0       0
  2998 ;;      Locals:         0       1       0       0       0       0       0       0
  2999 ;;      Temps:          0       2       0       0       0       0       0       0
  3000 ;;      Totals:         0       7       0       0       0       0       0       0
  3001 ;;Total ram usage:        7 bytes
  3002 ;; Hardware stack levels used:    1
  3003 ;; Hardware stack levels required when called:    5
  3004 ;; This function calls:
  3005 ;;		_NVM_Read
  3006 ;; This function is called by:
  3007 ;;		_NetworkInit
  3008 ;; This function uses a non-reentrant model
  3009 ;;
  3010                           
  3011                           
  3012                           ;psect for function _NVM_Read_Buff
  3013  0847                     _NVM_Read_Buff:
  3014  0847                     l2641:	
  3015                           ;incstack = 0
  3016                           ; Regs used in _NVM_Read_Buff: [wreg+fsr1l+fsr1h+status,2+status,0+pclath+cstack]
  3017                           
  3018  0847  0020               	movlb	0	; select bank0
  3019  0848  01AD               	clrf	NVM_Read_Buff@i
  3020  0849  01AD               	clrf	NVM_Read_Buff@i
  3021  084A  2863               	goto	l2647
  3022  084B                     l2643:
  3023  084B  082D               	movf	NVM_Read_Buff@i,w
  3024  084C  0727               	addwf	NVM_Read_Buff@address,w
  3025  084D  00A5               	movwf	NVM_Read@address
  3026  084E  0828               	movf	NVM_Read_Buff@address+1,w
  3027  084F  1803               	skipnc
  3028  0850  0A28               	incf	NVM_Read_Buff@address+1,w
  3029  0851  00A6               	movwf	NVM_Read@address+1
  3030  0852  3197  2767  3188   	fcall	_NVM_Read
  3031  0855  0020               	movlb	0	; select bank0
  3032  0856  00AB               	movwf	??_NVM_Read_Buff
  3033  0857  082D               	movf	NVM_Read_Buff@i,w
  3034  0858  0729               	addwf	NVM_Read_Buff@RBuff,w
  3035  0859  00AC               	movwf	??_NVM_Read_Buff+1
  3036  085A  082C               	movf	??_NVM_Read_Buff+1,w
  3037  085B  0086               	movwf	6
  3038  085C  0187               	clrf	7
  3039  085D  082B               	movf	??_NVM_Read_Buff,w
  3040  085E  0081               	movwf	1
  3041  085F                     l2645:
  3042  085F  3001               	movlw	1
  3043  0860  00AB               	movwf	??_NVM_Read_Buff
  3044  0861  082B               	movf	??_NVM_Read_Buff,w
  3045  0862  07AD               	addwf	NVM_Read_Buff@i,f
  3046  0863                     l2647:
  3047  0863  082A               	movf	NVM_Read_Buff@length,w
  3048  0864  022D               	subwf	NVM_Read_Buff@i,w
  3049  0865  1C03               	skipc
  3050  0866  2868               	goto	u2661
  3051  0867  2869               	goto	u2660
  3052  0868                     u2661:
  3053  0868  284B               	goto	l2643
  3054  0869                     u2660:
  3055  0869                     l446:
  3056  0869  0008               	return
  3057  086A                     __end_of_NVM_Read_Buff:
  3058                           
  3059                           	psect	text5
  3060  17DF                     __ptext5:	
  3061 ;; *************** function _NRF_StartListening *****************
  3062 ;; Defined at:
  3063 ;;		line 189 in file "02-SRC/04-DRIVER/NRF24L01/NRF24L01.c"
  3064 ;; Parameters:    Size  Location     Type
  3065 ;;		None
  3066 ;; Auto vars:     Size  Location     Type
  3067 ;;		None
  3068 ;; Return value:  Size  Location     Type
  3069 ;;                  1    wreg      void 
  3070 ;; Registers used:
  3071 ;;		wreg, fsr1l, fsr1h, status,2, status,0, pclath, cstack
  3072 ;; Tracked objects:
  3073 ;;		On entry : 0/0
  3074 ;;		On exit  : 0/0
  3075 ;;		Unchanged: 0/0
  3076 ;; Data sizes:     COMMON   BANK0   BANK1   BANK2   BANK3   BANK4   BANK5   BANK6
  3077 ;;      Params:         0       0       0       0       0       0       0       0
  3078 ;;      Locals:         0       0       0       0       0       0       0       0
  3079 ;;      Temps:          0       1       0       0       0       0       0       0
  3080 ;;      Totals:         0       1       0       0       0       0       0       0
  3081 ;;Total ram usage:        1 bytes
  3082 ;; Hardware stack levels used:    1
  3083 ;; Hardware stack levels required when called:    6
  3084 ;; This function calls:
  3085 ;;		_NRF_Read_Register
  3086 ;;		_NRF_Write_Register
  3087 ;; This function is called by:
  3088 ;;		_NetworkInit
  3089 ;; This function uses a non-reentrant model
  3090 ;;
  3091                           
  3092                           
  3093                           ;psect for function _NRF_StartListening
  3094  17DF                     _NRF_StartListening:
  3095  17DF                     l3675:	
  3096                           ;incstack = 0
  3097                           ; Regs used in _NRF_StartListening: [wreg+fsr1l+fsr1h+status,2+status,0+pclath+cstack]
  3098                           
  3099  17DF  30D2               	movlw	(low (_NRFChip| 0))& (0+255)
  3100  17E0  0020               	movlb	0	; select bank0
  3101  17E1  00B2               	movwf	??_NRF_StartListening
  3102  17E2  0832               	movf	??_NRF_StartListening,w
  3103  17E3  00A6               	movwf	NRF_Read_Register@Bytes
  3104  17E4  01A7               	clrf	NRF_Read_Register@Length
  3105  17E5  0AA7               	incf	NRF_Read_Register@Length,f
  3106  17E6  3000               	movlw	0
  3107  17E7  3189  21B4  3197   	fcall	_NRF_Read_Register
  3108  17EA                     l3677:
  3109  17EA  0021               	movlb	1	; select bank1
  3110  17EB  1452               	bsf	_NRFChip^(0+128),0
  3111  17EC                     l3679:
  3112  17EC  14D2               	bsf	_NRFChip^(0+128),1
  3113  17ED  30D2               	movlw	low _NRFChip
  3114  17EE  0020               	movlb	0	; select bank0
  3115  17EF  00A9               	movwf	NRF_Write_Register@Bytes
  3116  17F0  3000               	movlw	high _NRFChip
  3117  17F1  00AA               	movwf	NRF_Write_Register@Bytes+1
  3118  17F2  01AB               	clrf	NRF_Write_Register@Length
  3119  17F3  0AAB               	incf	NRF_Write_Register@Length,f
  3120  17F4  3000               	movlw	0
  3121  17F5  318A  224E  3197   	fcall	_NRF_Write_Register
  3122  17F8  0020               	movlb	0	; select bank0
  3123  17F9  00B2               	movwf	??_NRF_StartListening
  3124  17FA  0832               	movf	??_NRF_StartListening,w
  3125  17FB  0021               	movlb	1	; select bank1
  3126  17FC  00D7               	movwf	(_NRFChip^(0+128)+5)
  3127  17FD                     l3681:
  3128  17FD  0022               	movlb	2	; select bank2
  3129  17FE  140E               	bsf	14,0	;volatile
  3130  17FF                     l297:
  3131  17FF  0008               	return
  3132  1800                     __end_of_NRF_StartListening:
  3133                           
  3134                           	psect	text6
  3135  179D                     __ptext6:	
  3136 ;; *************** function _NRF_SetTxAddr *****************
  3137 ;; Defined at:
  3138 ;;		line 103 in file "02-SRC/04-DRIVER/NRF24L01/NRF24L01.c"
  3139 ;; Parameters:    Size  Location     Type
  3140 ;;  PipeAddr        1    wreg     PTR unsigned char 
  3141 ;;		 -> NetworkInit@ModuleAddr(5), 
  3142 ;; Auto vars:     Size  Location     Type
  3143 ;;  PipeAddr        1   20[BANK0 ] PTR unsigned char 
  3144 ;;		 -> NetworkInit@ModuleAddr(5), 
  3145 ;; Return value:  Size  Location     Type
  3146 ;;                  1    wreg      void 
  3147 ;; Registers used:
  3148 ;;		wreg, fsr1l, fsr1h, status,2, status,0, pclath, cstack
  3149 ;; Tracked objects:
  3150 ;;		On entry : 0/0
  3151 ;;		On exit  : 0/0
  3152 ;;		Unchanged: 0/0
  3153 ;; Data sizes:     COMMON   BANK0   BANK1   BANK2   BANK3   BANK4   BANK5   BANK6
  3154 ;;      Params:         0       0       0       0       0       0       0       0
  3155 ;;      Locals:         0       1       0       0       0       0       0       0
  3156 ;;      Temps:          0       2       0       0       0       0       0       0
  3157 ;;      Totals:         0       3       0       0       0       0       0       0
  3158 ;;Total ram usage:        3 bytes
  3159 ;; Hardware stack levels used:    1
  3160 ;; Hardware stack levels required when called:    6
  3161 ;; This function calls:
  3162 ;;		_NRF_Write_Register
  3163 ;; This function is called by:
  3164 ;;		_NetworkInit
  3165 ;; This function uses a non-reentrant model
  3166 ;;
  3167                           
  3168                           
  3169                           ;psect for function _NRF_SetTxAddr
  3170  179D                     _NRF_SetTxAddr:
  3171                           
  3172                           ;incstack = 0
  3173                           ; Regs used in _NRF_SetTxAddr: [wreg+fsr1l+fsr1h+status,2+status,0+pclath+cstack]
  3174                           ;NRF_SetTxAddr@PipeAddr stored from wreg
  3175  179D  0020               	movlb	0	; select bank0
  3176  179E  00B4               	movwf	NRF_SetTxAddr@PipeAddr
  3177  179F                     l3669:
  3178  179F  0834               	movf	NRF_SetTxAddr@PipeAddr,w
  3179  17A0  00A9               	movwf	NRF_Write_Register@Bytes
  3180  17A1  3000               	movlw	0
  3181  17A2  00AA               	movwf	NRF_Write_Register@Bytes+1
  3182  17A3  3005               	movlw	5
  3183  17A4  00B2               	movwf	??_NRF_SetTxAddr
  3184  17A5  0832               	movf	??_NRF_SetTxAddr,w
  3185  17A6  00AB               	movwf	NRF_Write_Register@Length
  3186  17A7  3010               	movlw	16
  3187  17A8  318A  224E  3197   	fcall	_NRF_Write_Register
  3188  17AB  0020               	movlb	0	; select bank0
  3189  17AC  00B3               	movwf	??_NRF_SetTxAddr+1
  3190  17AD  0833               	movf	??_NRF_SetTxAddr+1,w
  3191  17AE  0021               	movlb	1	; select bank1
  3192  17AF  00D7               	movwf	(_NRFChip^(0+128)+5)
  3193  17B0                     l249:
  3194  17B0  0008               	return
  3195  17B1                     __end_of_NRF_SetTxAddr:
  3196                           
  3197                           	psect	text7
  3198  0AC0                     __ptext7:	
  3199 ;; *************** function _NRF_SetRFPower *****************
  3200 ;; Defined at:
  3201 ;;		line 160 in file "02-SRC/04-DRIVER/NRF24L01/NRF24L01.c"
  3202 ;; Parameters:    Size  Location     Type
  3203 ;;  RF_Pow          1    wreg     unsigned char 
  3204 ;; Auto vars:     Size  Location     Type
  3205 ;;  RF_Pow          1   22[BANK0 ] unsigned char 
  3206 ;; Return value:  Size  Location     Type
  3207 ;;                  1    wreg      void 
  3208 ;; Registers used:
  3209 ;;		wreg, fsr1l, fsr1h, status,2, status,0, pclath, cstack
  3210 ;; Tracked objects:
  3211 ;;		On entry : 0/0
  3212 ;;		On exit  : 0/0
  3213 ;;		Unchanged: 0/0
  3214 ;; Data sizes:     COMMON   BANK0   BANK1   BANK2   BANK3   BANK4   BANK5   BANK6
  3215 ;;      Params:         0       0       0       0       0       0       0       0
  3216 ;;      Locals:         0       3       0       0       0       0       0       0
  3217 ;;      Temps:          0       2       0       0       0       0       0       0
  3218 ;;      Totals:         0       5       0       0       0       0       0       0
  3219 ;;Total ram usage:        5 bytes
  3220 ;; Hardware stack levels used:    1
  3221 ;; Hardware stack levels required when called:    6
  3222 ;; This function calls:
  3223 ;;		_NRF_Read_Register
  3224 ;;		_NRF_Write_Register
  3225 ;; This function is called by:
  3226 ;;		_NetworkInit
  3227 ;; This function uses a non-reentrant model
  3228 ;;
  3229                           
  3230                           
  3231                           ;psect for function _NRF_SetRFPower
  3232  0AC0                     _NRF_SetRFPower:
  3233                           
  3234                           ;incstack = 0
  3235                           ; Regs used in _NRF_SetRFPower: [wreg+fsr1l+fsr1h+status,2+status,0+pclath+cstack]
  3236                           ;NRF_SetRFPower@RF_Pow stored from wreg
  3237  0AC0  0020               	movlb	0	; select bank0
  3238  0AC1  00B6               	movwf	NRF_SetRFPower@RF_Pow
  3239  0AC2                     l3619:
  3240  0AC2  30D6               	movlw	(low ((_NRFChip| 0+4)))& (0+255)
  3241  0AC3  00B2               	movwf	??_NRF_SetRFPower
  3242  0AC4  0832               	movf	??_NRF_SetRFPower,w
  3243  0AC5  00A6               	movwf	NRF_Read_Register@Bytes
  3244  0AC6  01A7               	clrf	NRF_Read_Register@Length
  3245  0AC7  0AA7               	incf	NRF_Read_Register@Length,f
  3246  0AC8  3006               	movlw	6
  3247  0AC9  3189  21B4  318A   	fcall	_NRF_Read_Register
  3248  0ACC                     l3621:
  3249  0ACC  3004               	movlw	4
  3250  0ACD  0020               	movlb	0	; select bank0
  3251  0ACE  0236               	subwf	NRF_SetRFPower@RF_Pow,w
  3252  0ACF  1803               	skipnc
  3253  0AD0  2AD2               	goto	u4131
  3254  0AD1  2AD3               	goto	u4130
  3255  0AD2                     u4131:
  3256  0AD2  2ADB               	goto	l3625
  3257  0AD3                     u4130:
  3258  0AD3                     l3623:
  3259  0AD3  0836               	movf	NRF_SetRFPower@RF_Pow,w
  3260  0AD4  00B2               	movwf	??_NRF_SetRFPower
  3261  0AD5  01B3               	clrf	??_NRF_SetRFPower+1
  3262  0AD6  0832               	movf	??_NRF_SetRFPower,w
  3263  0AD7  00B4               	movwf	_NRF_SetRFPower$542
  3264  0AD8  0833               	movf	??_NRF_SetRFPower+1,w
  3265  0AD9  00B5               	movwf	_NRF_SetRFPower$542+1
  3266  0ADA  2ADF               	goto	l3627
  3267  0ADB                     l3625:
  3268  0ADB  3003               	movlw	3
  3269  0ADC  00B4               	movwf	_NRF_SetRFPower$542
  3270  0ADD  3000               	movlw	0
  3271  0ADE  00B5               	movwf	_NRF_SetRFPower$542+1
  3272  0ADF                     l3627:
  3273  0ADF  0834               	movf	_NRF_SetRFPower$542,w
  3274  0AE0  00B2               	movwf	??_NRF_SetRFPower
  3275  0AE1  0DB2               	rlf	??_NRF_SetRFPower,f
  3276  0AE2  0021               	movlb	1	; select bank1
  3277  0AE3  0856               	movf	(_NRFChip^(0+128)+4),w
  3278  0AE4  0020               	movlb	0	; select bank0
  3279  0AE5  0632               	xorwf	??_NRF_SetRFPower,w
  3280  0AE6  39F9               	andlw	-7
  3281  0AE7  0632               	xorwf	??_NRF_SetRFPower,w
  3282  0AE8  0021               	movlb	1	; select bank1
  3283  0AE9  00D6               	movwf	(_NRFChip^(0+128)+4)
  3284  0AEA                     l3629:
  3285  0AEA  30D6               	movlw	low (_NRFChip+4)
  3286  0AEB  0020               	movlb	0	; select bank0
  3287  0AEC  00A9               	movwf	NRF_Write_Register@Bytes
  3288  0AED  3000               	movlw	high (_NRFChip+4)
  3289  0AEE  00AA               	movwf	NRF_Write_Register@Bytes+1
  3290  0AEF  01AB               	clrf	NRF_Write_Register@Length
  3291  0AF0  0AAB               	incf	NRF_Write_Register@Length,f
  3292  0AF1  3006               	movlw	6
  3293  0AF2  318A  224E  318A   	fcall	_NRF_Write_Register
  3294  0AF5  0020               	movlb	0	; select bank0
  3295  0AF6  00B2               	movwf	??_NRF_SetRFPower
  3296  0AF7  0832               	movf	??_NRF_SetRFPower,w
  3297  0AF8  0021               	movlb	1	; select bank1
  3298  0AF9  00D7               	movwf	(_NRFChip^(0+128)+5)
  3299  0AFA                     l281:
  3300  0AFA  0008               	return
  3301  0AFB                     __end_of_NRF_SetRFPower:
  3302                           
  3303                           	psect	text8
  3304  0926                     __ptext8:	
  3305 ;; *************** function _NRF_SetRFDataRate *****************
  3306 ;; Defined at:
  3307 ;;		line 167 in file "02-SRC/04-DRIVER/NRF24L01/NRF24L01.c"
  3308 ;; Parameters:    Size  Location     Type
  3309 ;;  Datarate        1    wreg     unsigned char 
  3310 ;; Auto vars:     Size  Location     Type
  3311 ;;  Datarate        1   19[BANK0 ] unsigned char 
  3312 ;; Return value:  Size  Location     Type
  3313 ;;                  1    wreg      void 
  3314 ;; Registers used:
  3315 ;;		wreg, fsr1l, fsr1h, status,2, status,0, pclath, cstack
  3316 ;; Tracked objects:
  3317 ;;		On entry : 0/0
  3318 ;;		On exit  : 0/0
  3319 ;;		Unchanged: 0/0
  3320 ;; Data sizes:     COMMON   BANK0   BANK1   BANK2   BANK3   BANK4   BANK5   BANK6
  3321 ;;      Params:         0       0       0       0       0       0       0       0
  3322 ;;      Locals:         0       1       0       0       0       0       0       0
  3323 ;;      Temps:          0       1       0       0       0       0       0       0
  3324 ;;      Totals:         0       2       0       0       0       0       0       0
  3325 ;;Total ram usage:        2 bytes
  3326 ;; Hardware stack levels used:    1
  3327 ;; Hardware stack levels required when called:    6
  3328 ;; This function calls:
  3329 ;;		_NRF_Read_Register
  3330 ;;		_NRF_Write_Register
  3331 ;; This function is called by:
  3332 ;;		_NetworkInit
  3333 ;; This function uses a non-reentrant model
  3334 ;;
  3335                           
  3336                           
  3337                           ;psect for function _NRF_SetRFDataRate
  3338  0926                     _NRF_SetRFDataRate:
  3339                           
  3340                           ;incstack = 0
  3341                           ; Regs used in _NRF_SetRFDataRate: [wreg+fsr1l+fsr1h+status,2+status,0+pclath+cstack]
  3342                           ;NRF_SetRFDataRate@Datarate stored from wreg
  3343  0926  0020               	movlb	0	; select bank0
  3344  0927  00B3               	movwf	NRF_SetRFDataRate@Datarate
  3345  0928                     l3613:
  3346  0928  30D6               	movlw	(low ((_NRFChip| 0+4)))& (0+255)
  3347  0929  00B2               	movwf	??_NRF_SetRFDataRate
  3348  092A  0832               	movf	??_NRF_SetRFDataRate,w
  3349  092B  00A6               	movwf	NRF_Read_Register@Bytes
  3350  092C  01A7               	clrf	NRF_Read_Register@Length
  3351  092D  0AA7               	incf	NRF_Read_Register@Length,f
  3352  092E  3006               	movlw	6
  3353  092F  3189  21B4  3189   	fcall	_NRF_Read_Register
  3354  0932                     l3615:
  3355  0932  0020               	movlb	0	; select bank0
  3356  0933  0833               	movf	NRF_SetRFDataRate@Datarate,w
  3357  0934  3901               	andlw	1
  3358  0935  00B2               	movwf	??_NRF_SetRFDataRate
  3359  0936  0DB2               	rlf	??_NRF_SetRFDataRate,f
  3360  0937  0DB2               	rlf	??_NRF_SetRFDataRate,f
  3361  0938  0DB2               	rlf	??_NRF_SetRFDataRate,f
  3362  0939  0021               	movlb	1	; select bank1
  3363  093A  0856               	movf	(_NRFChip^(0+128)+4),w
  3364  093B  0020               	movlb	0	; select bank0
  3365  093C  0632               	xorwf	??_NRF_SetRFDataRate,w
  3366  093D  39F7               	andlw	-9
  3367  093E  0632               	xorwf	??_NRF_SetRFDataRate,w
  3368  093F  0021               	movlb	1	; select bank1
  3369  0940  00D6               	movwf	(_NRFChip^(0+128)+4)
  3370  0941                     l3617:
  3371  0941  30D6               	movlw	low (_NRFChip+4)
  3372  0942  0020               	movlb	0	; select bank0
  3373  0943  00A9               	movwf	NRF_Write_Register@Bytes
  3374  0944  3000               	movlw	high (_NRFChip+4)
  3375  0945  00AA               	movwf	NRF_Write_Register@Bytes+1
  3376  0946  01AB               	clrf	NRF_Write_Register@Length
  3377  0947  0AAB               	incf	NRF_Write_Register@Length,f
  3378  0948  3006               	movlw	6
  3379  0949  318A  224E  3189   	fcall	_NRF_Write_Register
  3380  094C  0020               	movlb	0	; select bank0
  3381  094D  00B2               	movwf	??_NRF_SetRFDataRate
  3382  094E  0832               	movf	??_NRF_SetRFDataRate,w
  3383  094F  0021               	movlb	1	; select bank1
  3384  0950  00D7               	movwf	(_NRFChip^(0+128)+5)
  3385  0951                     l284:
  3386  0951  0008               	return
  3387  0952                     __end_of_NRF_SetRFDataRate:
  3388                           
  3389                           	psect	text9
  3390  08FC                     __ptext9:	
  3391 ;; *************** function _NRF_SetRFChannel *****************
  3392 ;; Defined at:
  3393 ;;		line 154 in file "02-SRC/04-DRIVER/NRF24L01/NRF24L01.c"
  3394 ;; Parameters:    Size  Location     Type
  3395 ;;  RF_Channel      1    wreg     unsigned char 
  3396 ;; Auto vars:     Size  Location     Type
  3397 ;;  RF_Channel      1   22[BANK0 ] unsigned char 
  3398 ;; Return value:  Size  Location     Type
  3399 ;;                  1    wreg      void 
  3400 ;; Registers used:
  3401 ;;		wreg, fsr1l, fsr1h, status,2, status,0, pclath, cstack
  3402 ;; Tracked objects:
  3403 ;;		On entry : 0/0
  3404 ;;		On exit  : 0/0
  3405 ;;		Unchanged: 0/0
  3406 ;; Data sizes:     COMMON   BANK0   BANK1   BANK2   BANK3   BANK4   BANK5   BANK6
  3407 ;;      Params:         0       0       0       0       0       0       0       0
  3408 ;;      Locals:         0       3       0       0       0       0       0       0
  3409 ;;      Temps:          0       2       0       0       0       0       0       0
  3410 ;;      Totals:         0       5       0       0       0       0       0       0
  3411 ;;Total ram usage:        5 bytes
  3412 ;; Hardware stack levels used:    1
  3413 ;; Hardware stack levels required when called:    6
  3414 ;; This function calls:
  3415 ;;		_NRF_Write_Register
  3416 ;; This function is called by:
  3417 ;;		_NetworkInit
  3418 ;; This function uses a non-reentrant model
  3419 ;;
  3420                           
  3421                           
  3422                           ;psect for function _NRF_SetRFChannel
  3423  08FC                     _NRF_SetRFChannel:
  3424                           
  3425                           ;incstack = 0
  3426                           ; Regs used in _NRF_SetRFChannel: [wreg+fsr1l+fsr1h+status,2+status,0+pclath+cstack]
  3427                           ;NRF_SetRFChannel@RF_Channel stored from wreg
  3428  08FC  0020               	movlb	0	; select bank0
  3429  08FD  00B6               	movwf	NRF_SetRFChannel@RF_Channel
  3430  08FE                     l3631:
  3431  08FE  307E               	movlw	126
  3432  08FF  0236               	subwf	NRF_SetRFChannel@RF_Channel,w
  3433  0900  1803               	skipnc
  3434  0901  2903               	goto	u4141
  3435  0902  2904               	goto	u4140
  3436  0903                     u4141:
  3437  0903  290C               	goto	l3635
  3438  0904                     u4140:
  3439  0904                     l3633:
  3440  0904  0836               	movf	NRF_SetRFChannel@RF_Channel,w
  3441  0905  00B2               	movwf	??_NRF_SetRFChannel
  3442  0906  01B3               	clrf	??_NRF_SetRFChannel+1
  3443  0907  0832               	movf	??_NRF_SetRFChannel,w
  3444  0908  00B4               	movwf	_NRF_SetRFChannel$535
  3445  0909  0833               	movf	??_NRF_SetRFChannel+1,w
  3446  090A  00B5               	movwf	_NRF_SetRFChannel$535+1
  3447  090B  2910               	goto	l273
  3448  090C                     l3635:
  3449  090C  307D               	movlw	125
  3450  090D  00B4               	movwf	_NRF_SetRFChannel$535
  3451  090E  3000               	movlw	0
  3452  090F  00B5               	movwf	_NRF_SetRFChannel$535+1
  3453  0910                     l273:
  3454  0910  0834               	movf	_NRF_SetRFChannel$535,w
  3455  0911  00B2               	movwf	??_NRF_SetRFChannel
  3456  0912  0832               	movf	??_NRF_SetRFChannel,w
  3457  0913  0021               	movlb	1	; select bank1
  3458  0914  00D5               	movwf	(_NRFChip^(0+128)+3)
  3459  0915                     l3637:
  3460  0915  30D5               	movlw	low (_NRFChip+3)
  3461  0916  0020               	movlb	0	; select bank0
  3462  0917  00A9               	movwf	NRF_Write_Register@Bytes
  3463  0918  3000               	movlw	high (_NRFChip+3)
  3464  0919  00AA               	movwf	NRF_Write_Register@Bytes+1
  3465  091A  01AB               	clrf	NRF_Write_Register@Length
  3466  091B  0AAB               	incf	NRF_Write_Register@Length,f
  3467  091C  3005               	movlw	5
  3468  091D  318A  224E  3188   	fcall	_NRF_Write_Register
  3469  0920  0020               	movlb	0	; select bank0
  3470  0921  00B2               	movwf	??_NRF_SetRFChannel
  3471  0922  0832               	movf	??_NRF_SetRFChannel,w
  3472  0923  0021               	movlb	1	; select bank1
  3473  0924  00D7               	movwf	(_NRFChip^(0+128)+5)
  3474  0925                     l274:
  3475  0925  0008               	return
  3476  0926                     __end_of_NRF_SetRFChannel:
  3477                           
  3478                           	psect	text10
  3479  08B1                     __ptext10:	
  3480 ;; *************** function _NRF_SetCRCLen *****************
  3481 ;; Defined at:
  3482 ;;		line 147 in file "02-SRC/04-DRIVER/NRF24L01/NRF24L01.c"
  3483 ;; Parameters:    Size  Location     Type
  3484 ;;  Len             1    wreg     unsigned char 
  3485 ;; Auto vars:     Size  Location     Type
  3486 ;;  Len             1   19[BANK0 ] unsigned char 
  3487 ;; Return value:  Size  Location     Type
  3488 ;;                  1    wreg      void 
  3489 ;; Registers used:
  3490 ;;		wreg, fsr1l, fsr1h, status,2, status,0, pclath, cstack
  3491 ;; Tracked objects:
  3492 ;;		On entry : 0/0
  3493 ;;		On exit  : 0/0
  3494 ;;		Unchanged: 0/0
  3495 ;; Data sizes:     COMMON   BANK0   BANK1   BANK2   BANK3   BANK4   BANK5   BANK6
  3496 ;;      Params:         0       0       0       0       0       0       0       0
  3497 ;;      Locals:         0       1       0       0       0       0       0       0
  3498 ;;      Temps:          0       1       0       0       0       0       0       0
  3499 ;;      Totals:         0       2       0       0       0       0       0       0
  3500 ;;Total ram usage:        2 bytes
  3501 ;; Hardware stack levels used:    1
  3502 ;; Hardware stack levels required when called:    6
  3503 ;; This function calls:
  3504 ;;		_NRF_Read_Register
  3505 ;;		_NRF_Write_Register
  3506 ;; This function is called by:
  3507 ;;		_NetworkInit
  3508 ;; This function uses a non-reentrant model
  3509 ;;
  3510                           
  3511                           
  3512                           ;psect for function _NRF_SetCRCLen
  3513  08B1                     _NRF_SetCRCLen:
  3514                           
  3515                           ;incstack = 0
  3516                           ; Regs used in _NRF_SetCRCLen: [wreg+fsr1l+fsr1h+status,2+status,0+pclath+cstack]
  3517                           ;NRF_SetCRCLen@Len stored from wreg
  3518  08B1  0020               	movlb	0	; select bank0
  3519  08B2  00B3               	movwf	NRF_SetCRCLen@Len
  3520  08B3                     l3597:
  3521  08B3  30D2               	movlw	(low (_NRFChip| 0))& (0+255)
  3522  08B4  00B2               	movwf	??_NRF_SetCRCLen
  3523  08B5  0832               	movf	??_NRF_SetCRCLen,w
  3524  08B6  00A6               	movwf	NRF_Read_Register@Bytes
  3525  08B7  01A7               	clrf	NRF_Read_Register@Length
  3526  08B8  0AA7               	incf	NRF_Read_Register@Length,f
  3527  08B9  3000               	movlw	0
  3528  08BA  3189  21B4  3188   	fcall	_NRF_Read_Register
  3529  08BD                     l3599:
  3530  08BD  0020               	movlb	0	; select bank0
  3531  08BE  0833               	movf	NRF_SetCRCLen@Len,w
  3532  08BF  3901               	andlw	1
  3533  08C0  0021               	movlb	1	; select bank1
  3534  08C1  1152               	bcf	_NRFChip^(0+128),2
  3535  08C2  1D03               	skipz
  3536  08C3  1552               	bsf	_NRFChip^(0+128),2
  3537  08C4                     l3601:
  3538  08C4  30D2               	movlw	low _NRFChip
  3539  08C5  0020               	movlb	0	; select bank0
  3540  08C6  00A9               	movwf	NRF_Write_Register@Bytes
  3541  08C7  3000               	movlw	high _NRFChip
  3542  08C8  00AA               	movwf	NRF_Write_Register@Bytes+1
  3543  08C9  01AB               	clrf	NRF_Write_Register@Length
  3544  08CA  0AAB               	incf	NRF_Write_Register@Length,f
  3545  08CB  3000               	movlw	0
  3546  08CC  318A  224E  3188   	fcall	_NRF_Write_Register
  3547  08CF  0020               	movlb	0	; select bank0
  3548  08D0  00B2               	movwf	??_NRF_SetCRCLen
  3549  08D1  0832               	movf	??_NRF_SetCRCLen,w
  3550  08D2  0021               	movlb	1	; select bank1
  3551  08D3  00D7               	movwf	(_NRFChip^(0+128)+5)
  3552  08D4                     l267:
  3553  08D4  0008               	return
  3554  08D5                     __end_of_NRF_SetCRCLen:
  3555                           
  3556                           	psect	text11
  3557  09E6                     __ptext11:	
  3558 ;; *************** function _NRF_SetAddrWidth *****************
  3559 ;; Defined at:
  3560 ;;		line 174 in file "02-SRC/04-DRIVER/NRF24L01/NRF24L01.c"
  3561 ;; Parameters:    Size  Location     Type
  3562 ;;  AddressWidth    1    wreg     unsigned char 
  3563 ;; Auto vars:     Size  Location     Type
  3564 ;;  AddressWidth    1   21[BANK0 ] unsigned char 
  3565 ;; Return value:  Size  Location     Type
  3566 ;;                  1    wreg      void 
  3567 ;; Registers used:
  3568 ;;		wreg, fsr1l, fsr1h, status,2, status,0, pclath, cstack
  3569 ;; Tracked objects:
  3570 ;;		On entry : 0/0
  3571 ;;		On exit  : 0/0
  3572 ;;		Unchanged: 0/0
  3573 ;; Data sizes:     COMMON   BANK0   BANK1   BANK2   BANK3   BANK4   BANK5   BANK6
  3574 ;;      Params:         0       0       0       0       0       0       0       0
  3575 ;;      Locals:         0       3       0       0       0       0       0       0
  3576 ;;      Temps:          0       1       0       0       0       0       0       0
  3577 ;;      Totals:         0       4       0       0       0       0       0       0
  3578 ;;Total ram usage:        4 bytes
  3579 ;; Hardware stack levels used:    1
  3580 ;; Hardware stack levels required when called:    6
  3581 ;; This function calls:
  3582 ;;		_NRF_Write_Register
  3583 ;; This function is called by:
  3584 ;;		_NetworkInit
  3585 ;; This function uses a non-reentrant model
  3586 ;;
  3587                           
  3588                           
  3589                           ;psect for function _NRF_SetAddrWidth
  3590  09E6                     _NRF_SetAddrWidth:
  3591                           
  3592                           ;incstack = 0
  3593                           ; Regs used in _NRF_SetAddrWidth: [wreg+fsr1l+fsr1h+status,2+status,0+pclath+cstack]
  3594                           ;NRF_SetAddrWidth@AddressWidth stored from wreg
  3595  09E6  0020               	movlb	0	; select bank0
  3596  09E7  00B5               	movwf	NRF_SetAddrWidth@AddressWidth
  3597  09E8                     l3603:
  3598  09E8  0835               	movf	NRF_SetAddrWidth@AddressWidth,w
  3599  09E9  1903               	btfsc	3,2
  3600  09EA  29EC               	goto	u4101
  3601  09EB  29EE               	goto	u4100
  3602  09EC                     u4101:
  3603  09EC  3001               	movlw	1
  3604  09ED  29EF               	goto	u4110
  3605  09EE                     u4100:
  3606  09EE  3000               	movlw	0
  3607  09EF                     u4110:
  3608  09EF  00B2               	movwf	??_NRF_SetAddrWidth
  3609  09F0  0832               	movf	??_NRF_SetAddrWidth,w
  3610  09F1  07B5               	addwf	NRF_SetAddrWidth@AddressWidth,f
  3611  09F2                     l3605:
  3612  09F2  3004               	movlw	4
  3613  09F3  0235               	subwf	NRF_SetAddrWidth@AddressWidth,w
  3614  09F4  1803               	skipnc
  3615  09F5  29F7               	goto	u4121
  3616  09F6  29F8               	goto	u4120
  3617  09F7                     u4121:
  3618  09F7  29FB               	goto	l3609
  3619  09F8                     u4120:
  3620  09F8                     l3607:
  3621  09F8  01B3               	clrf	_NRF_SetAddrWidth$547
  3622  09F9  01B4               	clrf	_NRF_SetAddrWidth$547+1
  3623  09FA  29FF               	goto	l290
  3624  09FB                     l3609:
  3625  09FB  3003               	movlw	3
  3626  09FC  00B3               	movwf	_NRF_SetAddrWidth$547
  3627  09FD  3000               	movlw	0
  3628  09FE  00B4               	movwf	_NRF_SetAddrWidth$547+1
  3629  09FF                     l290:
  3630  09FF  0833               	movf	_NRF_SetAddrWidth$547,w
  3631  0A00  00B2               	movwf	??_NRF_SetAddrWidth
  3632  0A01  0832               	movf	??_NRF_SetAddrWidth,w
  3633  0A02  00B5               	movwf	NRF_SetAddrWidth@AddressWidth
  3634  0A03  0835               	movf	NRF_SetAddrWidth@AddressWidth,w
  3635  0A04  00B2               	movwf	??_NRF_SetAddrWidth
  3636  0A05  0832               	movf	??_NRF_SetAddrWidth,w
  3637  0A06  0021               	movlb	1	; select bank1
  3638  0A07  00D3               	movwf	(_NRFChip^(0+128)+1)
  3639  0A08                     l3611:
  3640  0A08  30D3               	movlw	low (_NRFChip+1)
  3641  0A09  0020               	movlb	0	; select bank0
  3642  0A0A  00A9               	movwf	NRF_Write_Register@Bytes
  3643  0A0B  3000               	movlw	high (_NRFChip+1)
  3644  0A0C  00AA               	movwf	NRF_Write_Register@Bytes+1
  3645  0A0D  01AB               	clrf	NRF_Write_Register@Length
  3646  0A0E  0AAB               	incf	NRF_Write_Register@Length,f
  3647  0A0F  3003               	movlw	3
  3648  0A10  318A  224E  3189   	fcall	_NRF_Write_Register
  3649  0A13  0020               	movlb	0	; select bank0
  3650  0A14  00B2               	movwf	??_NRF_SetAddrWidth
  3651  0A15  0832               	movf	??_NRF_SetAddrWidth,w
  3652  0A16  0021               	movlb	1	; select bank1
  3653  0A17  00D7               	movwf	(_NRFChip^(0+128)+5)
  3654  0A18                     l291:
  3655  0A18  0008               	return
  3656  0A19                     __end_of_NRF_SetAddrWidth:
  3657                           
  3658                           	psect	text12
  3659  08D5                     __ptext12:	
  3660 ;; *************** function _NRF_SetART *****************
  3661 ;; Defined at:
  3662 ;;		line 182 in file "02-SRC/04-DRIVER/NRF24L01/NRF24L01.c"
  3663 ;; Parameters:    Size  Location     Type
  3664 ;;  count           1    wreg     unsigned char 
  3665 ;;  delay           1   18[BANK0 ] unsigned char 
  3666 ;; Auto vars:     Size  Location     Type
  3667 ;;  count           1   20[BANK0 ] unsigned char 
  3668 ;; Return value:  Size  Location     Type
  3669 ;;                  1    wreg      void 
  3670 ;; Registers used:
  3671 ;;		wreg, fsr1l, fsr1h, status,2, status,0, pclath, cstack
  3672 ;; Tracked objects:
  3673 ;;		On entry : 0/0
  3674 ;;		On exit  : 0/0
  3675 ;;		Unchanged: 0/0
  3676 ;; Data sizes:     COMMON   BANK0   BANK1   BANK2   BANK3   BANK4   BANK5   BANK6
  3677 ;;      Params:         0       1       0       0       0       0       0       0
  3678 ;;      Locals:         0       1       0       0       0       0       0       0
  3679 ;;      Temps:          0       1       0       0       0       0       0       0
  3680 ;;      Totals:         0       3       0       0       0       0       0       0
  3681 ;;Total ram usage:        3 bytes
  3682 ;; Hardware stack levels used:    1
  3683 ;; Hardware stack levels required when called:    6
  3684 ;; This function calls:
  3685 ;;		_NRF_Write_Register
  3686 ;; This function is called by:
  3687 ;;		_NetworkInit
  3688 ;; This function uses a non-reentrant model
  3689 ;;
  3690                           
  3691                           
  3692                           ;psect for function _NRF_SetART
  3693  08D5                     _NRF_SetART:
  3694                           
  3695                           ;incstack = 0
  3696                           ; Regs used in _NRF_SetART: [wreg+fsr1l+fsr1h+status,2+status,0+pclath+cstack]
  3697                           ;NRF_SetART@count stored from wreg
  3698  08D5  0020               	movlb	0	; select bank0
  3699  08D6  00B4               	movwf	NRF_SetART@count
  3700  08D7                     l3671:
  3701  08D7  0021               	movlb	1	; select bank1
  3702  08D8  0854               	movf	(_NRFChip^(0+128)+2),w
  3703  08D9  0020               	movlb	0	; select bank0
  3704  08DA  0634               	xorwf	NRF_SetART@count,w
  3705  08DB  39F0               	andlw	-16
  3706  08DC  0634               	xorwf	NRF_SetART@count,w
  3707  08DD  0021               	movlb	1	; select bank1
  3708  08DE  00D4               	movwf	(_NRFChip^(0+128)+2)
  3709  08DF  0020               	movlb	0	; select bank0
  3710  08E0  0832               	movf	NRF_SetART@delay,w
  3711  08E1  00B3               	movwf	??_NRF_SetART
  3712  08E2  0EB3               	swapf	??_NRF_SetART,f
  3713  08E3  0021               	movlb	1	; select bank1
  3714  08E4  0854               	movf	(_NRFChip^(0+128)+2),w
  3715  08E5  0020               	movlb	0	; select bank0
  3716  08E6  0633               	xorwf	??_NRF_SetART,w
  3717  08E7  390F               	andlw	-241
  3718  08E8  0633               	xorwf	??_NRF_SetART,w
  3719  08E9  0021               	movlb	1	; select bank1
  3720  08EA  00D4               	movwf	(_NRFChip^(0+128)+2)
  3721  08EB                     l3673:
  3722  08EB  30D4               	movlw	low (_NRFChip+2)
  3723  08EC  0020               	movlb	0	; select bank0
  3724  08ED  00A9               	movwf	NRF_Write_Register@Bytes
  3725  08EE  3000               	movlw	high (_NRFChip+2)
  3726  08EF  00AA               	movwf	NRF_Write_Register@Bytes+1
  3727  08F0  01AB               	clrf	NRF_Write_Register@Length
  3728  08F1  0AAB               	incf	NRF_Write_Register@Length,f
  3729  08F2  3004               	movlw	4
  3730  08F3  318A  224E  3188   	fcall	_NRF_Write_Register
  3731  08F6  0020               	movlb	0	; select bank0
  3732  08F7  00B3               	movwf	??_NRF_SetART
  3733  08F8  0833               	movf	??_NRF_SetART,w
  3734  08F9  0021               	movlb	1	; select bank1
  3735  08FA  00D7               	movwf	(_NRFChip^(0+128)+5)
  3736  08FB                     l294:
  3737  08FB  0008               	return
  3738  08FC                     __end_of_NRF_SetART:
  3739                           
  3740                           	psect	text13
  3741  0EBC                     __ptext13:	
  3742 ;; *************** function _NRF_OpenReadingPipe *****************
  3743 ;; Defined at:
  3744 ;;		line 76 in file "02-SRC/04-DRIVER/NRF24L01/NRF24L01.c"
  3745 ;; Parameters:    Size  Location     Type
  3746 ;;  PipeNo          1    wreg     unsigned char 
  3747 ;;  PipeAddr        1   22[BANK0 ] PTR unsigned char 
  3748 ;;		 -> NetworkInit@ModuleAddr(5), NetworkInit@AddrPipe1(5), 
  3749 ;;  PayloadLengt    1   23[BANK0 ] unsigned char 
  3750 ;;  AutoAck         1   24[BANK0 ] unsigned char 
  3751 ;;  Enable          1   25[BANK0 ] unsigned char 
  3752 ;; Auto vars:     Size  Location     Type
  3753 ;;  PipeNo          1   34[BANK0 ] unsigned char 
  3754 ;;  i               1   33[BANK0 ] unsigned char 
  3755 ;;  AW              1   32[BANK0 ] unsigned char 
  3756 ;; Return value:  Size  Location     Type
  3757 ;;                  1    wreg      void 
  3758 ;; Registers used:
  3759 ;;		wreg, fsr1l, fsr1h, status,2, status,0, pclath, cstack
  3760 ;; Tracked objects:
  3761 ;;		On entry : 0/0
  3762 ;;		On exit  : 0/0
  3763 ;;		Unchanged: 0/0
  3764 ;; Data sizes:     COMMON   BANK0   BANK1   BANK2   BANK3   BANK4   BANK5   BANK6
  3765 ;;      Params:         0       4       0       0       0       0       0       0
  3766 ;;      Locals:         0       5       0       0       0       0       0       0
  3767 ;;      Temps:          0       4       0       0       0       0       0       0
  3768 ;;      Totals:         0      13       0       0       0       0       0       0
  3769 ;;Total ram usage:       13 bytes
  3770 ;; Hardware stack levels used:    1
  3771 ;; Hardware stack levels required when called:    7
  3772 ;; This function calls:
  3773 ;;		_NRF_PipeEnable
  3774 ;;		_NRF_PipeEnableAA
  3775 ;;		_NRF_Write_Register
  3776 ;;		___bmul
  3777 ;; This function is called by:
  3778 ;;		_NetworkInit
  3779 ;; This function uses a non-reentrant model
  3780 ;;
  3781                           
  3782                           
  3783                           ;psect for function _NRF_OpenReadingPipe
  3784  0EBC                     _NRF_OpenReadingPipe:
  3785                           
  3786                           ;incstack = 0
  3787                           ; Regs used in _NRF_OpenReadingPipe: [wreg+fsr1l+fsr1h+status,2+status,0+pclath+cstack]
  3788                           ;NRF_OpenReadingPipe@PipeNo stored from wreg
  3789  0EBC  0020               	movlb	0	; select bank0
  3790  0EBD  00C2               	movwf	NRF_OpenReadingPipe@PipeNo
  3791  0EBE                     l3639:
  3792  0EBE  0021               	movlb	1	; select bank1
  3793  0EBF  0853               	movf	(_NRFChip^(0+128)+1),w
  3794  0EC0  3E02               	addlw	2
  3795  0EC1  0020               	movlb	0	; select bank0
  3796  0EC2  00BA               	movwf	??_NRF_OpenReadingPipe
  3797  0EC3  083A               	movf	??_NRF_OpenReadingPipe,w
  3798  0EC4  00C0               	movwf	NRF_OpenReadingPipe@AW
  3799  0EC5                     l3641:
  3800  0EC5  0837               	movf	NRF_OpenReadingPipe@PayloadLength,w
  3801  0EC6  00BA               	movwf	??_NRF_OpenReadingPipe
  3802  0EC7  3006               	movlw	6
  3803  0EC8  00BB               	movwf	??_NRF_OpenReadingPipe+1
  3804  0EC9  083B               	movf	??_NRF_OpenReadingPipe+1,w
  3805  0ECA  00A5               	movwf	___bmul@multiplicand
  3806  0ECB  0842               	movf	NRF_OpenReadingPipe@PipeNo,w
  3807  0ECC  3197  27B1  318E   	fcall	___bmul
  3808  0ECF  3E40               	addlw	(low (_NFR_RxPipes| (0+256)))& (0+255)
  3809  0ED0  0086               	movwf	6
  3810  0ED1  3001               	movlw	1	; select bank2/3
  3811  0ED2  0087               	movwf	7
  3812  0ED3  0020               	movlb	0	; select bank0
  3813  0ED4  083A               	movf	??_NRF_OpenReadingPipe,w
  3814  0ED5  0081               	movwf	1
  3815  0ED6                     l3643:
  3816  0ED6  01C1               	clrf	NRF_OpenReadingPipe@i
  3817  0ED7  2EF6               	goto	l3649
  3818  0ED8                     l3645:
  3819  0ED8  0841               	movf	NRF_OpenReadingPipe@i,w
  3820  0ED9  0736               	addwf	NRF_OpenReadingPipe@PipeAddr,w
  3821  0EDA  00BA               	movwf	??_NRF_OpenReadingPipe
  3822  0EDB  083A               	movf	??_NRF_OpenReadingPipe,w
  3823  0EDC  0086               	movwf	6
  3824  0EDD  0187               	clrf	7
  3825  0EDE  0801               	movf	1,w
  3826  0EDF  00BB               	movwf	??_NRF_OpenReadingPipe+1
  3827  0EE0  3006               	movlw	6
  3828  0EE1  00BC               	movwf	??_NRF_OpenReadingPipe+2
  3829  0EE2  083C               	movf	??_NRF_OpenReadingPipe+2,w
  3830  0EE3  00A5               	movwf	___bmul@multiplicand
  3831  0EE4  0842               	movf	NRF_OpenReadingPipe@PipeNo,w
  3832  0EE5  3197  27B1  318E   	fcall	___bmul
  3833  0EE8  3E41               	addlw	(low ((_NFR_RxPipes| (0+256)+1)))& (0+255)
  3834  0EE9  0020               	movlb	0	; select bank0
  3835  0EEA  0741               	addwf	NRF_OpenReadingPipe@i,w
  3836  0EEB  00BD               	movwf	??_NRF_OpenReadingPipe+3
  3837  0EEC  083D               	movf	??_NRF_OpenReadingPipe+3,w
  3838  0EED  0086               	movwf	6
  3839  0EEE  3001               	movlw	1	; select bank2/3
  3840  0EEF  0087               	movwf	7
  3841  0EF0  083B               	movf	??_NRF_OpenReadingPipe+1,w
  3842  0EF1  0081               	movwf	1
  3843  0EF2                     l3647:
  3844  0EF2  3001               	movlw	1
  3845  0EF3  00BA               	movwf	??_NRF_OpenReadingPipe
  3846  0EF4  083A               	movf	??_NRF_OpenReadingPipe,w
  3847  0EF5  07C1               	addwf	NRF_OpenReadingPipe@i,f
  3848  0EF6                     l3649:
  3849  0EF6  0840               	movf	NRF_OpenReadingPipe@AW,w
  3850  0EF7  0241               	subwf	NRF_OpenReadingPipe@i,w
  3851  0EF8  1C03               	skipc
  3852  0EF9  2EFB               	goto	u4151
  3853  0EFA  2EFC               	goto	u4150
  3854  0EFB                     u4151:
  3855  0EFB  2ED8               	goto	l3645
  3856  0EFC                     u4150:
  3857  0EFC                     l3651:
  3858  0EFC  0839               	movf	NRF_OpenReadingPipe@Enable,w
  3859  0EFD  1903               	btfsc	3,2
  3860  0EFE  2F00               	goto	u4161
  3861  0EFF  2F01               	goto	u4160
  3862  0F00                     u4161:
  3863  0F00  2F05               	goto	l3655
  3864  0F01                     u4160:
  3865  0F01                     l3653:
  3866  0F01  0842               	movf	NRF_OpenReadingPipe@PipeNo,w
  3867  0F02  3188  2001  318E   	fcall	_NRF_PipeEnable
  3868  0F05                     l3655:
  3869  0F05  0020               	movlb	0	; select bank0
  3870  0F06  0838               	movf	NRF_OpenReadingPipe@AutoAck,w
  3871  0F07  1903               	btfsc	3,2
  3872  0F08  2F0A               	goto	u4171
  3873  0F09  2F0B               	goto	u4170
  3874  0F0A                     u4171:
  3875  0F0A  2F0F               	goto	l3659
  3876  0F0B                     u4170:
  3877  0F0B                     l3657:
  3878  0F0B  0842               	movf	NRF_OpenReadingPipe@PipeNo,w
  3879  0F0C  3188  2024  318E   	fcall	_NRF_PipeEnableAA
  3880  0F0F                     l3659:
  3881  0F0F  3002               	movlw	2
  3882  0F10  0020               	movlb	0	; select bank0
  3883  0F11  0242               	subwf	NRF_OpenReadingPipe@PipeNo,w
  3884  0F12  1803               	skipnc
  3885  0F13  2F15               	goto	u4181
  3886  0F14  2F16               	goto	u4180
  3887  0F15                     u4181:
  3888  0F15  2F1E               	goto	l3663
  3889  0F16                     u4180:
  3890  0F16                     l3661:
  3891  0F16  0840               	movf	NRF_OpenReadingPipe@AW,w
  3892  0F17  00BA               	movwf	??_NRF_OpenReadingPipe
  3893  0F18  01BB               	clrf	??_NRF_OpenReadingPipe+1
  3894  0F19  083A               	movf	??_NRF_OpenReadingPipe,w
  3895  0F1A  00BE               	movwf	_NRF_OpenReadingPipe$506
  3896  0F1B  083B               	movf	??_NRF_OpenReadingPipe+1,w
  3897  0F1C  00BF               	movwf	_NRF_OpenReadingPipe$506+1
  3898  0F1D  2F22               	goto	l3665
  3899  0F1E                     l3663:
  3900  0F1E  3001               	movlw	1
  3901  0F1F  00BE               	movwf	_NRF_OpenReadingPipe$506
  3902  0F20  3000               	movlw	0
  3903  0F21  00BF               	movwf	_NRF_OpenReadingPipe$506+1
  3904  0F22                     l3665:
  3905  0F22  3006               	movlw	6
  3906  0F23  00BA               	movwf	??_NRF_OpenReadingPipe
  3907  0F24  083A               	movf	??_NRF_OpenReadingPipe,w
  3908  0F25  00A5               	movwf	___bmul@multiplicand
  3909  0F26  0842               	movf	NRF_OpenReadingPipe@PipeNo,w
  3910  0F27  3197  27B1  318E   	fcall	___bmul
  3911  0F2A  3E41               	addlw	(low ((_NFR_RxPipes| (0+256)+1)))& (0+255)
  3912  0F2B  0020               	movlb	0	; select bank0
  3913  0F2C  00A9               	movwf	NRF_Write_Register@Bytes
  3914  0F2D  3001               	movlw	1
  3915  0F2E  00AA               	movwf	NRF_Write_Register@Bytes+1
  3916  0F2F  083E               	movf	_NRF_OpenReadingPipe$506,w
  3917  0F30  00BB               	movwf	??_NRF_OpenReadingPipe+1
  3918  0F31  083B               	movf	??_NRF_OpenReadingPipe+1,w
  3919  0F32  00AB               	movwf	NRF_Write_Register@Length
  3920  0F33  0842               	movf	NRF_OpenReadingPipe@PipeNo,w
  3921  0F34  3E0A               	addlw	10
  3922  0F35  318A  224E  318E   	fcall	_NRF_Write_Register
  3923  0F38                     l3667:
  3924  0F38  3006               	movlw	6
  3925  0F39  0020               	movlb	0	; select bank0
  3926  0F3A  00BA               	movwf	??_NRF_OpenReadingPipe
  3927  0F3B  083A               	movf	??_NRF_OpenReadingPipe,w
  3928  0F3C  00A5               	movwf	___bmul@multiplicand
  3929  0F3D  0842               	movf	NRF_OpenReadingPipe@PipeNo,w
  3930  0F3E  3197  27B1  318E   	fcall	___bmul
  3931  0F41  3E40               	addlw	(low (_NFR_RxPipes| (0+256)))& (0+255)
  3932  0F42  0020               	movlb	0	; select bank0
  3933  0F43  00A9               	movwf	NRF_Write_Register@Bytes
  3934  0F44  3001               	movlw	1
  3935  0F45  00AA               	movwf	NRF_Write_Register@Bytes+1
  3936  0F46  01AB               	clrf	NRF_Write_Register@Length
  3937  0F47  0AAB               	incf	NRF_Write_Register@Length,f
  3938  0F48  0842               	movf	NRF_OpenReadingPipe@PipeNo,w
  3939  0F49  3E11               	addlw	17
  3940  0F4A  318A  224E  318E   	fcall	_NRF_Write_Register
  3941  0F4D  0020               	movlb	0	; select bank0
  3942  0F4E  00BB               	movwf	??_NRF_OpenReadingPipe+1
  3943  0F4F  083B               	movf	??_NRF_OpenReadingPipe+1,w
  3944  0F50  0021               	movlb	1	; select bank1
  3945  0F51  00D7               	movwf	(_NRFChip^(0+128)+5)
  3946  0F52                     l246:
  3947  0F52  0008               	return
  3948  0F53                     __end_of_NRF_OpenReadingPipe:
  3949                           
  3950                           	psect	text14
  3951  17B1                     __ptext14:	
  3952 ;; *************** function ___bmul *****************
  3953 ;; Defined at:
  3954 ;;		line 4 in file "C:\Program Files (x86)\Microchip\xc8\pic\sources\c99\common\Umul8.c"
  3955 ;; Parameters:    Size  Location     Type
  3956 ;;  multiplier      1    wreg     unsigned char 
  3957 ;;  multiplicand    1    5[BANK0 ] unsigned char 
  3958 ;; Auto vars:     Size  Location     Type
  3959 ;;  multiplier      1    8[BANK0 ] unsigned char 
  3960 ;;  product         1    7[BANK0 ] unsigned char 
  3961 ;; Return value:  Size  Location     Type
  3962 ;;                  1    wreg      unsigned char 
  3963 ;; Registers used:
  3964 ;;		wreg, status,2, status,0
  3965 ;; Tracked objects:
  3966 ;;		On entry : 0/0
  3967 ;;		On exit  : 0/0
  3968 ;;		Unchanged: 0/0
  3969 ;; Data sizes:     COMMON   BANK0   BANK1   BANK2   BANK3   BANK4   BANK5   BANK6
  3970 ;;      Params:         0       1       0       0       0       0       0       0
  3971 ;;      Locals:         0       2       0       0       0       0       0       0
  3972 ;;      Temps:          0       1       0       0       0       0       0       0
  3973 ;;      Totals:         0       4       0       0       0       0       0       0
  3974 ;;Total ram usage:        4 bytes
  3975 ;; Hardware stack levels used:    1
  3976 ;; Hardware stack levels required when called:    4
  3977 ;; This function calls:
  3978 ;;		Nothing
  3979 ;; This function is called by:
  3980 ;;		_NRF_OpenReadingPipe
  3981 ;; This function uses a non-reentrant model
  3982 ;;
  3983                           
  3984                           
  3985                           ;psect for function ___bmul
  3986  17B1                     ___bmul:
  3987                           
  3988                           ;incstack = 0
  3989                           ; Regs used in ___bmul: [wreg+status,2+status,0]
  3990                           ;___bmul@multiplier stored from wreg
  3991  17B1  0020               	movlb	0	; select bank0
  3992  17B2  00A8               	movwf	___bmul@multiplier
  3993  17B3                     l2177:
  3994  17B3  01A7               	clrf	___bmul@product
  3995  17B4                     l2179:
  3996  17B4  1C28               	btfss	___bmul@multiplier,0
  3997  17B5  2FB7               	goto	u1741
  3998  17B6  2FB8               	goto	u1740
  3999  17B7                     u1741:
  4000  17B7  2FBC               	goto	l2183
  4001  17B8                     u1740:
  4002  17B8                     l2181:
  4003  17B8  0825               	movf	___bmul@multiplicand,w
  4004  17B9  00A6               	movwf	??___bmul
  4005  17BA  0826               	movf	??___bmul,w
  4006  17BB  07A7               	addwf	___bmul@product,f
  4007  17BC                     l2183:
  4008  17BC  1003               	clrc
  4009  17BD  0DA5               	rlf	___bmul@multiplicand,f
  4010  17BE                     l2185:
  4011  17BE  1003               	clrc
  4012  17BF  0CA8               	rrf	___bmul@multiplier,f
  4013  17C0  0828               	movf	___bmul@multiplier,w
  4014  17C1  1D03               	btfss	3,2
  4015  17C2  2FC4               	goto	u1751
  4016  17C3  2FC5               	goto	u1750
  4017  17C4                     u1751:
  4018  17C4  2FB4               	goto	l2179
  4019  17C5                     u1750:
  4020  17C5                     l2187:
  4021  17C5  0827               	movf	___bmul@product,w
  4022  17C6                     l563:
  4023  17C6  0008               	return
  4024  17C7                     __end_of___bmul:
  4025                           
  4026                           	psect	text15
  4027  0824                     __ptext15:	
  4028 ;; *************** function _NRF_PipeEnableAA *****************
  4029 ;; Defined at:
  4030 ;;		line 124 in file "02-SRC/04-DRIVER/NRF24L01/NRF24L01.c"
  4031 ;; Parameters:    Size  Location     Type
  4032 ;;  PipeNo          1    wreg     unsigned char 
  4033 ;; Auto vars:     Size  Location     Type
  4034 ;;  PipeNo          1   20[BANK0 ] unsigned char 
  4035 ;;  AA              1   21[BANK0 ] unsigned char 
  4036 ;; Return value:  Size  Location     Type
  4037 ;;                  1    wreg      void 
  4038 ;; Registers used:
  4039 ;;		wreg, fsr1l, fsr1h, status,2, status,0, pclath, cstack
  4040 ;; Tracked objects:
  4041 ;;		On entry : 0/0
  4042 ;;		On exit  : 0/0
  4043 ;;		Unchanged: 0/0
  4044 ;; Data sizes:     COMMON   BANK0   BANK1   BANK2   BANK3   BANK4   BANK5   BANK6
  4045 ;;      Params:         0       0       0       0       0       0       0       0
  4046 ;;      Locals:         0       2       0       0       0       0       0       0
  4047 ;;      Temps:          0       2       0       0       0       0       0       0
  4048 ;;      Totals:         0       4       0       0       0       0       0       0
  4049 ;;Total ram usage:        4 bytes
  4050 ;; Hardware stack levels used:    1
  4051 ;; Hardware stack levels required when called:    6
  4052 ;; This function calls:
  4053 ;;		_NRF_Read_Register
  4054 ;;		_NRF_Write_Register
  4055 ;; This function is called by:
  4056 ;;		_NRF_OpenReadingPipe
  4057 ;; This function uses a non-reentrant model
  4058 ;;
  4059                           
  4060                           
  4061                           ;psect for function _NRF_PipeEnableAA
  4062  0824                     _NRF_PipeEnableAA:
  4063                           
  4064                           ;incstack = 0
  4065                           ; Regs used in _NRF_PipeEnableAA: [wreg+fsr1l+fsr1h+status,2+status,0+pclath+cstack]
  4066                           ;NRF_PipeEnableAA@PipeNo stored from wreg
  4067  0824  0020               	movlb	0	; select bank0
  4068  0825  00B4               	movwf	NRF_PipeEnableAA@PipeNo
  4069  0826                     l3173:
  4070  0826  3035               	movlw	(low (NRF_PipeEnableAA@AA| 0))& (0+255)
  4071  0827  00B2               	movwf	??_NRF_PipeEnableAA
  4072  0828  0832               	movf	??_NRF_PipeEnableAA,w
  4073  0829  00A6               	movwf	NRF_Read_Register@Bytes
  4074  082A  01A7               	clrf	NRF_Read_Register@Length
  4075  082B  0AA7               	incf	NRF_Read_Register@Length,f
  4076  082C  3001               	movlw	1
  4077  082D  3189  21B4  3188   	fcall	_NRF_Read_Register
  4078  0830                     l3175:
  4079  0830  3001               	movlw	1
  4080  0831  0020               	movlb	0	; select bank0
  4081  0832  00B2               	movwf	??_NRF_PipeEnableAA
  4082  0833  0A34               	incf	NRF_PipeEnableAA@PipeNo,w
  4083  0834  2836               	goto	u3234
  4084  0835                     u3235:
  4085  0835  35B2               	lslf	??_NRF_PipeEnableAA,f
  4086  0836                     u3234:
  4087  0836  0B89               	decfsz	9,f
  4088  0837  2835               	goto	u3235
  4089  0838  0832               	movf	??_NRF_PipeEnableAA,w
  4090  0839  00B3               	movwf	??_NRF_PipeEnableAA+1
  4091  083A  0833               	movf	??_NRF_PipeEnableAA+1,w
  4092  083B  04B5               	iorwf	NRF_PipeEnableAA@AA,f
  4093  083C                     l3177:
  4094  083C  3035               	movlw	low NRF_PipeEnableAA@AA
  4095  083D  00A9               	movwf	NRF_Write_Register@Bytes
  4096  083E  3000               	movlw	high NRF_PipeEnableAA@AA
  4097  083F  00AA               	movwf	NRF_Write_Register@Bytes+1
  4098  0840  01AB               	clrf	NRF_Write_Register@Length
  4099  0841  0AAB               	incf	NRF_Write_Register@Length,f
  4100  0842  3001               	movlw	1
  4101  0843  318A  224E  3188   	fcall	_NRF_Write_Register
  4102  0846                     l258:
  4103  0846  0008               	return
  4104  0847                     __end_of_NRF_PipeEnableAA:
  4105                           
  4106                           	psect	text16
  4107  0801                     __ptext16:	
  4108 ;; *************** function _NRF_PipeEnable *****************
  4109 ;; Defined at:
  4110 ;;		line 108 in file "02-SRC/04-DRIVER/NRF24L01/NRF24L01.c"
  4111 ;; Parameters:    Size  Location     Type
  4112 ;;  PipeNo          1    wreg     unsigned char 
  4113 ;; Auto vars:     Size  Location     Type
  4114 ;;  PipeNo          1   20[BANK0 ] unsigned char 
  4115 ;;  EN              1   21[BANK0 ] unsigned char 
  4116 ;; Return value:  Size  Location     Type
  4117 ;;                  1    wreg      void 
  4118 ;; Registers used:
  4119 ;;		wreg, fsr1l, fsr1h, status,2, status,0, pclath, cstack
  4120 ;; Tracked objects:
  4121 ;;		On entry : 0/0
  4122 ;;		On exit  : 0/0
  4123 ;;		Unchanged: 0/0
  4124 ;; Data sizes:     COMMON   BANK0   BANK1   BANK2   BANK3   BANK4   BANK5   BANK6
  4125 ;;      Params:         0       0       0       0       0       0       0       0
  4126 ;;      Locals:         0       2       0       0       0       0       0       0
  4127 ;;      Temps:          0       2       0       0       0       0       0       0
  4128 ;;      Totals:         0       4       0       0       0       0       0       0
  4129 ;;Total ram usage:        4 bytes
  4130 ;; Hardware stack levels used:    1
  4131 ;; Hardware stack levels required when called:    6
  4132 ;; This function calls:
  4133 ;;		_NRF_Read_Register
  4134 ;;		_NRF_Write_Register
  4135 ;; This function is called by:
  4136 ;;		_NRF_OpenReadingPipe
  4137 ;; This function uses a non-reentrant model
  4138 ;;
  4139                           
  4140                           
  4141                           ;psect for function _NRF_PipeEnable
  4142  0801                     _NRF_PipeEnable:
  4143                           
  4144                           ;incstack = 0
  4145                           ; Regs used in _NRF_PipeEnable: [wreg+fsr1l+fsr1h+status,2+status,0+pclath+cstack]
  4146                           ;NRF_PipeEnable@PipeNo stored from wreg
  4147  0801  0020               	movlb	0	; select bank0
  4148  0802  00B4               	movwf	NRF_PipeEnable@PipeNo
  4149  0803                     l3167:
  4150  0803  3035               	movlw	(low (NRF_PipeEnable@EN| 0))& (0+255)
  4151  0804  00B2               	movwf	??_NRF_PipeEnable
  4152  0805  0832               	movf	??_NRF_PipeEnable,w
  4153  0806  00A6               	movwf	NRF_Read_Register@Bytes
  4154  0807  01A7               	clrf	NRF_Read_Register@Length
  4155  0808  0AA7               	incf	NRF_Read_Register@Length,f
  4156  0809  3002               	movlw	2
  4157  080A  3189  21B4  3188   	fcall	_NRF_Read_Register
  4158  080D                     l3169:
  4159  080D  3001               	movlw	1
  4160  080E  0020               	movlb	0	; select bank0
  4161  080F  00B2               	movwf	??_NRF_PipeEnable
  4162  0810  0A34               	incf	NRF_PipeEnable@PipeNo,w
  4163  0811  2813               	goto	u3224
  4164  0812                     u3225:
  4165  0812  35B2               	lslf	??_NRF_PipeEnable,f
  4166  0813                     u3224:
  4167  0813  0B89               	decfsz	9,f
  4168  0814  2812               	goto	u3225
  4169  0815  0832               	movf	??_NRF_PipeEnable,w
  4170  0816  00B3               	movwf	??_NRF_PipeEnable+1
  4171  0817  0833               	movf	??_NRF_PipeEnable+1,w
  4172  0818  04B5               	iorwf	NRF_PipeEnable@EN,f
  4173  0819                     l3171:
  4174  0819  3035               	movlw	low NRF_PipeEnable@EN
  4175  081A  00A9               	movwf	NRF_Write_Register@Bytes
  4176  081B  3000               	movlw	high NRF_PipeEnable@EN
  4177  081C  00AA               	movwf	NRF_Write_Register@Bytes+1
  4178  081D  01AB               	clrf	NRF_Write_Register@Length
  4179  081E  0AAB               	incf	NRF_Write_Register@Length,f
  4180  081F  3002               	movlw	2
  4181  0820  318A  224E  3188   	fcall	_NRF_Write_Register
  4182  0823                     l252:
  4183  0823  0008               	return
  4184  0824                     __end_of_NRF_PipeEnable:
  4185                           
  4186                           	psect	text17
  4187  0A4E                     __ptext17:	
  4188 ;; *************** function _NRF_Write_Register *****************
  4189 ;; Defined at:
  4190 ;;		line 23 in file "02-SRC/04-DRIVER/NRF24L01/NRF24L01.c"
  4191 ;; Parameters:    Size  Location     Type
  4192 ;;  Register        1    wreg     unsigned char 
  4193 ;;  Bytes           2    9[BANK0 ] PTR unsigned char 
  4194 ;;		 -> NRFChip.SETUP_RETR(1), NRFChip.RF_SETUP(1), NRFChip.RF_CH(1), NRFChip.CONFIG(1), 
  4195 ;;		 -> NRF_PipeDisableAA@AA(1), NRF_PipeEnableAA@AA(1), NRF_PipeDisable@EN(1), NRF_PipeEnable@EN(1), 
  4196 ;;		 -> NFR_RxPipes(36), NRFChip.AW(1), NRFChip(14), NetworkInit@ModuleAddr(5), 
  4197 ;;  Length          1   11[BANK0 ] unsigned char 
  4198 ;; Auto vars:     Size  Location     Type
  4199 ;;  Register        1   15[BANK0 ] unsigned char 
  4200 ;;  i               1   17[BANK0 ] unsigned char 
  4201 ;;  Status          1   16[BANK0 ] unsigned char 
  4202 ;; Return value:  Size  Location     Type
  4203 ;;                  1    wreg      unsigned char 
  4204 ;; Registers used:
  4205 ;;		wreg, fsr1l, fsr1h, status,2, status,0, pclath, cstack
  4206 ;; Tracked objects:
  4207 ;;		On entry : 0/0
  4208 ;;		On exit  : 0/0
  4209 ;;		Unchanged: 0/0
  4210 ;; Data sizes:     COMMON   BANK0   BANK1   BANK2   BANK3   BANK4   BANK5   BANK6
  4211 ;;      Params:         0       3       0       0       0       0       0       0
  4212 ;;      Locals:         0       3       0       0       0       0       0       0
  4213 ;;      Temps:          0       3       0       0       0       0       0       0
  4214 ;;      Totals:         0       9       0       0       0       0       0       0
  4215 ;;Total ram usage:        9 bytes
  4216 ;; Hardware stack levels used:    1
  4217 ;; Hardware stack levels required when called:    5
  4218 ;; This function calls:
  4219 ;;		Absolute function
  4220 ;;		_SPI_Exchange
  4221 ;; This function is called by:
  4222 ;;		_NRF_OpenReadingPipe
  4223 ;;		_NRF_SetTxAddr
  4224 ;;		_NRF_PipeEnable
  4225 ;;		_NRF_PipeEnableAA
  4226 ;;		_NRF_SetCRCLen
  4227 ;;		_NRF_SetRFChannel
  4228 ;;		_NRF_SetRFPower
  4229 ;;		_NRF_SetRFDataRate
  4230 ;;		_NRF_SetAddrWidth
  4231 ;;		_NRF_SetART
  4232 ;;		_NRF_StartListening
  4233 ;;		_NRF_PipeDisable
  4234 ;;		_NRF_PipeDisableAA
  4235 ;;		_NRF_SetPrimaryAs
  4236 ;;		_NRF_StopListening
  4237 ;;		_NRF_SetMaskIRQ
  4238 ;; This function uses a non-reentrant model
  4239 ;;
  4240                           
  4241                           
  4242                           ;psect for function _NRF_Write_Register
  4243  0A4E                     _NRF_Write_Register:
  4244                           
  4245                           ;incstack = 0
  4246                           ; Regs used in _NRF_Write_Register: [wreg+fsr1l+fsr1h+status,2+status,0+pclath+cstack]
  4247                           ;NRF_Write_Register@Register stored from wreg
  4248  0A4E  0020               	movlb	0	; select bank0
  4249  0A4F  00AF               	movwf	NRF_Write_Register@Register
  4250  0A50                     l3091:
  4251  0A50  01B1               	clrf	NRF_Write_Register@i
  4252  0A51                     l3093:
  4253  0A51  0022               	movlb	2	; select bank2
  4254  0A52  108E               	bcf	14,1	;volatile
  4255  0A53                     l3095:
  4256  0A53  0020               	movlb	0	; select bank0
  4257  0A54  082F               	movf	NRF_Write_Register@Register,w
  4258  0A55  3820               	iorlw	32
  4259  0A56  00AC               	movwf	??_NRF_Write_Register
  4260  0A57  082C               	movf	??_NRF_Write_Register,w
  4261  0A58  00A5               	movwf	SPI_Exchange@Data
  4262  0A59  0865               	movf	_p_NRF_SPI_Exchange+1,w
  4263  0A5A  008A               	movwf	10
  4264  0A5B  0864               	movf	_p_NRF_SPI_Exchange,w
  4265  0A5C  000A               	callw
  4266  0A5D  318A               	pagesel	$
  4267  0A5E  0020               	movlb	0	; select bank0
  4268  0A5F  00AD               	movwf	??_NRF_Write_Register+1
  4269  0A60  082D               	movf	??_NRF_Write_Register+1,w
  4270  0A61  00B0               	movwf	NRF_Write_Register@Status
  4271  0A62                     l3097:
  4272  0A62  01B1               	clrf	NRF_Write_Register@i
  4273  0A63  2A7B               	goto	l3103
  4274  0A64                     l3099:
  4275  0A64  0831               	movf	NRF_Write_Register@i,w
  4276  0A65  00AC               	movwf	??_NRF_Write_Register
  4277  0A66  01AD               	clrf	??_NRF_Write_Register+1
  4278  0A67  082C               	movf	??_NRF_Write_Register,w
  4279  0A68  0729               	addwf	NRF_Write_Register@Bytes,w
  4280  0A69  0086               	movwf	6
  4281  0A6A  082D               	movf	??_NRF_Write_Register+1,w
  4282  0A6B  3D2A               	addwfc	NRF_Write_Register@Bytes+1,w
  4283  0A6C  0087               	movwf	7
  4284  0A6D  0801               	movf	1,w
  4285  0A6E  00AE               	movwf	??_NRF_Write_Register+2
  4286  0A6F  082E               	movf	??_NRF_Write_Register+2,w
  4287  0A70  00A5               	movwf	SPI_Exchange@Data
  4288  0A71  0865               	movf	_p_NRF_SPI_Exchange+1,w
  4289  0A72  008A               	movwf	10
  4290  0A73  0864               	movf	_p_NRF_SPI_Exchange,w
  4291  0A74  000A               	callw
  4292  0A75  318A               	pagesel	$
  4293  0A76                     l3101:
  4294  0A76  3001               	movlw	1
  4295  0A77  0020               	movlb	0	; select bank0
  4296  0A78  00AC               	movwf	??_NRF_Write_Register
  4297  0A79  082C               	movf	??_NRF_Write_Register,w
  4298  0A7A  07B1               	addwf	NRF_Write_Register@i,f
  4299  0A7B                     l3103:
  4300  0A7B  082B               	movf	NRF_Write_Register@Length,w
  4301  0A7C  0231               	subwf	NRF_Write_Register@i,w
  4302  0A7D  1C03               	skipc
  4303  0A7E  2A80               	goto	u3081
  4304  0A7F  2A81               	goto	u3080
  4305  0A80                     u3081:
  4306  0A80  2A64               	goto	l3099
  4307  0A81                     u3080:
  4308  0A81                     l213:
  4309  0A81  0022               	movlb	2	; select bank2
  4310  0A82  148E               	bsf	14,1	;volatile
  4311  0A83                     l3105:
  4312  0A83  0020               	movlb	0	; select bank0
  4313  0A84  0830               	movf	NRF_Write_Register@Status,w
  4314  0A85                     l214:
  4315  0A85  0008               	return
  4316  0A86                     __end_of_NRF_Write_Register:
  4317                           
  4318                           	psect	text18
  4319  09B4                     __ptext18:	
  4320 ;; *************** function _NRF_Read_Register *****************
  4321 ;; Defined at:
  4322 ;;		line 35 in file "02-SRC/04-DRIVER/NRF24L01/NRF24L01.c"
  4323 ;; Parameters:    Size  Location     Type
  4324 ;;  Register        1    wreg     unsigned char 
  4325 ;;  Bytes           1    6[BANK0 ] PTR unsigned char 
  4326 ;;		 -> NRFChip.RF_SETUP(1), NRFChip.CONFIG(1), NRF_PipeDisableAA@AA(1), NRF_PipeEnableAA@AA(1), 
  4327 ;;		 -> NRF_PipeDisable@EN(1), NRF_PipeEnable@EN(1), NRFChip(14), 
  4328 ;;  Length          1    7[BANK0 ] unsigned char 
  4329 ;; Auto vars:     Size  Location     Type
  4330 ;;  Register        1   12[BANK0 ] unsigned char 
  4331 ;;  i               1   13[BANK0 ] unsigned char 
  4332 ;;  Status          1    0        unsigned char 
  4333 ;; Return value:  Size  Location     Type
  4334 ;;                  1    wreg      unsigned char 
  4335 ;; Registers used:
  4336 ;;		wreg, fsr1l, fsr1h, status,2, status,0, pclath, cstack
  4337 ;; Tracked objects:
  4338 ;;		On entry : 0/0
  4339 ;;		On exit  : 0/0
  4340 ;;		Unchanged: 0/0
  4341 ;; Data sizes:     COMMON   BANK0   BANK1   BANK2   BANK3   BANK4   BANK5   BANK6
  4342 ;;      Params:         0       2       0       0       0       0       0       0
  4343 ;;      Locals:         0       3       0       0       0       0       0       0
  4344 ;;      Temps:          0       3       0       0       0       0       0       0
  4345 ;;      Totals:         0       8       0       0       0       0       0       0
  4346 ;;Total ram usage:        8 bytes
  4347 ;; Hardware stack levels used:    1
  4348 ;; Hardware stack levels required when called:    5
  4349 ;; This function calls:
  4350 ;;		Absolute function
  4351 ;;		_SPI_Exchange
  4352 ;; This function is called by:
  4353 ;;		_NRF_PipeEnable
  4354 ;;		_NRF_PipeEnableAA
  4355 ;;		_NRF_SetCRCLen
  4356 ;;		_NRF_SetRFPower
  4357 ;;		_NRF_SetRFDataRate
  4358 ;;		_NRF_StartListening
  4359 ;;		_NRF_PipeDisable
  4360 ;;		_NRF_PipeDisableAA
  4361 ;;		_NRF_SetPrimaryAs
  4362 ;;		_NRF_StopListening
  4363 ;;		_NRF_SetMaskIRQ
  4364 ;; This function uses a non-reentrant model
  4365 ;;
  4366                           
  4367                           
  4368                           ;psect for function _NRF_Read_Register
  4369  09B4                     _NRF_Read_Register:
  4370                           
  4371                           ;incstack = 0
  4372                           ; Regs used in _NRF_Read_Register: [wreg+fsr1l+fsr1h+status,2+status,0+pclath+cstack]
  4373                           ;NRF_Read_Register@Register stored from wreg
  4374  09B4  0020               	movlb	0	; select bank0
  4375  09B5  00AC               	movwf	NRF_Read_Register@Register
  4376  09B6                     l3109:
  4377  09B6  01AD               	clrf	NRF_Read_Register@i
  4378  09B7                     l3111:
  4379  09B7  0022               	movlb	2	; select bank2
  4380  09B8  108E               	bcf	14,1	;volatile
  4381  09B9                     l3113:
  4382  09B9  0020               	movlb	0	; select bank0
  4383  09BA  082C               	movf	NRF_Read_Register@Register,w
  4384  09BB  00A8               	movwf	??_NRF_Read_Register
  4385  09BC  0828               	movf	??_NRF_Read_Register,w
  4386  09BD  00A5               	movwf	SPI_Exchange@Data
  4387  09BE  0865               	movf	_p_NRF_SPI_Exchange+1,w
  4388  09BF  008A               	movwf	10
  4389  09C0  0864               	movf	_p_NRF_SPI_Exchange,w
  4390  09C1  000A               	callw
  4391  09C2  3189               	pagesel	$
  4392  09C3                     l3115:
  4393  09C3  0020               	movlb	0	; select bank0
  4394  09C4  01AD               	clrf	NRF_Read_Register@i
  4395  09C5  29DD               	goto	l3121
  4396  09C6                     l3117:
  4397  09C6  30FF               	movlw	255
  4398  09C7  00A8               	movwf	??_NRF_Read_Register
  4399  09C8  0828               	movf	??_NRF_Read_Register,w
  4400  09C9  00A5               	movwf	SPI_Exchange@Data
  4401  09CA  0865               	movf	_p_NRF_SPI_Exchange+1,w
  4402  09CB  008A               	movwf	10
  4403  09CC  0864               	movf	_p_NRF_SPI_Exchange,w
  4404  09CD  000A               	callw
  4405  09CE  3189               	pagesel	$
  4406  09CF  0020               	movlb	0	; select bank0
  4407  09D0  00A9               	movwf	??_NRF_Read_Register+1
  4408  09D1  082D               	movf	NRF_Read_Register@i,w
  4409  09D2  0726               	addwf	NRF_Read_Register@Bytes,w
  4410  09D3  00AA               	movwf	??_NRF_Read_Register+2
  4411  09D4  082A               	movf	??_NRF_Read_Register+2,w
  4412  09D5  0086               	movwf	6
  4413  09D6  0187               	clrf	7
  4414  09D7  0829               	movf	??_NRF_Read_Register+1,w
  4415  09D8  0081               	movwf	1
  4416  09D9                     l3119:
  4417  09D9  3001               	movlw	1
  4418  09DA  00A8               	movwf	??_NRF_Read_Register
  4419  09DB  0828               	movf	??_NRF_Read_Register,w
  4420  09DC  07AD               	addwf	NRF_Read_Register@i,f
  4421  09DD                     l3121:
  4422  09DD  0827               	movf	NRF_Read_Register@Length,w
  4423  09DE  022D               	subwf	NRF_Read_Register@i,w
  4424  09DF  1C03               	skipc
  4425  09E0  29E2               	goto	u3091
  4426  09E1  29E3               	goto	u3090
  4427  09E2                     u3091:
  4428  09E2  29C6               	goto	l3117
  4429  09E3                     u3090:
  4430  09E3                     l219:
  4431  09E3  0022               	movlb	2	; select bank2
  4432  09E4  148E               	bsf	14,1	;volatile
  4433  09E5                     l220:	
  4434                           ;	Return value of _NRF_Read_Register is never used
  4435                           
  4436  09E5  0008               	return
  4437  09E6                     __end_of_NRF_Read_Register:
  4438                           
  4439                           	psect	text19
  4440  1759                     __ptext19:	
  4441 ;; *************** function _SPI_Exchange *****************
  4442 ;; Defined at:
  4443 ;;		line 108 in file "02-SRC/04-DRIVER/target.c"
  4444 ;; Parameters:    Size  Location     Type
  4445 ;;  Data            1    5[BANK0 ] unsigned char 
  4446 ;; Auto vars:     Size  Location     Type
  4447 ;;		None
  4448 ;; Return value:  Size  Location     Type
  4449 ;;                  1    wreg      unsigned char 
  4450 ;; Registers used:
  4451 ;;		wreg
  4452 ;; Tracked objects:
  4453 ;;		On entry : 0/0
  4454 ;;		On exit  : 0/0
  4455 ;;		Unchanged: 0/0
  4456 ;; Data sizes:     COMMON   BANK0   BANK1   BANK2   BANK3   BANK4   BANK5   BANK6
  4457 ;;      Params:         0       1       0       0       0       0       0       0
  4458 ;;      Locals:         0       0       0       0       0       0       0       0
  4459 ;;      Temps:          0       0       0       0       0       0       0       0
  4460 ;;      Totals:         0       1       0       0       0       0       0       0
  4461 ;;Total ram usage:        1 bytes
  4462 ;; Hardware stack levels used:    1
  4463 ;; Hardware stack levels required when called:    4
  4464 ;; This function calls:
  4465 ;;		Nothing
  4466 ;; This function is called by:
  4467 ;;		_NetworkInit
  4468 ;;		_NRF_Write_Register
  4469 ;;		_NRF_Read_Register
  4470 ;;		_NRF_GetStatus
  4471 ;;		i1_NRF_Write_Register
  4472 ;;		_NRF_ReadPayload
  4473 ;;		_NRF_WritePayload
  4474 ;; This function uses a non-reentrant model
  4475 ;;
  4476                           
  4477                           
  4478                           ;psect for function _SPI_Exchange
  4479  1759                     _SPI_Exchange:
  4480                           
  4481                           ;Skip over the trampoline to the duplicate function for level 1
  4482  1759  1C7E               	btfss	int$flags,0
  4483  175A  2F5D               	goto	_SPI_Exchange$intlevel0
  4484  175B  3197  2F15         	ljmp	i1_SPI_Exchange
  4485  175D                     _SPI_Exchange$intlevel0:
  4486  175D                     l2039:	
  4487                           ;incstack = 0
  4488                           ; Regs used in _SPI_Exchange: [wreg]
  4489                           
  4490  175D  0020               	movlb	0	; select bank0
  4491  175E  0825               	movf	SPI_Exchange@Data,w
  4492  175F  0024               	movlb	4	; select bank4
  4493  1760  0091               	movwf	17	;volatile
  4494  1761                     l428:
  4495  1761  1C14               	btfss	20,0	;volatile
  4496  1762  2F64               	goto	u1521
  4497  1763  2F65               	goto	u1520
  4498  1764                     u1521:
  4499  1764  2F61               	goto	l428
  4500  1765                     u1520:
  4501  1765                     l2041:
  4502  1765  0811               	movf	17,w	;volatile
  4503  1766                     l431:
  4504  1766  0008               	return
  4505  1767                     __end_of_SPI_Exchange:
  4506                           
  4507                           	psect	text20
  4508  1733                     __ptext20:	
  4509 ;; *************** function _NRF24L01_Init *****************
  4510 ;; Defined at:
  4511 ;;		line 16 in file "02-SRC/04-DRIVER/NRF24L01/NRF24L01.c"
  4512 ;; Parameters:    Size  Location     Type
  4513 ;;  SPI_Exchange    2    7[BANK0 ] PTR FTN(unsigned char ,)
  4514 ;;		 -> SPI_Exchange(1), 
  4515 ;; Auto vars:     Size  Location     Type
  4516 ;;		None
  4517 ;; Return value:  Size  Location     Type
  4518 ;;                  1    wreg      void 
  4519 ;; Registers used:
  4520 ;;		wreg, status,2, status,0, pclath, cstack
  4521 ;; Tracked objects:
  4522 ;;		On entry : 0/0
  4523 ;;		On exit  : 0/0
  4524 ;;		Unchanged: 0/0
  4525 ;; Data sizes:     COMMON   BANK0   BANK1   BANK2   BANK3   BANK4   BANK5   BANK6
  4526 ;;      Params:         0       2       0       0       0       0       0       0
  4527 ;;      Locals:         0       0       0       0       0       0       0       0
  4528 ;;      Temps:          0       0       0       0       0       0       0       0
  4529 ;;      Totals:         0       2       0       0       0       0       0       0
  4530 ;;Total ram usage:        2 bytes
  4531 ;; Hardware stack levels used:    1
  4532 ;; Hardware stack levels required when called:    5
  4533 ;; This function calls:
  4534 ;;		_NRF_Set_SPI_Handler
  4535 ;; This function is called by:
  4536 ;;		_NetworkInit
  4537 ;; This function uses a non-reentrant model
  4538 ;;
  4539                           
  4540                           
  4541                           ;psect for function _NRF24L01_Init
  4542  1733                     _NRF24L01_Init:
  4543  1733                     l2649:	
  4544                           ;incstack = 0
  4545                           ; Regs used in _NRF24L01_Init: [wreg+status,2+status,0+pclath+cstack]
  4546                           
  4547  1733  0020               	movlb	0	; select bank0
  4548  1734  0828               	movf	NRF24L01_Init@SPI_Exchange+1,w
  4549  1735  00A6               	movwf	NRF_Set_SPI_Handler@SPI_Handler+1
  4550  1736  0827               	movf	NRF24L01_Init@SPI_Exchange,w
  4551  1737  00A5               	movwf	NRF_Set_SPI_Handler@SPI_Handler
  4552  1738  3187  27F8  3197   	fcall	_NRF_Set_SPI_Handler
  4553  173B                     l2651:
  4554  173B  0022               	movlb	2	; select bank2
  4555  173C  100E               	bcf	14,0	;volatile
  4556  173D                     l2653:
  4557  173D  148E               	bsf	14,1	;volatile
  4558  173E                     l208:
  4559  173E  0008               	return
  4560  173F                     __end_of_NRF24L01_Init:
  4561                           
  4562                           	psect	text21
  4563  07F8                     __ptext21:	
  4564 ;; *************** function _NRF_Set_SPI_Handler *****************
  4565 ;; Defined at:
  4566 ;;		line 11 in file "02-SRC/04-DRIVER/NRF24L01/NRF24L01.c"
  4567 ;; Parameters:    Size  Location     Type
  4568 ;;  SPI_Handler     2    5[BANK0 ] PTR FTN(unsigned char ,)
  4569 ;;		 -> SPI_Exchange(1), 
  4570 ;; Auto vars:     Size  Location     Type
  4571 ;;		None
  4572 ;; Return value:  Size  Location     Type
  4573 ;;                  1    wreg      void 
  4574 ;; Registers used:
  4575 ;;		wreg
  4576 ;; Tracked objects:
  4577 ;;		On entry : 0/0
  4578 ;;		On exit  : 0/0
  4579 ;;		Unchanged: 0/0
  4580 ;; Data sizes:     COMMON   BANK0   BANK1   BANK2   BANK3   BANK4   BANK5   BANK6
  4581 ;;      Params:         0       2       0       0       0       0       0       0
  4582 ;;      Locals:         0       0       0       0       0       0       0       0
  4583 ;;      Temps:          0       0       0       0       0       0       0       0
  4584 ;;      Totals:         0       2       0       0       0       0       0       0
  4585 ;;Total ram usage:        2 bytes
  4586 ;; Hardware stack levels used:    1
  4587 ;; Hardware stack levels required when called:    4
  4588 ;; This function calls:
  4589 ;;		Nothing
  4590 ;; This function is called by:
  4591 ;;		_NRF24L01_Init
  4592 ;; This function uses a non-reentrant model
  4593 ;;
  4594                           
  4595                           
  4596                           ;psect for function _NRF_Set_SPI_Handler
  4597  07F8                     _NRF_Set_SPI_Handler:
  4598  07F8                     l2139:	
  4599                           ;incstack = 0
  4600                           ; Regs used in _NRF_Set_SPI_Handler: [wreg]
  4601                           
  4602  07F8  0020               	movlb	0	; select bank0
  4603  07F9  0826               	movf	NRF_Set_SPI_Handler@SPI_Handler+1,w
  4604  07FA  00E5               	movwf	_p_NRF_SPI_Exchange+1
  4605  07FB  0825               	movf	NRF_Set_SPI_Handler@SPI_Handler,w
  4606  07FC  00E4               	movwf	_p_NRF_SPI_Exchange
  4607  07FD                     l205:
  4608  07FD  0008               	return
  4609  07FE                     __end_of_NRF_Set_SPI_Handler:
  4610                           
  4611                           	psect	text22
  4612  0D5B                     __ptext22:	
  4613 ;; *************** function _NVM_Init *****************
  4614 ;; Defined at:
  4615 ;;		line 59 in file "02-SRC/04-DRIVER/target.c"
  4616 ;; Parameters:    Size  Location     Type
  4617 ;;		None
  4618 ;; Auto vars:     Size  Location     Type
  4619 ;;  InitBuffer     32   14[BANK0 ] unsigned char [32]
  4620 ;;  EE_Init         1    0        unsigned char 
  4621 ;; Return value:  Size  Location     Type
  4622 ;;                  1    wreg      void 
  4623 ;; Registers used:
  4624 ;;		wreg, fsr1l, fsr1h, status,2, status,0, pclath, cstack
  4625 ;; Tracked objects:
  4626 ;;		On entry : 0/0
  4627 ;;		On exit  : 0/0
  4628 ;;		Unchanged: 0/0
  4629 ;; Data sizes:     COMMON   BANK0   BANK1   BANK2   BANK3   BANK4   BANK5   BANK6
  4630 ;;      Params:         0       0       0       0       0       0       0       0
  4631 ;;      Locals:         0      33       0       0       0       0       0       0
  4632 ;;      Temps:          0       2       0       0       0       0       0       0
  4633 ;;      Totals:         0      35       0       0       0       0       0       0
  4634 ;;Total ram usage:       35 bytes
  4635 ;; Hardware stack levels used:    1
  4636 ;; Hardware stack levels required when called:    6
  4637 ;; This function calls:
  4638 ;;		_NVM_Read
  4639 ;;		_NVM_Write_Row
  4640 ;; This function is called by:
  4641 ;;		_main
  4642 ;; This function uses a non-reentrant model
  4643 ;;
  4644                           
  4645                           
  4646                           ;psect for function _NVM_Init
  4647  0D5B                     _NVM_Init:
  4648  0D5B                     l2851:	
  4649                           ;incstack = 0
  4650                           ; Regs used in _NVM_Init: [wreg+fsr1l+fsr1h+status,2+status,0+pclath+cstack]
  4651                           
  4652  0D5B  3080               	movlw	128
  4653  0D5C  0020               	movlb	0	; select bank0
  4654  0D5D  00A5               	movwf	NVM_Read@address
  4655  0D5E  301F               	movlw	31
  4656  0D5F  00A6               	movwf	NVM_Read@address+1
  4657  0D60  3197  2767  318D   	fcall	_NVM_Read
  4658  0D63                     l2853:
  4659  0D63  302E               	movlw	low NVM_Init@InitBuffer
  4660  0D64  0086               	movwf	6
  4661  0D65  3000               	movlw	high NVM_Init@InitBuffer
  4662  0D66  0087               	movwf	7
  4663  0D67  3020               	movlw	32
  4664  0D68  0020               	movlb	0	; select bank0
  4665  0D69  00AC               	movwf	??_NVM_Init
  4666  0D6A  3000               	movlw	0
  4667  0D6B                     u2820:
  4668  0D6B  001E               	movwi fsr1++
  4669  0D6C  0BAC               	decfsz	??_NVM_Init,f
  4670  0D6D  2D6B               	goto	u2820
  4671  0D6E                     l2855:
  4672  0D6E  3080               	movlw	128
  4673  0D6F  00A5               	movwf	NVM_Read@address
  4674  0D70  301F               	movlw	31
  4675  0D71  00A6               	movwf	NVM_Read@address+1
  4676  0D72  3197  2767  318D   	fcall	_NVM_Read
  4677  0D75  3AA5               	xorlw	165
  4678  0D76  1903               	skipnz
  4679  0D77  2D79               	goto	u2831
  4680  0D78  2D7A               	goto	u2830
  4681  0D79                     u2831:
  4682  0D79  2DB8               	goto	l416
  4683  0D7A                     u2830:
  4684  0D7A                     l2857:
  4685  0D7A  30A5               	movlw	165
  4686  0D7B  0020               	movlb	0	; select bank0
  4687  0D7C  00AC               	movwf	??_NVM_Init
  4688  0D7D  082C               	movf	??_NVM_Init,w
  4689  0D7E  00AE               	movwf	NVM_Init@InitBuffer
  4690  0D7F  304E               	movlw	78
  4691  0D80  00AC               	movwf	??_NVM_Init
  4692  0D81  082C               	movf	??_NVM_Init,w
  4693  0D82  00AF               	movwf	NVM_Init@InitBuffer+1
  4694  0D83  306F               	movlw	111
  4695  0D84  00AC               	movwf	??_NVM_Init
  4696  0D85  082C               	movf	??_NVM_Init,w
  4697  0D86  00B0               	movwf	NVM_Init@InitBuffer+2
  4698  0D87  3064               	movlw	100
  4699  0D88  00AC               	movwf	??_NVM_Init
  4700  0D89  082C               	movf	??_NVM_Init,w
  4701  0D8A  00B1               	movwf	NVM_Init@InitBuffer+3
  4702  0D8B  3065               	movlw	101
  4703  0D8C  00AC               	movwf	??_NVM_Init
  4704  0D8D  082C               	movf	??_NVM_Init,w
  4705  0D8E  00B2               	movwf	NVM_Init@InitBuffer+4
  4706  0D8F  3030               	movlw	48
  4707  0D90  00AC               	movwf	??_NVM_Init
  4708  0D91  082C               	movf	??_NVM_Init,w
  4709  0D92  00B3               	movwf	NVM_Init@InitBuffer+5
  4710  0D93  30BA               	movlw	186
  4711  0D94  00AC               	movwf	??_NVM_Init
  4712  0D95  082C               	movf	??_NVM_Init,w
  4713  0D96  00B4               	movwf	NVM_Init@InitBuffer+6
  4714  0D97  305E               	movlw	94
  4715  0D98  00AC               	movwf	??_NVM_Init
  4716  0D99  082C               	movf	??_NVM_Init,w
  4717  0D9A  00B5               	movwf	NVM_Init@InitBuffer+7
  4718  0D9B  30BA               	movlw	186
  4719  0D9C  00AC               	movwf	??_NVM_Init
  4720  0D9D  082C               	movf	??_NVM_Init,w
  4721  0D9E  00B6               	movwf	NVM_Init@InitBuffer+8
  4722  0D9F  3011               	movlw	17
  4723  0DA0  00AC               	movwf	??_NVM_Init
  4724  0DA1  082C               	movf	??_NVM_Init,w
  4725  0DA2  00B7               	movwf	NVM_Init@InitBuffer+9
  4726  0DA3                     l2859:
  4727  0DA3  01B8               	clrf	NVM_Init@InitBuffer+10
  4728  0DA4  0AB8               	incf	NVM_Init@InitBuffer+10,f
  4729  0DA5  3064               	movlw	100
  4730  0DA6  00AC               	movwf	??_NVM_Init
  4731  0DA7  082C               	movf	??_NVM_Init,w
  4732  0DA8  00B9               	movwf	NVM_Init@InitBuffer+11
  4733  0DA9                     l2861:
  4734  0DA9  3080               	movlw	128
  4735  0DAA  00A5               	movwf	NVM_Write_Row@address
  4736  0DAB  301F               	movlw	31
  4737  0DAC  00A6               	movwf	NVM_Write_Row@address+1
  4738  0DAD  302E               	movlw	(low (NVM_Init@InitBuffer| 0))& (0+255)
  4739  0DAE  00AC               	movwf	??_NVM_Init
  4740  0DAF  082C               	movf	??_NVM_Init,w
  4741  0DB0  00A7               	movwf	NVM_Write_Row@WriteBuff
  4742  0DB1  300C               	movlw	12
  4743  0DB2  00AD               	movwf	??_NVM_Init+1
  4744  0DB3  082D               	movf	??_NVM_Init+1,w
  4745  0DB4  00A8               	movwf	NVM_Write_Row@Length
  4746  0DB5  318B  23B8  318D   	fcall	_NVM_Write_Row
  4747  0DB8                     l416:
  4748  0DB8  0008               	return
  4749  0DB9                     __end_of_NVM_Init:
  4750                           
  4751                           	psect	text23
  4752  0BB8                     __ptext23:	
  4753 ;; *************** function _NVM_Write_Row *****************
  4754 ;; Defined at:
  4755 ;;		line 161 in file "02-SRC/04-DRIVER/target.c"
  4756 ;; Parameters:    Size  Location     Type
  4757 ;;  address         2    5[BANK0 ] unsigned short 
  4758 ;;  WriteBuff       1    7[BANK0 ] PTR unsigned char 
  4759 ;;		 -> NVM_Init@InitBuffer(32), 
  4760 ;;  Length          1    8[BANK0 ] unsigned char 
  4761 ;; Auto vars:     Size  Location     Type
  4762 ;;  i               1   11[BANK0 ] unsigned char 
  4763 ;; Return value:  Size  Location     Type
  4764 ;;                  1    wreg      void 
  4765 ;; Registers used:
  4766 ;;		wreg, fsr1l, fsr1h, status,2, status,0, pclath, cstack
  4767 ;; Tracked objects:
  4768 ;;		On entry : 0/0
  4769 ;;		On exit  : 0/0
  4770 ;;		Unchanged: 0/0
  4771 ;; Data sizes:     COMMON   BANK0   BANK1   BANK2   BANK3   BANK4   BANK5   BANK6
  4772 ;;      Params:         0       4       0       0       0       0       0       0
  4773 ;;      Locals:         0       1       0       0       0       0       0       0
  4774 ;;      Temps:          0       2       0       0       0       0       0       0
  4775 ;;      Totals:         0       7       0       0       0       0       0       0
  4776 ;;Total ram usage:        7 bytes
  4777 ;; Hardware stack levels used:    1
  4778 ;; Hardware stack levels required when called:    5
  4779 ;; This function calls:
  4780 ;;		_NWM_Unlock
  4781 ;; This function is called by:
  4782 ;;		_NVM_Init
  4783 ;; This function uses a non-reentrant model
  4784 ;;
  4785                           
  4786                           
  4787                           ;psect for function _NVM_Write_Row
  4788  0BB8                     _NVM_Write_Row:
  4789  0BB8                     l2749:	
  4790                           ;incstack = 0
  4791                           ; Regs used in _NVM_Write_Row: [wreg+fsr1l+fsr1h+status,2+status,0+pclath+cstack]
  4792                           
  4793  0BB8  0020               	movlb	0	; select bank0
  4794  0BB9  01AB               	clrf	NVM_Write_Row@i
  4795  0BBA                     l2751:
  4796  0BBA  3020               	movlw	32
  4797  0BBB  0228               	subwf	NVM_Write_Row@Length,w
  4798  0BBC  1803               	skipnc
  4799  0BBD  2BBF               	goto	u2761
  4800  0BBE  2BC0               	goto	u2760
  4801  0BBF                     u2761:
  4802  0BBF  2C05               	goto	l460
  4803  0BC0                     u2760:
  4804  0BC0                     l2753:
  4805  0BC0  301F               	movlw	31
  4806  0BC1  0525               	andwf	NVM_Write_Row@address,w
  4807  0BC2  00A9               	movwf	??_NVM_Write_Row
  4808  0BC3  3000               	movlw	0
  4809  0BC4  0526               	andwf	NVM_Write_Row@address+1,w
  4810  0BC5  00AA               	movwf	??_NVM_Write_Row+1
  4811  0BC6  0829               	movf	??_NVM_Write_Row,w
  4812  0BC7  042A               	iorwf	??_NVM_Write_Row+1,w
  4813  0BC8  1D03               	btfss	3,2
  4814  0BC9  2BCB               	goto	u2771
  4815  0BCA  2BCC               	goto	u2770
  4816  0BCB                     u2771:
  4817  0BCB  2C05               	goto	l460
  4818  0BCC                     u2770:
  4819  0BCC                     l2755:
  4820  0BCC  138B               	bcf	11,7	;volatile
  4821  0BCD                     l2757:
  4822  0BCD  0826               	movf	NVM_Write_Row@address+1,w
  4823  0BCE  0023               	movlb	3	; select bank3
  4824  0BCF  0092               	movwf	18	;volatile
  4825  0BD0                     l2759:
  4826  0BD0  0020               	movlb	0	; select bank0
  4827  0BD1  0825               	movf	NVM_Write_Row@address,w
  4828  0BD2  0023               	movlb	3	; select bank3
  4829  0BD3  0091               	movwf	17	;volatile
  4830  0BD4                     l2761:
  4831  0BD4  1315               	bcf	21,6	;volatile
  4832  0BD5                     l2763:
  4833  0BD5  1515               	bsf	21,2	;volatile
  4834  0BD6                     l2765:
  4835  0BD6  1695               	bsf	21,5	;volatile
  4836  0BD7  2BF6               	goto	l2777
  4837  0BD8                     l2767:
  4838  0BD8  082B               	movf	NVM_Write_Row@i,w
  4839  0BD9  0727               	addwf	NVM_Write_Row@WriteBuff,w
  4840  0BDA  00A9               	movwf	??_NVM_Write_Row
  4841  0BDB  0829               	movf	??_NVM_Write_Row,w
  4842  0BDC  0086               	movwf	6
  4843  0BDD  0187               	clrf	7
  4844  0BDE  0801               	movf	1,w
  4845  0BDF  0023               	movlb	3	; select bank3
  4846  0BE0  0093               	movwf	19	;volatile
  4847  0BE1                     l2769:
  4848  0BE1  0194               	clrf	20	;volatile
  4849  0BE2                     l2771:
  4850  0BE2  3197  271E  318B   	fcall	_NWM_Unlock
  4851  0BE5                     l2773:
  4852  0BE5  3001               	movlw	1
  4853  0BE6  0020               	movlb	0	; select bank0
  4854  0BE7  00A9               	movwf	??_NVM_Write_Row
  4855  0BE8  0829               	movf	??_NVM_Write_Row,w
  4856  0BE9  07AB               	addwf	NVM_Write_Row@i,f
  4857  0BEA                     l2775:
  4858  0BEA  0828               	movf	NVM_Write_Row@Length,w
  4859  0BEB  022B               	subwf	NVM_Write_Row@i,w
  4860  0BEC  1C03               	skipc
  4861  0BED  2BEF               	goto	u2781
  4862  0BEE  2BF1               	goto	u2780
  4863  0BEF                     u2781:
  4864  0BEF  3001               	movlw	1
  4865  0BF0  2BF2               	goto	u2790
  4866  0BF1                     u2780:
  4867  0BF1  3000               	movlw	0
  4868  0BF2                     u2790:
  4869  0BF2  00A9               	movwf	??_NVM_Write_Row
  4870  0BF3  0829               	movf	??_NVM_Write_Row,w
  4871  0BF4  0023               	movlb	3	; select bank3
  4872  0BF5  0791               	addwf	17,f	;volatile
  4873  0BF6                     l2777:
  4874  0BF6  0020               	movlb	0	; select bank0
  4875  0BF7  0828               	movf	NVM_Write_Row@Length,w
  4876  0BF8  022B               	subwf	NVM_Write_Row@i,w
  4877  0BF9  1C03               	skipc
  4878  0BFA  2BFC               	goto	u2801
  4879  0BFB  2BFD               	goto	u2800
  4880  0BFC                     u2801:
  4881  0BFC  2BD8               	goto	l2767
  4882  0BFD                     u2800:
  4883  0BFD                     l458:
  4884  0BFD  0023               	movlb	3	; select bank3
  4885  0BFE  1295               	bcf	21,5	;volatile
  4886  0BFF                     l2779:
  4887  0BFF  3197  271E  318B   	fcall	_NWM_Unlock
  4888  0C02                     l2781:
  4889  0C02  0023               	movlb	3	; select bank3
  4890  0C03  1115               	bcf	21,2	;volatile
  4891  0C04                     l2783:
  4892  0C04  178B               	bsf	11,7	;volatile
  4893  0C05                     l460:
  4894  0C05  0008               	return
  4895  0C06                     __end_of_NVM_Write_Row:
  4896                           
  4897                           	psect	text24
  4898  171E                     __ptext24:	
  4899 ;; *************** function _NWM_Unlock *****************
  4900 ;; Defined at:
  4901 ;;		line 141 in file "02-SRC/04-DRIVER/target.c"
  4902 ;; Parameters:    Size  Location     Type
  4903 ;;		None
  4904 ;; Auto vars:     Size  Location     Type
  4905 ;;		None
  4906 ;; Return value:  Size  Location     Type
  4907 ;;                  1    wreg      void 
  4908 ;; Registers used:
  4909 ;;		wreg
  4910 ;; Tracked objects:
  4911 ;;		On entry : 0/0
  4912 ;;		On exit  : 0/0
  4913 ;;		Unchanged: 0/0
  4914 ;; Data sizes:     COMMON   BANK0   BANK1   BANK2   BANK3   BANK4   BANK5   BANK6
  4915 ;;      Params:         0       0       0       0       0       0       0       0
  4916 ;;      Locals:         0       0       0       0       0       0       0       0
  4917 ;;      Temps:          0       0       0       0       0       0       0       0
  4918 ;;      Totals:         0       0       0       0       0       0       0       0
  4919 ;;Total ram usage:        0 bytes
  4920 ;; Hardware stack levels used:    1
  4921 ;; Hardware stack levels required when called:    4
  4922 ;; This function calls:
  4923 ;;		Nothing
  4924 ;; This function is called by:
  4925 ;;		_NVM_Write_Row
  4926 ;;		_NVM_Erase
  4927 ;; This function uses a non-reentrant model
  4928 ;;
  4929                           
  4930                           
  4931                           ;psect for function _NWM_Unlock
  4932  171E                     _NWM_Unlock:
  4933  171E                     l2169:	
  4934                           ;incstack = 0
  4935                           ; Regs used in _NWM_Unlock: [wreg]
  4936                           
  4937  171E  3055               	movlw	85
  4938  171F  0023               	movlb	3	; select bank3
  4939  1720  0096               	movwf	22	;volsfr
  4940  1721  30AA               	movlw	170
  4941  1722  0096               	movwf	22	;volsfr
  4942  1723                     l2171:
  4943  1723  1495               	bsf	21,1	;volatile
  4944  1724                     l2173:
  4945  1724  0000               	nop
  4946  1725                     l2175:
  4947  1725  0000               	nop
  4948  1726                     l449:
  4949  1726  0008               	return
  4950  1727                     __end_of_NWM_Unlock:
  4951                           
  4952                           	psect	text25
  4953  1767                     __ptext25:	
  4954 ;; *************** function _NVM_Read *****************
  4955 ;; Defined at:
  4956 ;;		line 124 in file "02-SRC/04-DRIVER/target.c"
  4957 ;; Parameters:    Size  Location     Type
  4958 ;;  address         2    5[BANK0 ] unsigned short 
  4959 ;; Auto vars:     Size  Location     Type
  4960 ;;		None
  4961 ;; Return value:  Size  Location     Type
  4962 ;;                  1    wreg      unsigned char 
  4963 ;; Registers used:
  4964 ;;		wreg, status,2
  4965 ;; Tracked objects:
  4966 ;;		On entry : 0/0
  4967 ;;		On exit  : 0/0
  4968 ;;		Unchanged: 0/0
  4969 ;; Data sizes:     COMMON   BANK0   BANK1   BANK2   BANK3   BANK4   BANK5   BANK6
  4970 ;;      Params:         0       2       0       0       0       0       0       0
  4971 ;;      Locals:         0       0       0       0       0       0       0       0
  4972 ;;      Temps:          0       0       0       0       0       0       0       0
  4973 ;;      Totals:         0       2       0       0       0       0       0       0
  4974 ;;Total ram usage:        2 bytes
  4975 ;; Hardware stack levels used:    1
  4976 ;; Hardware stack levels required when called:    4
  4977 ;; This function calls:
  4978 ;;		Nothing
  4979 ;; This function is called by:
  4980 ;;		_NVM_Init
  4981 ;;		_NVM_Read_Buff
  4982 ;; This function uses a non-reentrant model
  4983 ;;
  4984                           
  4985                           
  4986                           ;psect for function _NVM_Read
  4987  1767                     _NVM_Read:
  4988  1767                     l2153:	
  4989                           ;incstack = 0
  4990                           ; Regs used in _NVM_Read: [wreg+status,2]
  4991                           
  4992  1767  0023               	movlb	3	; select bank3
  4993  1768  1315               	bcf	21,6	;volatile
  4994  1769                     l2155:
  4995  1769  0020               	movlb	0	; select bank0
  4996  176A  0826               	movf	NVM_Read@address+1,w
  4997  176B  0023               	movlb	3	; select bank3
  4998  176C  0092               	movwf	18	;volatile
  4999  176D                     l2157:
  5000  176D  0020               	movlb	0	; select bank0
  5001  176E  0825               	movf	NVM_Read@address,w
  5002  176F  0023               	movlb	3	; select bank3
  5003  1770  0091               	movwf	17	;volatile
  5004  1771                     l2159:
  5005  1771  1415               	bsf	21,0	;volatile
  5006  1772                     l2161:
  5007  1772  0000               	nop
  5008  1773                     l2163:
  5009  1773  0000               	nop
  5010  1774                     l2165:
  5011  1774  0023               	movlb	3	; select bank3
  5012  1775  0813               	movf	19,w	;volatile
  5013  1776                     l440:
  5014  1776  0008               	return
  5015  1777                     __end_of_NVM_Read:
  5016                           
  5017                           	psect	text26
  5018  0B38                     __ptext26:	
  5019 ;; *************** function _MCU_Init *****************
  5020 ;; Defined at:
  5021 ;;		line 12 in file "02-SRC/04-DRIVER/target.c"
  5022 ;; Parameters:    Size  Location     Type
  5023 ;;		None
  5024 ;; Auto vars:     Size  Location     Type
  5025 ;;		None
  5026 ;; Return value:  Size  Location     Type
  5027 ;;                  1    wreg      void 
  5028 ;; Registers used:
  5029 ;;		wreg, status,2, status,0, pclath, cstack
  5030 ;; Tracked objects:
  5031 ;;		On entry : 0/0
  5032 ;;		On exit  : 0/0
  5033 ;;		Unchanged: 0/0
  5034 ;; Data sizes:     COMMON   BANK0   BANK1   BANK2   BANK3   BANK4   BANK5   BANK6
  5035 ;;      Params:         0       0       0       0       0       0       0       0
  5036 ;;      Locals:         0       0       0       0       0       0       0       0
  5037 ;;      Temps:          0       0       0       0       0       0       0       0
  5038 ;;      Totals:         0       0       0       0       0       0       0       0
  5039 ;;Total ram usage:        0 bytes
  5040 ;; Hardware stack levels used:    1
  5041 ;; Hardware stack levels required when called:    5
  5042 ;; This function calls:
  5043 ;;		_SetPWM1
  5044 ;;		_SetPWM2
  5045 ;; This function is called by:
  5046 ;;		_main
  5047 ;; This function uses a non-reentrant model
  5048 ;;
  5049                           
  5050                           
  5051                           ;psect for function _MCU_Init
  5052  0B38                     _MCU_Init:
  5053  0B38                     l2799:	
  5054                           ;incstack = 0
  5055                           ; Regs used in _MCU_Init: [wreg+status,2+status,0+pclath+cstack]
  5056                           
  5057  0B38  0021               	movlb	1	; select bank1
  5058  0B39  01BC               	clrf	_Tick_1ms^(0+128)
  5059  0B3A  01BD               	clrf	(_Tick_1ms+1)^(0+128)
  5060  0B3B                     l2801:
  5061  0B3B  3078               	movlw	120
  5062  0B3C  0099               	movwf	25	;volatile
  5063  0B3D                     l2803:
  5064  0B3D  0023               	movlb	3	; select bank3
  5065  0B3E  018C               	clrf	12	;volatile
  5066  0B3F                     l2805:
  5067  0B3F  018D               	clrf	13	;volatile
  5068  0B40                     l2807:
  5069  0B40  3044               	movlw	68
  5070  0B41  008E               	movwf	14	;volatile
  5071  0B42                     l2809:
  5072  0B42  3044               	movlw	68
  5073  0B43  0021               	movlb	1	; select bank1
  5074  0B44  008E               	movwf	14	;volatile
  5075  0B45                     l2811:
  5076  0B45  303F               	movlw	63
  5077  0B46  008D               	movwf	13	;volatile
  5078  0B47                     l2813:
  5079  0B47  30FF               	movlw	255
  5080  0B48  008C               	movwf	12	;volatile
  5081  0B49                     l2815:
  5082  0B49  3040               	movlw	64
  5083  0B4A  0024               	movlb	4	; select bank4
  5084  0B4B  0094               	movwf	20	;volatile
  5085  0B4C                     l2817:
  5086  0B4C  3021               	movlw	33
  5087  0B4D  0095               	movwf	21	;volatile
  5088  0B4E                     l2819:
  5089  0B4E  3083               	movlw	131
  5090  0B4F  0021               	movlb	1	; select bank1
  5091  0B50  0095               	movwf	21	;volatile
  5092  0B51                     l2821:
  5093  0B51  3005               	movlw	5
  5094  0B52  0020               	movlb	0	; select bank0
  5095  0B53  0095               	movwf	21	;volatile
  5096  0B54                     l2823:
  5097  0B54  168B               	bsf	11,5	;volatile
  5098  0B55                     l2825:
  5099  0B55  30FF               	movlw	255
  5100  0B56  009B               	movwf	27	;volatile
  5101  0B57                     l2827:
  5102  0B57  3004               	movlw	4
  5103  0B58  009C               	movwf	28	;volatile
  5104  0B59                     l2829:
  5105  0B59  3000               	movlw	0
  5106  0B5A  00AF               	movwf	SetPWM1@DutyCycle
  5107  0B5B  00B0               	movwf	SetPWM1@DutyCycle+1
  5108  0B5C  3197  27C7  318B   	fcall	_SetPWM1
  5109  0B5F                     l2831:
  5110  0B5F  3000               	movlw	0
  5111  0B60  0020               	movlb	0	; select bank0
  5112  0B61  00A5               	movwf	SetPWM2@DutyCycle
  5113  0B62  00A6               	movwf	SetPWM2@DutyCycle+1
  5114  0B63  3187  27E0  318B   	fcall	_SetPWM2
  5115  0B66                     l2833:
  5116  0B66  30C0               	movlw	192
  5117  0B67  002C               	movlb	12	; select bank12
  5118  0B68  0093               	movwf	19	;volatile
  5119  0B69                     l2835:
  5120  0B69  30C0               	movlw	192
  5121  0B6A  0096               	movwf	22	;volatile
  5122  0B6B                     l2837:
  5123  0B6B  30A0               	movlw	160
  5124  0B6C  0021               	movlb	1	; select bank1
  5125  0B6D  009E               	movwf	30	;volatile
  5126  0B6E                     l2839:
  5127  0B6E  141D               	bsf	29,0	;volatile
  5128  0B6F                     l2841:
  5129  0B6F  3004               	movlw	4
  5130  0B70  0027               	movlb	7	; select bank7
  5131  0B71  0092               	movwf	18	;volatile
  5132  0B72                     l2843:
  5133  0B72  158B               	bsf	11,3	;volatile
  5134  0B73                     l2845:
  5135  0B73  100B               	bcf	11,0	;volatile
  5136  0B74                     l2847:
  5137  0B74  170B               	bsf	11,6	;volatile
  5138  0B75                     l2849:
  5139  0B75  178B               	bsf	11,7	;volatile
  5140  0B76                     l409:
  5141  0B76  0008               	return
  5142  0B77                     __end_of_MCU_Init:
  5143                           
  5144                           	psect	text27
  5145  1706                     __ptext27:	
  5146 ;; *************** function _Appl_Init *****************
  5147 ;; Defined at:
  5148 ;;		line 40 in file "02-SRC/02-APPLICATION/Appl.c"
  5149 ;; Parameters:    Size  Location     Type
  5150 ;;		None
  5151 ;; Auto vars:     Size  Location     Type
  5152 ;;		None
  5153 ;; Return value:  Size  Location     Type
  5154 ;;                  1    wreg      void 
  5155 ;; Registers used:
  5156 ;;		wreg, status,2, status,0, pclath, cstack
  5157 ;; Tracked objects:
  5158 ;;		On entry : 0/0
  5159 ;;		On exit  : 0/0
  5160 ;;		Unchanged: 0/0
  5161 ;; Data sizes:     COMMON   BANK0   BANK1   BANK2   BANK3   BANK4   BANK5   BANK6
  5162 ;;      Params:         0       0       0       0       0       0       0       0
  5163 ;;      Locals:         0       0       0       0       0       0       0       0
  5164 ;;      Temps:          0       0       0       0       0       0       0       0
  5165 ;;      Totals:         0       0       0       0       0       0       0       0
  5166 ;;Total ram usage:        0 bytes
  5167 ;; Hardware stack levels used:    1
  5168 ;; Hardware stack levels required when called:    5
  5169 ;; This function calls:
  5170 ;;		_QueueInit
  5171 ;; This function is called by:
  5172 ;;		_main
  5173 ;; This function uses a non-reentrant model
  5174 ;;
  5175                           
  5176                           
  5177                           ;psect for function _Appl_Init
  5178  1706                     _Appl_Init:
  5179  1706                     l2895:	
  5180                           ;incstack = 0
  5181                           ; Regs used in _Appl_Init: [wreg+status,2+status,0+pclath+cstack]
  5182                           
  5183  1706  0022               	movlb	2	; select bank2
  5184  1707  120E               	bcf	14,4	;volatile
  5185  1708                     l2897:
  5186  1708  3197  274B  3197   	fcall	_QueueInit
  5187  170B                     l59:
  5188  170B  0008               	return
  5189  170C                     __end_of_Appl_Init:
  5190                           
  5191                           	psect	text28
  5192  174B                     __ptext28:	
  5193 ;; *************** function _QueueInit *****************
  5194 ;; Defined at:
  5195 ;;		line 45 in file "02-SRC/02-APPLICATION/Appl.c"
  5196 ;; Parameters:    Size  Location     Type
  5197 ;;		None
  5198 ;; Auto vars:     Size  Location     Type
  5199 ;;		None
  5200 ;; Return value:  Size  Location     Type
  5201 ;;                  1    wreg      void 
  5202 ;; Registers used:
  5203 ;;		wreg
  5204 ;; Tracked objects:
  5205 ;;		On entry : 0/0
  5206 ;;		On exit  : 0/0
  5207 ;;		Unchanged: 0/0
  5208 ;; Data sizes:     COMMON   BANK0   BANK1   BANK2   BANK3   BANK4   BANK5   BANK6
  5209 ;;      Params:         0       0       0       0       0       0       0       0
  5210 ;;      Locals:         0       0       0       0       0       0       0       0
  5211 ;;      Temps:          0       0       0       0       0       0       0       0
  5212 ;;      Totals:         0       0       0       0       0       0       0       0
  5213 ;;Total ram usage:        0 bytes
  5214 ;; Hardware stack levels used:    1
  5215 ;; Hardware stack levels required when called:    4
  5216 ;; This function calls:
  5217 ;;		Nothing
  5218 ;; This function is called by:
  5219 ;;		_Appl_Init
  5220 ;; This function uses a non-reentrant model
  5221 ;;
  5222                           
  5223                           
  5224                           ;psect for function _QueueInit
  5225  174B                     _QueueInit:
  5226  174B                     l2557:	
  5227                           ;incstack = 0
  5228                           ; Regs used in _QueueInit: [wreg]
  5229                           
  5230  174B  3080               	movlw	128
  5231  174C  0021               	movlb	1	; select bank1
  5232  174D  00AC               	movwf	(_MyQueue^(0+128)+4)
  5233  174E  3000               	movlw	0
  5234  174F  00AD               	movwf	(_MyQueue^(0+128)+5)
  5235  1750  30FF               	movlw	255
  5236  1751  00A8               	movwf	_MyQueue^(0+128)
  5237  1752  30FF               	movlw	255
  5238  1753  00A9               	movwf	(_MyQueue^(0+128)+1)
  5239  1754  30FF               	movlw	255
  5240  1755  00AA               	movwf	(_MyQueue^(0+128)+2)
  5241  1756  30FF               	movlw	255
  5242  1757  00AB               	movwf	(_MyQueue^(0+128)+3)
  5243  1758                     l62:
  5244  1758  0008               	return
  5245  1759                     __end_of_QueueInit:
  5246                           
  5247                           	psect	text29
  5248  0CFE                     __ptext29:	
  5249 ;; *************** function _APPL_TASK_10MS *****************
  5250 ;; Defined at:
  5251 ;;		line 166 in file "02-SRC/02-APPLICATION/Appl.c"
  5252 ;; Parameters:    Size  Location     Type
  5253 ;;		None
  5254 ;; Auto vars:     Size  Location     Type
  5255 ;;  LED1            1   67[BANK0 ] unsigned char 
  5256 ;;  LED2            1   66[BANK0 ] unsigned char 
  5257 ;;  D_lay           1   65[BANK0 ] unsigned char 
  5258 ;; Return value:  Size  Location     Type
  5259 ;;                  1    wreg      void 
  5260 ;; Registers used:
  5261 ;;		wreg, fsr0l, fsr0h, fsr1l, fsr1h, status,2, status,0, pclath, cstack
  5262 ;; Tracked objects:
  5263 ;;		On entry : 0/0
  5264 ;;		On exit  : 0/0
  5265 ;;		Unchanged: 0/0
  5266 ;; Data sizes:     COMMON   BANK0   BANK1   BANK2   BANK3   BANK4   BANK5   BANK6
  5267 ;;      Params:         0       0       0       0       0       0       0       0
  5268 ;;      Locals:         0       3       0       0       0       0       0       0
  5269 ;;      Temps:          0       2       0       0       0       0       0       0
  5270 ;;      Totals:         0       5       0       0       0       0       0       0
  5271 ;;Total ram usage:        5 bytes
  5272 ;; Hardware stack levels used:    1
  5273 ;; Hardware stack levels required when called:    7
  5274 ;; This function calls:
  5275 ;;		_Get_PWM1Cmd
  5276 ;;		_Get_PWM2Cmd
  5277 ;;		_Get_Slope1
  5278 ;;		_KeepDistance
  5279 ;;		_LinearTransiant
  5280 ;;		_SetPWM1
  5281 ;;		_SetPWM2
  5282 ;;		_deQueue
  5283 ;;		_enQueue
  5284 ;; This function is called by:
  5285 ;;		_main
  5286 ;; This function uses a non-reentrant model
  5287 ;;
  5288                           
  5289                           
  5290                           ;psect for function _APPL_TASK_10MS
  5291  0CFE                     _APPL_TASK_10MS:
  5292  0CFE                     l3737:	
  5293                           ;incstack = 0
  5294                           ; Regs used in _APPL_TASK_10MS: [wreg-fsr1h+status,2+status,0+pclath+cstack]
  5295                           
  5296  0CFE  3196  26FD  318C   	fcall	_Get_PWM1Cmd
  5297  0D01  0020               	movlb	0	; select bank0
  5298  0D02  00DF               	movwf	??_APPL_TASK_10MS
  5299  0D03  085F               	movf	??_APPL_TASK_10MS,w
  5300  0D04  00E3               	movwf	APPL_TASK_10MS@LED1
  5301  0D05  3197  2703  318C   	fcall	_Get_Slope1
  5302  0D08  0020               	movlb	0	; select bank0
  5303  0D09  00DF               	movwf	??_APPL_TASK_10MS
  5304  0D0A  085F               	movf	??_APPL_TASK_10MS,w
  5305  0D0B  00E1               	movwf	APPL_TASK_10MS@D_lay
  5306  0D0C  3197  2700  318C   	fcall	_Get_PWM2Cmd
  5307  0D0F  0020               	movlb	0	; select bank0
  5308  0D10  00DF               	movwf	??_APPL_TASK_10MS
  5309  0D11  085F               	movf	??_APPL_TASK_10MS,w
  5310  0D12  00E2               	movwf	APPL_TASK_10MS@LED2
  5311  0D13                     l3739:
  5312  0D13  0867               	movf	APPL_TASK_10MS@OldValue,w
  5313  0D14  00DF               	movwf	??_APPL_TASK_10MS
  5314  0D15  085F               	movf	??_APPL_TASK_10MS,w
  5315  0D16  00D8               	movwf	LinearTransiant@OldValue
  5316  0D17  0861               	movf	APPL_TASK_10MS@D_lay,w
  5317  0D18  00E0               	movwf	??_APPL_TASK_10MS+1
  5318  0D19  0860               	movf	??_APPL_TASK_10MS+1,w
  5319  0D1A  00D9               	movwf	LinearTransiant@Duration10ms
  5320  0D1B  0863               	movf	APPL_TASK_10MS@LED1,w
  5321  0D1C  3186  267F  318C   	fcall	_LinearTransiant
  5322  0D1F                     l3741:
  5323  0D1F  0020               	movlb	0	; select bank0
  5324  0D20  0863               	movf	APPL_TASK_10MS@LED1,w
  5325  0D21  00DF               	movwf	??_APPL_TASK_10MS
  5326  0D22  085F               	movf	??_APPL_TASK_10MS,w
  5327  0D23  00E7               	movwf	APPL_TASK_10MS@OldValue
  5328  0D24                     l3743:
  5329  0D24  3001               	movlw	1
  5330  0D25  3189  2183  318C   	fcall	_KeepDistance
  5331  0D28  3A00               	xorlw	0
  5332  0D29  1903               	skipnz
  5333  0D2A  2D2C               	goto	u4221
  5334  0D2B  2D2D               	goto	u4220
  5335  0D2C                     u4221:
  5336  0D2C  2D32               	goto	l3747
  5337  0D2D                     u4220:
  5338  0D2D                     l3745:
  5339  0D2D  0020               	movlb	0	; select bank0
  5340  0D2E  0867               	movf	APPL_TASK_10MS@OldValue,w
  5341  0D2F  318C  2456  318C   	fcall	_enQueue
  5342  0D32                     l3747:
  5343  0D32  318C  2406  318C   	fcall	_deQueue
  5344  0D35  0020               	movlb	0	; select bank0
  5345  0D36  00DF               	movwf	??_APPL_TASK_10MS
  5346  0D37  01E0               	clrf	??_APPL_TASK_10MS+1
  5347  0D38  35DF               	lslf	??_APPL_TASK_10MS,f
  5348  0D39  0DE0               	rlf	??_APPL_TASK_10MS+1,f
  5349  0D3A  30CB               	movlw	low (_gamma10| (0+32768))
  5350  0D3B  075F               	addwf	??_APPL_TASK_10MS,w
  5351  0D3C  0084               	movwf	4
  5352  0D3D  3082               	movlw	high (_gamma10| (0+32768))
  5353  0D3E  3D60               	addwfc	??_APPL_TASK_10MS+1,w
  5354  0D3F  0085               	movwf	5
  5355  0D40  3F00               	moviw [0]fsr0
  5356  0D41  00AF               	movwf	SetPWM1@DutyCycle
  5357  0D42  3F01               	moviw [1]fsr0
  5358  0D43  00B0               	movwf	SetPWM1@DutyCycle+1
  5359  0D44  3197  27C7  318C   	fcall	_SetPWM1
  5360  0D47                     l3749:
  5361  0D47  0020               	movlb	0	; select bank0
  5362  0D48  0862               	movf	APPL_TASK_10MS@LED2,w
  5363  0D49  00DF               	movwf	??_APPL_TASK_10MS
  5364  0D4A  01E0               	clrf	??_APPL_TASK_10MS+1
  5365  0D4B  35DF               	lslf	??_APPL_TASK_10MS,f
  5366  0D4C  0DE0               	rlf	??_APPL_TASK_10MS+1,f
  5367  0D4D  30CB               	movlw	low (_gamma10| (0+32768))
  5368  0D4E  075F               	addwf	??_APPL_TASK_10MS,w
  5369  0D4F  0084               	movwf	4
  5370  0D50  3082               	movlw	high (_gamma10| (0+32768))
  5371  0D51  3D60               	addwfc	??_APPL_TASK_10MS+1,w
  5372  0D52  0085               	movwf	5
  5373  0D53  3F00               	moviw [0]fsr0
  5374  0D54  00A5               	movwf	SetPWM2@DutyCycle
  5375  0D55  3F01               	moviw [1]fsr0
  5376  0D56  00A6               	movwf	SetPWM2@DutyCycle+1
  5377  0D57  3187  27E0  318C   	fcall	_SetPWM2
  5378  0D5A                     l120:
  5379  0D5A  0008               	return
  5380  0D5B                     __end_of_APPL_TASK_10MS:
  5381                           
  5382                           	psect	text30
  5383  0C06                     __ptext30:	
  5384 ;; *************** function _deQueue *****************
  5385 ;; Defined at:
  5386 ;;		line 93 in file "02-SRC/02-APPLICATION/Appl.c"
  5387 ;; Parameters:    Size  Location     Type
  5388 ;;		None
  5389 ;; Auto vars:     Size  Location     Type
  5390 ;;  element         1   14[BANK0 ] unsigned char 
  5391 ;; Return value:  Size  Location     Type
  5392 ;;                  1    wreg      unsigned char 
  5393 ;; Registers used:
  5394 ;;		wreg, fsr1l, fsr1h, status,2, status,0, pclath, cstack
  5395 ;; Tracked objects:
  5396 ;;		On entry : 0/0
  5397 ;;		On exit  : 0/0
  5398 ;;		Unchanged: 0/0
  5399 ;; Data sizes:     COMMON   BANK0   BANK1   BANK2   BANK3   BANK4   BANK5   BANK6
  5400 ;;      Params:         0       0       0       0       0       0       0       0
  5401 ;;      Locals:         0       1       0       0       0       0       0       0
  5402 ;;      Temps:          0       3       0       0       0       0       0       0
  5403 ;;      Totals:         0       4       0       0       0       0       0       0
  5404 ;;Total ram usage:        4 bytes
  5405 ;; Hardware stack levels used:    1
  5406 ;; Hardware stack levels required when called:    5
  5407 ;; This function calls:
  5408 ;;		_IsEmpty
  5409 ;;		___lwmod
  5410 ;; This function is called by:
  5411 ;;		_APPL_TASK_10MS
  5412 ;; This function uses a non-reentrant model
  5413 ;;
  5414                           
  5415                           
  5416                           ;psect for function _deQueue
  5417  0C06                     _deQueue:
  5418  0C06                     l3545:	
  5419                           ;incstack = 0
  5420                           ; Regs used in _deQueue: [wreg+fsr1l+fsr1h+status,2+status,0+pclath+cstack]
  5421                           
  5422  0C06  0020               	movlb	0	; select bank0
  5423  0C07  01AE               	clrf	deQueue@element
  5424  0C08                     l3547:
  5425  0C08  3197  2727  318C   	fcall	_IsEmpty
  5426  0C0B  3A00               	xorlw	0
  5427  0C0C  1D03               	skipz
  5428  0C0D  2C0F               	goto	u4041
  5429  0C0E  2C10               	goto	u4040
  5430  0C0F                     u4041:
  5431  0C0F  2C53               	goto	l3557
  5432  0C10                     u4040:
  5433  0C10                     l3549:
  5434  0C10  3070               	movlw	112
  5435  0C11  0020               	movlb	0	; select bank0
  5436  0C12  00AB               	movwf	??_deQueue
  5437  0C13  3021               	movlw	33
  5438  0C14  00AC               	movwf	??_deQueue+1
  5439  0C15  0021               	movlb	1	; select bank1
  5440  0C16  0828               	movf	_MyQueue^(0+128),w
  5441  0C17  0020               	movlb	0	; select bank0
  5442  0C18  072B               	addwf	??_deQueue,w
  5443  0C19  0086               	movwf	6
  5444  0C1A  0021               	movlb	1	; select bank1
  5445  0C1B  0829               	movf	(_MyQueue+1)^(0+128),w
  5446  0C1C  0020               	movlb	0	; select bank0
  5447  0C1D  3D2C               	addwfc	??_deQueue+1,w
  5448  0C1E  0087               	movwf	7
  5449  0C1F  0801               	movf	1,w
  5450  0C20  00AD               	movwf	??_deQueue+2
  5451  0C21  082D               	movf	??_deQueue+2,w
  5452  0C22  00AE               	movwf	deQueue@element
  5453  0C23                     l3551:
  5454  0C23  0021               	movlb	1	; select bank1
  5455  0C24  0829               	movf	(_MyQueue+1)^(0+128),w
  5456  0C25  062B               	xorwf	((_MyQueue+1)^(0+128)+2),w
  5457  0C26  1D03               	skipz
  5458  0C27  2C2A               	goto	u4055
  5459  0C28  0828               	movf	_MyQueue^(0+128),w
  5460  0C29  062A               	xorwf	(_MyQueue^(0+128)+2),w
  5461  0C2A                     u4055:
  5462  0C2A  1D03               	skipz
  5463  0C2B  2C2D               	goto	u4051
  5464  0C2C  2C2E               	goto	u4050
  5465  0C2D                     u4051:
  5466  0C2D  2C37               	goto	l3555
  5467  0C2E                     u4050:
  5468  0C2E                     l3553:
  5469  0C2E  30FF               	movlw	255
  5470  0C2F  00A8               	movwf	_MyQueue^(0+128)
  5471  0C30  30FF               	movlw	255
  5472  0C31  00A9               	movwf	(_MyQueue^(0+128)+1)
  5473  0C32  30FF               	movlw	255
  5474  0C33  00AA               	movwf	(_MyQueue^(0+128)+2)
  5475  0C34  30FF               	movlw	255
  5476  0C35  00AB               	movwf	(_MyQueue^(0+128)+3)
  5477  0C36  2C53               	goto	l3557
  5478  0C37                     l3555:
  5479  0C37  082D               	movf	((_MyQueue+1)^(0+128)+4),w
  5480  0C38  0020               	movlb	0	; select bank0
  5481  0C39  00A6               	movwf	___lwmod@divisor+1
  5482  0C3A  0021               	movlb	1	; select bank1
  5483  0C3B  082C               	movf	(_MyQueue^(0+128)+4),w
  5484  0C3C  0020               	movlb	0	; select bank0
  5485  0C3D  00A5               	movwf	___lwmod@divisor
  5486  0C3E  0021               	movlb	1	; select bank1
  5487  0C3F  0828               	movf	_MyQueue^(0+128),w
  5488  0C40  3E01               	addlw	1
  5489  0C41  0020               	movlb	0	; select bank0
  5490  0C42  00A7               	movwf	___lwmod@dividend
  5491  0C43  3000               	movlw	0
  5492  0C44  0021               	movlb	1	; select bank1
  5493  0C45  3D29               	addwfc	(_MyQueue+1)^(0+128),w
  5494  0C46  0020               	movlb	0	; select bank0
  5495  0C47  00A8               	movwf	___lwmod@dividend+1
  5496  0C48  318A  2219  318C   	fcall	___lwmod
  5497  0C4B  0020               	movlb	0	; select bank0
  5498  0C4C  0826               	movf	?___lwmod+1,w
  5499  0C4D  0021               	movlb	1	; select bank1
  5500  0C4E  00A9               	movwf	(_MyQueue+1)^(0+128)
  5501  0C4F  0020               	movlb	0	; select bank0
  5502  0C50  0825               	movf	?___lwmod,w
  5503  0C51  0021               	movlb	1	; select bank1
  5504  0C52  00A8               	movwf	_MyQueue^(0+128)
  5505  0C53                     l3557:
  5506  0C53  0020               	movlb	0	; select bank0
  5507  0C54  082E               	movf	deQueue@element,w
  5508  0C55                     l88:
  5509  0C55  0008               	return
  5510  0C56                     __end_of_deQueue:
  5511                           
  5512                           	psect	text31
  5513  1727                     __ptext31:	
  5514 ;; *************** function _IsEmpty *****************
  5515 ;; Defined at:
  5516 ;;		line 57 in file "02-SRC/02-APPLICATION/Appl.c"
  5517 ;; Parameters:    Size  Location     Type
  5518 ;;		None
  5519 ;; Auto vars:     Size  Location     Type
  5520 ;;		None
  5521 ;; Return value:  Size  Location     Type
  5522 ;;                  1    wreg      unsigned char 
  5523 ;; Registers used:
  5524 ;;		wreg, status,2, status,0
  5525 ;; Tracked objects:
  5526 ;;		On entry : 0/0
  5527 ;;		On exit  : 0/0
  5528 ;;		Unchanged: 0/0
  5529 ;; Data sizes:     COMMON   BANK0   BANK1   BANK2   BANK3   BANK4   BANK5   BANK6
  5530 ;;      Params:         0       0       0       0       0       0       0       0
  5531 ;;      Locals:         0       0       0       0       0       0       0       0
  5532 ;;      Temps:          0       0       0       0       0       0       0       0
  5533 ;;      Totals:         0       0       0       0       0       0       0       0
  5534 ;;Total ram usage:        0 bytes
  5535 ;; Hardware stack levels used:    1
  5536 ;; Hardware stack levels required when called:    4
  5537 ;; This function calls:
  5538 ;;		Nothing
  5539 ;; This function is called by:
  5540 ;;		_deQueue
  5541 ;; This function uses a non-reentrant model
  5542 ;;
  5543                           
  5544                           
  5545                           ;psect for function _IsEmpty
  5546  1727                     _IsEmpty:
  5547  1727                     l2127:	
  5548                           ;incstack = 0
  5549                           ; Regs used in _IsEmpty: [wreg+status,2+status,0]
  5550                           
  5551  1727  0021               	movlb	1	; select bank1
  5552  1728  0A28               	incf	_MyQueue^(0+128),w
  5553  1729  1D03               	skipz
  5554  172A  2F31               	goto	u1670
  5555  172B  0A29               	incf	(_MyQueue+1)^(0+128),w
  5556  172C  1903               	btfsc	3,2
  5557  172D  2F2F               	goto	u1671
  5558  172E  2F31               	goto	u1670
  5559  172F                     u1671:
  5560  172F  3001               	movlw	1
  5561  1730  2F32               	goto	u1680
  5562  1731                     u1670:
  5563  1731  3000               	movlw	0
  5564  1732                     u1680:
  5565  1732                     l70:
  5566  1732  0008               	return
  5567  1733                     __end_of_IsEmpty:
  5568                           
  5569                           	psect	text32
  5570  07E0                     __ptext32:	
  5571 ;; *************** function _SetPWM2 *****************
  5572 ;; Defined at:
  5573 ;;		line 103 in file "02-SRC/04-DRIVER/target.c"
  5574 ;; Parameters:    Size  Location     Type
  5575 ;;  DutyCycle       2    5[BANK0 ] unsigned short 
  5576 ;; Auto vars:     Size  Location     Type
  5577 ;;		None
  5578 ;; Return value:  Size  Location     Type
  5579 ;;                  1    wreg      void 
  5580 ;; Registers used:
  5581 ;;		wreg, status,2, status,0
  5582 ;; Tracked objects:
  5583 ;;		On entry : 0/0
  5584 ;;		On exit  : 0/0
  5585 ;;		Unchanged: 0/0
  5586 ;; Data sizes:     COMMON   BANK0   BANK1   BANK2   BANK3   BANK4   BANK5   BANK6
  5587 ;;      Params:         0       2       0       0       0       0       0       0
  5588 ;;      Locals:         0       0       0       0       0       0       0       0
  5589 ;;      Temps:          0       2       0       0       0       0       0       0
  5590 ;;      Totals:         0       4       0       0       0       0       0       0
  5591 ;;Total ram usage:        4 bytes
  5592 ;; Hardware stack levels used:    1
  5593 ;; Hardware stack levels required when called:    4
  5594 ;; This function calls:
  5595 ;;		Nothing
  5596 ;; This function is called by:
  5597 ;;		_APPL_TASK_10MS
  5598 ;;		_MCU_Init
  5599 ;; This function uses a non-reentrant model
  5600 ;;
  5601                           
  5602                           
  5603                           ;psect for function _SetPWM2
  5604  07E0                     _SetPWM2:
  5605  07E0                     l2639:	
  5606                           ;incstack = 0
  5607                           ; Regs used in _SetPWM2: [wreg+status,2+status,0]
  5608                           
  5609  07E0  0020               	movlb	0	; select bank0
  5610  07E1  0825               	movf	SetPWM2@DutyCycle,w
  5611  07E2  00A7               	movwf	??_SetPWM2
  5612  07E3  3005               	movlw	5
  5613  07E4                     u2655:
  5614  07E4  35A7               	lslf	??_SetPWM2,f
  5615  07E5  3EFF               	addlw	-1
  5616  07E6  1D03               	skipz
  5617  07E7  2FE4               	goto	u2655
  5618  07E8  3527               	lslf	??_SetPWM2,w
  5619  07E9  002C               	movlb	12	; select bank12
  5620  07EA  0094               	movwf	20	;volatile
  5621  07EB  0020               	movlb	0	; select bank0
  5622  07EC  0826               	movf	SetPWM2@DutyCycle+1,w
  5623  07ED  00A8               	movwf	??_SetPWM2+1
  5624  07EE  0825               	movf	SetPWM2@DutyCycle,w
  5625  07EF  00A7               	movwf	??_SetPWM2
  5626  07F0  36A8               	lsrf	??_SetPWM2+1,f
  5627  07F1  0CA7               	rrf	??_SetPWM2,f
  5628  07F2  36A8               	lsrf	??_SetPWM2+1,f
  5629  07F3  0CA7               	rrf	??_SetPWM2,f
  5630  07F4  0827               	movf	??_SetPWM2,w
  5631  07F5  002C               	movlb	12	; select bank12
  5632  07F6  0095               	movwf	21	;volatile
  5633  07F7                     l425:
  5634  07F7  0008               	return
  5635  07F8                     __end_of_SetPWM2:
  5636                           
  5637                           	psect	text33
  5638  17C7                     __ptext33:	
  5639 ;; *************** function _SetPWM1 *****************
  5640 ;; Defined at:
  5641 ;;		line 98 in file "02-SRC/04-DRIVER/target.c"
  5642 ;; Parameters:    Size  Location     Type
  5643 ;;  DutyCycle       2   15[BANK0 ] unsigned short 
  5644 ;; Auto vars:     Size  Location     Type
  5645 ;;		None
  5646 ;; Return value:  Size  Location     Type
  5647 ;;                  1    wreg      void 
  5648 ;; Registers used:
  5649 ;;		wreg, status,2, status,0
  5650 ;; Tracked objects:
  5651 ;;		On entry : 0/0
  5652 ;;		On exit  : 0/0
  5653 ;;		Unchanged: 0/0
  5654 ;; Data sizes:     COMMON   BANK0   BANK1   BANK2   BANK3   BANK4   BANK5   BANK6
  5655 ;;      Params:         0       2       0       0       0       0       0       0
  5656 ;;      Locals:         0       0       0       0       0       0       0       0
  5657 ;;      Temps:          0       2       0       0       0       0       0       0
  5658 ;;      Totals:         0       4       0       0       0       0       0       0
  5659 ;;Total ram usage:        4 bytes
  5660 ;; Hardware stack levels used:    1
  5661 ;; Hardware stack levels required when called:    4
  5662 ;; This function calls:
  5663 ;;		Nothing
  5664 ;; This function is called by:
  5665 ;;		_APPL_TASK_10MS
  5666 ;;		_MCU_Init
  5667 ;; This function uses a non-reentrant model
  5668 ;;
  5669                           
  5670                           
  5671                           ;psect for function _SetPWM1
  5672  17C7                     _SetPWM1:
  5673  17C7                     l2637:	
  5674                           ;incstack = 0
  5675                           ; Regs used in _SetPWM1: [wreg+status,2+status,0]
  5676                           
  5677  17C7  0020               	movlb	0	; select bank0
  5678  17C8  082F               	movf	SetPWM1@DutyCycle,w
  5679  17C9  00B1               	movwf	??_SetPWM1
  5680  17CA  3005               	movlw	5
  5681  17CB                     u2645:
  5682  17CB  35B1               	lslf	??_SetPWM1,f
  5683  17CC  3EFF               	addlw	-1
  5684  17CD  1D03               	skipz
  5685  17CE  2FCB               	goto	u2645
  5686  17CF  3531               	lslf	??_SetPWM1,w
  5687  17D0  002C               	movlb	12	; select bank12
  5688  17D1  0091               	movwf	17	;volatile
  5689  17D2  0020               	movlb	0	; select bank0
  5690  17D3  0830               	movf	SetPWM1@DutyCycle+1,w
  5691  17D4  00B2               	movwf	??_SetPWM1+1
  5692  17D5  082F               	movf	SetPWM1@DutyCycle,w
  5693  17D6  00B1               	movwf	??_SetPWM1
  5694  17D7  36B2               	lsrf	??_SetPWM1+1,f
  5695  17D8  0CB1               	rrf	??_SetPWM1,f
  5696  17D9  36B2               	lsrf	??_SetPWM1+1,f
  5697  17DA  0CB1               	rrf	??_SetPWM1,f
  5698  17DB  0831               	movf	??_SetPWM1,w
  5699  17DC  002C               	movlb	12	; select bank12
  5700  17DD  0092               	movwf	18	;volatile
  5701  17DE                     l422:
  5702  17DE  0008               	return
  5703  17DF                     __end_of_SetPWM1:
  5704                           
  5705                           	psect	text34
  5706  067F                     __ptext34:	
  5707 ;; *************** function _LinearTransiant *****************
  5708 ;; Defined at:
  5709 ;;		line 112 in file "02-SRC/02-APPLICATION/Appl.c"
  5710 ;; Parameters:    Size  Location     Type
  5711 ;;  NewValue        1    wreg     unsigned char 
  5712 ;;  OldValue        1   56[BANK0 ] unsigned char 
  5713 ;;  Duration10ms    1   57[BANK0 ] unsigned char 
  5714 ;; Auto vars:     Size  Location     Type
  5715 ;;  NewValue        1    8[BANK1 ] unsigned char 
  5716 ;;  Slope           4    0[BANK1 ] float 
  5717 ;;  diff            2    4[BANK1 ] unsigned short 
  5718 ;;  i               1    7[BANK1 ] unsigned char 
  5719 ;;  a               1    6[BANK1 ] unsigned char 
  5720 ;; Return value:  Size  Location     Type
  5721 ;;                  1    wreg      void 
  5722 ;; Registers used:
  5723 ;;		wreg, fsr1l, fsr1h, status,2, status,0, pclath, cstack
  5724 ;; Tracked objects:
  5725 ;;		On entry : 0/0
  5726 ;;		On exit  : 0/0
  5727 ;;		Unchanged: 0/0
  5728 ;; Data sizes:     COMMON   BANK0   BANK1   BANK2   BANK3   BANK4   BANK5   BANK6
  5729 ;;      Params:         0       2       0       0       0       0       0       0
  5730 ;;      Locals:         0       0       9       0       0       0       0       0
  5731 ;;      Temps:          0       5       0       0       0       0       0       0
  5732 ;;      Totals:         0       7       9       0       0       0       0       0
  5733 ;;Total ram usage:       16 bytes
  5734 ;; Hardware stack levels used:    1
  5735 ;; Hardware stack levels required when called:    6
  5736 ;; This function calls:
  5737 ;;		___fldiv
  5738 ;;		___flmul
  5739 ;;		___fltol
  5740 ;;		___xxtofl
  5741 ;;		_enQueue
  5742 ;; This function is called by:
  5743 ;;		_APPL_TASK_10MS
  5744 ;; This function uses a non-reentrant model
  5745 ;;
  5746                           
  5747                           
  5748                           ;psect for function _LinearTransiant
  5749  067F                     _LinearTransiant:
  5750                           
  5751                           ;incstack = 0
  5752                           ; Regs used in _LinearTransiant: [wreg+fsr1l+fsr1h+status,2+status,0+pclath+cstack]
  5753                           ;LinearTransiant@NewValue stored from wreg
  5754  067F  0021               	movlb	1	; select bank1
  5755  0680  00E8               	movwf	LinearTransiant@NewValue^(0+128)
  5756  0681                     l3561:
  5757  0681  0868               	movf	LinearTransiant@NewValue^(0+128),w
  5758  0682  0020               	movlb	0	; select bank0
  5759  0683  0658               	xorwf	LinearTransiant@OldValue,w
  5760  0684  1903               	skipnz
  5761  0685  2E87               	goto	u4061
  5762  0686  2E88               	goto	u4060
  5763  0687                     u4061:
  5764  0687  2FDF               	goto	l101
  5765  0688                     u4060:
  5766  0688                     l3563:
  5767  0688  0021               	movlb	1	; select bank1
  5768  0689  0868               	movf	LinearTransiant@NewValue^(0+128),w
  5769  068A  0020               	movlb	0	; select bank0
  5770  068B  0258               	subwf	LinearTransiant@OldValue,w
  5771  068C  1803               	skipnc
  5772  068D  2E8F               	goto	u4071
  5773  068E  2E90               	goto	u4070
  5774  068F                     u4071:
  5775  068F  2F37               	goto	l3581
  5776  0690                     u4070:
  5777  0690                     l3565:
  5778  0690  0858               	movf	LinearTransiant@OldValue,w
  5779  0691  0021               	movlb	1	; select bank1
  5780  0692  0268               	subwf	LinearTransiant@NewValue^(0+128),w
  5781  0693  00E4               	movwf	LinearTransiant@diff^(0+128)
  5782  0694  01E5               	clrf	(LinearTransiant@diff^(0+128)+1)
  5783  0695  1C03               	skipc
  5784  0696  03E5               	decf	(LinearTransiant@diff+1)^(0+128),f
  5785  0697                     l3567:
  5786  0697  0020               	movlb	0	; select bank0
  5787  0698  0859               	movf	LinearTransiant@Duration10ms,w
  5788  0699  00DA               	movwf	??_LinearTransiant
  5789  069A  01DB               	clrf	??_LinearTransiant+1
  5790  069B  01DC               	clrf	??_LinearTransiant+2
  5791  069C  01DD               	clrf	??_LinearTransiant+3
  5792  069D  085D               	movf	??_LinearTransiant+3,w
  5793  069E  00A8               	movwf	___xxtofl@val+3
  5794  069F  085C               	movf	??_LinearTransiant+2,w
  5795  06A0  00A7               	movwf	___xxtofl@val+2
  5796  06A1  085B               	movf	??_LinearTransiant+1,w
  5797  06A2  00A6               	movwf	___xxtofl@val+1
  5798  06A3  085A               	movf	??_LinearTransiant,w
  5799  06A4  00A5               	movwf	___xxtofl@val
  5800  06A5  3001               	movlw	1
  5801  06A6  318F  2753  3186   	fcall	___xxtofl
  5802  06A9  0020               	movlb	0	; select bank0
  5803  06AA  0828               	movf	?___xxtofl+3,w
  5804  06AB  00B6               	movwf	___fldiv@a+3
  5805  06AC  0827               	movf	?___xxtofl+2,w
  5806  06AD  00B5               	movwf	___fldiv@a+2
  5807  06AE  0826               	movf	?___xxtofl+1,w
  5808  06AF  00B4               	movwf	___fldiv@a+1
  5809  06B0  0825               	movf	?___xxtofl,w
  5810  06B1  00B3               	movwf	___fldiv@a
  5811  06B2  0021               	movlb	1	; select bank1
  5812  06B3  0864               	movf	LinearTransiant@diff^(0+128),w
  5813  06B4  0020               	movlb	0	; select bank0
  5814  06B5  00A5               	movwf	___xxtofl@val
  5815  06B6  0021               	movlb	1	; select bank1
  5816  06B7  0865               	movf	(LinearTransiant@diff+1)^(0+128),w
  5817  06B8  0020               	movlb	0	; select bank0
  5818  06B9  00A6               	movwf	___xxtofl@val+1
  5819  06BA  01A7               	clrf	___xxtofl@val+2
  5820  06BB  01A8               	clrf	___xxtofl@val+3
  5821  06BC  3000               	movlw	0
  5822  06BD  318F  2753  3186   	fcall	___xxtofl
  5823  06C0  0020               	movlb	0	; select bank0
  5824  06C1  0828               	movf	?___xxtofl+3,w
  5825  06C2  00BA               	movwf	___fldiv@b+3
  5826  06C3  0827               	movf	?___xxtofl+2,w
  5827  06C4  00B9               	movwf	___fldiv@b+2
  5828  06C5  0826               	movf	?___xxtofl+1,w
  5829  06C6  00B8               	movwf	___fldiv@b+1
  5830  06C7  0825               	movf	?___xxtofl,w
  5831  06C8  00B7               	movwf	___fldiv@b
  5832  06C9  3184  24CB  3186   	fcall	___fldiv
  5833  06CC  0020               	movlb	0	; select bank0
  5834  06CD  0836               	movf	?___fldiv+3,w
  5835  06CE  0021               	movlb	1	; select bank1
  5836  06CF  00E3               	movwf	(LinearTransiant@Slope+3)^(0+128)
  5837  06D0  0020               	movlb	0	; select bank0
  5838  06D1  0835               	movf	?___fldiv+2,w
  5839  06D2  0021               	movlb	1	; select bank1
  5840  06D3  00E2               	movwf	(LinearTransiant@Slope+2)^(0+128)
  5841  06D4  0020               	movlb	0	; select bank0
  5842  06D5  0834               	movf	?___fldiv+1,w
  5843  06D6  0021               	movlb	1	; select bank1
  5844  06D7  00E1               	movwf	(LinearTransiant@Slope+1)^(0+128)
  5845  06D8  0020               	movlb	0	; select bank0
  5846  06D9  0833               	movf	?___fldiv,w
  5847  06DA  0021               	movlb	1	; select bank1
  5848  06DB  00E0               	movwf	LinearTransiant@Slope^(0+128)
  5849  06DC                     l3569:
  5850  06DC  01E7               	clrf	LinearTransiant@i^(0+128)
  5851  06DD  0AE7               	incf	LinearTransiant@i^(0+128),f
  5852  06DE  2F2A               	goto	l3577
  5853  06DF                     l3571:
  5854  06DF  0867               	movf	LinearTransiant@i^(0+128),w
  5855  06E0  0020               	movlb	0	; select bank0
  5856  06E1  00DA               	movwf	??_LinearTransiant
  5857  06E2  01DB               	clrf	??_LinearTransiant+1
  5858  06E3  01DC               	clrf	??_LinearTransiant+2
  5859  06E4  01DD               	clrf	??_LinearTransiant+3
  5860  06E5  085D               	movf	??_LinearTransiant+3,w
  5861  06E6  00A8               	movwf	___xxtofl@val+3
  5862  06E7  085C               	movf	??_LinearTransiant+2,w
  5863  06E8  00A7               	movwf	___xxtofl@val+2
  5864  06E9  085B               	movf	??_LinearTransiant+1,w
  5865  06EA  00A6               	movwf	___xxtofl@val+1
  5866  06EB  085A               	movf	??_LinearTransiant,w
  5867  06EC  00A5               	movwf	___xxtofl@val
  5868  06ED  3001               	movlw	1
  5869  06EE  318F  2753  3186   	fcall	___xxtofl
  5870  06F1  0020               	movlb	0	; select bank0
  5871  06F2  0828               	movf	?___xxtofl+3,w
  5872  06F3  00BA               	movwf	___flmul@a+3
  5873  06F4  0827               	movf	?___xxtofl+2,w
  5874  06F5  00B9               	movwf	___flmul@a+2
  5875  06F6  0826               	movf	?___xxtofl+1,w
  5876  06F7  00B8               	movwf	___flmul@a+1
  5877  06F8  0825               	movf	?___xxtofl,w
  5878  06F9  00B7               	movwf	___flmul@a
  5879  06FA  0021               	movlb	1	; select bank1
  5880  06FB  0863               	movf	(LinearTransiant@Slope+3)^(0+128),w
  5881  06FC  0020               	movlb	0	; select bank0
  5882  06FD  00B6               	movwf	___flmul@b+3
  5883  06FE  0021               	movlb	1	; select bank1
  5884  06FF  0862               	movf	(LinearTransiant@Slope+2)^(0+128),w
  5885  0700  0020               	movlb	0	; select bank0
  5886  0701  00B5               	movwf	___flmul@b+2
  5887  0702  0021               	movlb	1	; select bank1
  5888  0703  0861               	movf	(LinearTransiant@Slope+1)^(0+128),w
  5889  0704  0020               	movlb	0	; select bank0
  5890  0705  00B4               	movwf	___flmul@b+1
  5891  0706  0021               	movlb	1	; select bank1
  5892  0707  0860               	movf	LinearTransiant@Slope^(0+128),w
  5893  0708  0020               	movlb	0	; select bank0
  5894  0709  00B3               	movwf	___flmul@b
  5895  070A  3180  2074  3186   	fcall	___flmul
  5896  070D  0020               	movlb	0	; select bank0
  5897  070E  0836               	movf	?___flmul+3,w
  5898  070F  00D0               	movwf	___fltol@f1+3
  5899  0710  0835               	movf	?___flmul+2,w
  5900  0711  00CF               	movwf	___fltol@f1+2
  5901  0712  0834               	movf	?___flmul+1,w
  5902  0713  00CE               	movwf	___fltol@f1+1
  5903  0714  0833               	movf	?___flmul,w
  5904  0715  00CD               	movwf	___fltol@f1
  5905  0716  318D  25B9  3186   	fcall	___fltol
  5906  0719  0020               	movlb	0	; select bank0
  5907  071A  084D               	movf	?___fltol,w
  5908  071B  0758               	addwf	LinearTransiant@OldValue,w
  5909  071C  00DE               	movwf	??_LinearTransiant+4
  5910  071D  085E               	movf	??_LinearTransiant+4,w
  5911  071E  0021               	movlb	1	; select bank1
  5912  071F  00E6               	movwf	LinearTransiant@a^(0+128)
  5913  0720                     l3573:
  5914  0720  0866               	movf	LinearTransiant@a^(0+128),w
  5915  0721  318C  2456  3186   	fcall	_enQueue
  5916  0724                     l3575:
  5917  0724  3001               	movlw	1
  5918  0725  0020               	movlb	0	; select bank0
  5919  0726  00DA               	movwf	??_LinearTransiant
  5920  0727  085A               	movf	??_LinearTransiant,w
  5921  0728  0021               	movlb	1	; select bank1
  5922  0729  07E7               	addwf	LinearTransiant@i^(0+128),f
  5923  072A                     l3577:
  5924  072A  0020               	movlb	0	; select bank0
  5925  072B  0859               	movf	LinearTransiant@Duration10ms,w
  5926  072C  0021               	movlb	1	; select bank1
  5927  072D  0267               	subwf	LinearTransiant@i^(0+128),w
  5928  072E  1C03               	skipc
  5929  072F  2F31               	goto	u4081
  5930  0730  2F32               	goto	u4080
  5931  0731                     u4081:
  5932  0731  2EDF               	goto	l3571
  5933  0732                     u4080:
  5934  0732                     l3579:
  5935  0732  0868               	movf	LinearTransiant@NewValue^(0+128),w
  5936  0733  318C  2456  3186   	fcall	_enQueue
  5937  0736  2FDF               	goto	l101
  5938  0737                     l3581:
  5939  0737  0021               	movlb	1	; select bank1
  5940  0738  0868               	movf	LinearTransiant@NewValue^(0+128),w
  5941  0739  0020               	movlb	0	; select bank0
  5942  073A  0258               	subwf	LinearTransiant@OldValue,w
  5943  073B  0021               	movlb	1	; select bank1
  5944  073C  00E4               	movwf	LinearTransiant@diff^(0+128)
  5945  073D  01E5               	clrf	(LinearTransiant@diff^(0+128)+1)
  5946  073E  1C03               	skipc
  5947  073F  03E5               	decf	(LinearTransiant@diff+1)^(0+128),f
  5948  0740                     l3583:
  5949  0740  0020               	movlb	0	; select bank0
  5950  0741  0859               	movf	LinearTransiant@Duration10ms,w
  5951  0742  00DA               	movwf	??_LinearTransiant
  5952  0743  01DB               	clrf	??_LinearTransiant+1
  5953  0744  01DC               	clrf	??_LinearTransiant+2
  5954  0745  01DD               	clrf	??_LinearTransiant+3
  5955  0746  085D               	movf	??_LinearTransiant+3,w
  5956  0747  00A8               	movwf	___xxtofl@val+3
  5957  0748  085C               	movf	??_LinearTransiant+2,w
  5958  0749  00A7               	movwf	___xxtofl@val+2
  5959  074A  085B               	movf	??_LinearTransiant+1,w
  5960  074B  00A6               	movwf	___xxtofl@val+1
  5961  074C  085A               	movf	??_LinearTransiant,w
  5962  074D  00A5               	movwf	___xxtofl@val
  5963  074E  3001               	movlw	1
  5964  074F  318F  2753  3186   	fcall	___xxtofl
  5965  0752  0020               	movlb	0	; select bank0
  5966  0753  0828               	movf	?___xxtofl+3,w
  5967  0754  00B6               	movwf	___fldiv@a+3
  5968  0755  0827               	movf	?___xxtofl+2,w
  5969  0756  00B5               	movwf	___fldiv@a+2
  5970  0757  0826               	movf	?___xxtofl+1,w
  5971  0758  00B4               	movwf	___fldiv@a+1
  5972  0759  0825               	movf	?___xxtofl,w
  5973  075A  00B3               	movwf	___fldiv@a
  5974  075B  0021               	movlb	1	; select bank1
  5975  075C  0864               	movf	LinearTransiant@diff^(0+128),w
  5976  075D  0020               	movlb	0	; select bank0
  5977  075E  00A5               	movwf	___xxtofl@val
  5978  075F  0021               	movlb	1	; select bank1
  5979  0760  0865               	movf	(LinearTransiant@diff+1)^(0+128),w
  5980  0761  0020               	movlb	0	; select bank0
  5981  0762  00A6               	movwf	___xxtofl@val+1
  5982  0763  01A7               	clrf	___xxtofl@val+2
  5983  0764  01A8               	clrf	___xxtofl@val+3
  5984  0765  3000               	movlw	0
  5985  0766  318F  2753  3186   	fcall	___xxtofl
  5986  0769  0020               	movlb	0	; select bank0
  5987  076A  0828               	movf	?___xxtofl+3,w
  5988  076B  00BA               	movwf	___fldiv@b+3
  5989  076C  0827               	movf	?___xxtofl+2,w
  5990  076D  00B9               	movwf	___fldiv@b+2
  5991  076E  0826               	movf	?___xxtofl+1,w
  5992  076F  00B8               	movwf	___fldiv@b+1
  5993  0770  0825               	movf	?___xxtofl,w
  5994  0771  00B7               	movwf	___fldiv@b
  5995  0772  3184  24CB  3186   	fcall	___fldiv
  5996  0775  0020               	movlb	0	; select bank0
  5997  0776  0836               	movf	?___fldiv+3,w
  5998  0777  0021               	movlb	1	; select bank1
  5999  0778  00E3               	movwf	(LinearTransiant@Slope+3)^(0+128)
  6000  0779  0020               	movlb	0	; select bank0
  6001  077A  0835               	movf	?___fldiv+2,w
  6002  077B  0021               	movlb	1	; select bank1
  6003  077C  00E2               	movwf	(LinearTransiant@Slope+2)^(0+128)
  6004  077D  0020               	movlb	0	; select bank0
  6005  077E  0834               	movf	?___fldiv+1,w
  6006  077F  0021               	movlb	1	; select bank1
  6007  0780  00E1               	movwf	(LinearTransiant@Slope+1)^(0+128)
  6008  0781  0020               	movlb	0	; select bank0
  6009  0782  0833               	movf	?___fldiv,w
  6010  0783  0021               	movlb	1	; select bank1
  6011  0784  00E0               	movwf	LinearTransiant@Slope^(0+128)
  6012  0785                     l3585:
  6013  0785  01E7               	clrf	LinearTransiant@i^(0+128)
  6014  0786  0AE7               	incf	LinearTransiant@i^(0+128),f
  6015  0787  2FD3               	goto	l3593
  6016  0788                     l3587:
  6017  0788  0867               	movf	LinearTransiant@i^(0+128),w
  6018  0789  0020               	movlb	0	; select bank0
  6019  078A  00DA               	movwf	??_LinearTransiant
  6020  078B  01DB               	clrf	??_LinearTransiant+1
  6021  078C  01DC               	clrf	??_LinearTransiant+2
  6022  078D  01DD               	clrf	??_LinearTransiant+3
  6023  078E  085D               	movf	??_LinearTransiant+3,w
  6024  078F  00A8               	movwf	___xxtofl@val+3
  6025  0790  085C               	movf	??_LinearTransiant+2,w
  6026  0791  00A7               	movwf	___xxtofl@val+2
  6027  0792  085B               	movf	??_LinearTransiant+1,w
  6028  0793  00A6               	movwf	___xxtofl@val+1
  6029  0794  085A               	movf	??_LinearTransiant,w
  6030  0795  00A5               	movwf	___xxtofl@val
  6031  0796  3001               	movlw	1
  6032  0797  318F  2753  3186   	fcall	___xxtofl
  6033  079A  0020               	movlb	0	; select bank0
  6034  079B  0828               	movf	?___xxtofl+3,w
  6035  079C  00BA               	movwf	___flmul@a+3
  6036  079D  0827               	movf	?___xxtofl+2,w
  6037  079E  00B9               	movwf	___flmul@a+2
  6038  079F  0826               	movf	?___xxtofl+1,w
  6039  07A0  00B8               	movwf	___flmul@a+1
  6040  07A1  0825               	movf	?___xxtofl,w
  6041  07A2  00B7               	movwf	___flmul@a
  6042  07A3  0021               	movlb	1	; select bank1
  6043  07A4  0863               	movf	(LinearTransiant@Slope+3)^(0+128),w
  6044  07A5  0020               	movlb	0	; select bank0
  6045  07A6  00B6               	movwf	___flmul@b+3
  6046  07A7  0021               	movlb	1	; select bank1
  6047  07A8  0862               	movf	(LinearTransiant@Slope+2)^(0+128),w
  6048  07A9  0020               	movlb	0	; select bank0
  6049  07AA  00B5               	movwf	___flmul@b+2
  6050  07AB  0021               	movlb	1	; select bank1
  6051  07AC  0861               	movf	(LinearTransiant@Slope+1)^(0+128),w
  6052  07AD  0020               	movlb	0	; select bank0
  6053  07AE  00B4               	movwf	___flmul@b+1
  6054  07AF  0021               	movlb	1	; select bank1
  6055  07B0  0860               	movf	LinearTransiant@Slope^(0+128),w
  6056  07B1  0020               	movlb	0	; select bank0
  6057  07B2  00B3               	movwf	___flmul@b
  6058  07B3  3180  2074  3186   	fcall	___flmul
  6059  07B6  0020               	movlb	0	; select bank0
  6060  07B7  0836               	movf	?___flmul+3,w
  6061  07B8  00D0               	movwf	___fltol@f1+3
  6062  07B9  0835               	movf	?___flmul+2,w
  6063  07BA  00CF               	movwf	___fltol@f1+2
  6064  07BB  0834               	movf	?___flmul+1,w
  6065  07BC  00CE               	movwf	___fltol@f1+1
  6066  07BD  0833               	movf	?___flmul,w
  6067  07BE  00CD               	movwf	___fltol@f1
  6068  07BF  318D  25B9  3186   	fcall	___fltol
  6069  07C2  0020               	movlb	0	; select bank0
  6070  07C3  084D               	movf	?___fltol,w
  6071  07C4  0258               	subwf	LinearTransiant@OldValue,w
  6072  07C5  00DE               	movwf	??_LinearTransiant+4
  6073  07C6  085E               	movf	??_LinearTransiant+4,w
  6074  07C7  0021               	movlb	1	; select bank1
  6075  07C8  00E6               	movwf	LinearTransiant@a^(0+128)
  6076  07C9                     l3589:
  6077  07C9  0866               	movf	LinearTransiant@a^(0+128),w
  6078  07CA  318C  2456  3186   	fcall	_enQueue
  6079  07CD                     l3591:
  6080  07CD  3001               	movlw	1
  6081  07CE  0020               	movlb	0	; select bank0
  6082  07CF  00DA               	movwf	??_LinearTransiant
  6083  07D0  085A               	movf	??_LinearTransiant,w
  6084  07D1  0021               	movlb	1	; select bank1
  6085  07D2  07E7               	addwf	LinearTransiant@i^(0+128),f
  6086  07D3                     l3593:
  6087  07D3  0020               	movlb	0	; select bank0
  6088  07D4  0859               	movf	LinearTransiant@Duration10ms,w
  6089  07D5  0021               	movlb	1	; select bank1
  6090  07D6  0267               	subwf	LinearTransiant@i^(0+128),w
  6091  07D7  1C03               	skipc
  6092  07D8  2FDA               	goto	u4091
  6093  07D9  2FDB               	goto	u4090
  6094  07DA                     u4091:
  6095  07DA  2F88               	goto	l3587
  6096  07DB                     u4090:
  6097  07DB                     l3595:
  6098  07DB  0868               	movf	LinearTransiant@NewValue^(0+128),w
  6099  07DC  318C  2456  3186   	fcall	_enQueue
  6100  07DF                     l101:
  6101  07DF  0008               	return
  6102  07E0                     __end_of_LinearTransiant:
  6103                           
  6104                           	psect	text35
  6105  0C56                     __ptext35:	
  6106 ;; *************** function _enQueue *****************
  6107 ;; Defined at:
  6108 ;;		line 82 in file "02-SRC/02-APPLICATION/Appl.c"
  6109 ;; Parameters:    Size  Location     Type
  6110 ;;  element         1    wreg     unsigned char 
  6111 ;; Auto vars:     Size  Location     Type
  6112 ;;  element         1   15[BANK0 ] unsigned char 
  6113 ;; Return value:  Size  Location     Type
  6114 ;;                  1    wreg      void 
  6115 ;; Registers used:
  6116 ;;		wreg, fsr1l, fsr1h, status,2, status,0, pclath, cstack
  6117 ;; Tracked objects:
  6118 ;;		On entry : 0/0
  6119 ;;		On exit  : 0/0
  6120 ;;		Unchanged: 0/0
  6121 ;; Data sizes:     COMMON   BANK0   BANK1   BANK2   BANK3   BANK4   BANK5   BANK6
  6122 ;;      Params:         0       0       0       0       0       0       0       0
  6123 ;;      Locals:         0       1       0       0       0       0       0       0
  6124 ;;      Temps:          0       4       0       0       0       0       0       0
  6125 ;;      Totals:         0       5       0       0       0       0       0       0
  6126 ;;Total ram usage:        5 bytes
  6127 ;; Hardware stack levels used:    1
  6128 ;; Hardware stack levels required when called:    5
  6129 ;; This function calls:
  6130 ;;		_IsFull
  6131 ;;		___lwmod
  6132 ;; This function is called by:
  6133 ;;		_LinearTransiant
  6134 ;;		_APPL_TASK_10MS
  6135 ;; This function uses a non-reentrant model
  6136 ;;
  6137                           
  6138                           
  6139                           ;psect for function _enQueue
  6140  0C56                     _enQueue:
  6141                           
  6142                           ;incstack = 0
  6143                           ; Regs used in _enQueue: [wreg+fsr1l+fsr1h+status,2+status,0+pclath+cstack]
  6144                           ;enQueue@element stored from wreg
  6145  0C56  0020               	movlb	0	; select bank0
  6146  0C57  00AF               	movwf	enQueue@element
  6147  0C58                     l3159:
  6148  0C58  318A  22FB  318C   	fcall	_IsFull
  6149  0C5B  3A00               	xorlw	0
  6150  0C5C  1D03               	skipz
  6151  0C5D  2C5F               	goto	u3191
  6152  0C5E  2C60               	goto	u3190
  6153  0C5F                     u3191:
  6154  0C5F  2CA6               	goto	l82
  6155  0C60                     u3190:
  6156  0C60                     l3161:
  6157  0C60  0021               	movlb	1	; select bank1
  6158  0C61  0A28               	incf	_MyQueue^(0+128),w
  6159  0C62  1D03               	skipz
  6160  0C63  2C6A               	goto	u3200
  6161  0C64  0A29               	incf	(_MyQueue+1)^(0+128),w
  6162  0C65  1903               	btfsc	3,2
  6163  0C66  2C68               	goto	u3201
  6164  0C67  2C6A               	goto	u3200
  6165  0C68                     u3201:
  6166  0C68  3001               	movlw	1
  6167  0C69  2C6B               	goto	u3210
  6168  0C6A                     u3200:
  6169  0C6A  3000               	movlw	0
  6170  0C6B                     u3210:
  6171  0C6B  0020               	movlb	0	; select bank0
  6172  0C6C  00AB               	movwf	??_enQueue
  6173  0C6D  01AC               	clrf	??_enQueue+1
  6174  0C6E  082B               	movf	??_enQueue,w
  6175  0C6F  0021               	movlb	1	; select bank1
  6176  0C70  07A8               	addwf	_MyQueue^(0+128),f
  6177  0C71  0020               	movlb	0	; select bank0
  6178  0C72  082C               	movf	??_enQueue+1,w
  6179  0C73  0021               	movlb	1	; select bank1
  6180  0C74  3DA9               	addwfc	(_MyQueue+1)^(0+128),f
  6181  0C75                     l3163:
  6182  0C75  082D               	movf	((_MyQueue+1)^(0+128)+4),w
  6183  0C76  0020               	movlb	0	; select bank0
  6184  0C77  00A6               	movwf	___lwmod@divisor+1
  6185  0C78  0021               	movlb	1	; select bank1
  6186  0C79  082C               	movf	(_MyQueue^(0+128)+4),w
  6187  0C7A  0020               	movlb	0	; select bank0
  6188  0C7B  00A5               	movwf	___lwmod@divisor
  6189  0C7C  0021               	movlb	1	; select bank1
  6190  0C7D  082A               	movf	(_MyQueue^(0+128)+2),w
  6191  0C7E  3E01               	addlw	1
  6192  0C7F  0020               	movlb	0	; select bank0
  6193  0C80  00A7               	movwf	___lwmod@dividend
  6194  0C81  3000               	movlw	0
  6195  0C82  0021               	movlb	1	; select bank1
  6196  0C83  3D2B               	addwfc	((_MyQueue+1)^(0+128)+2),w
  6197  0C84  0020               	movlb	0	; select bank0
  6198  0C85  00A8               	movwf	___lwmod@dividend+1
  6199  0C86  318A  2219  318C   	fcall	___lwmod
  6200  0C89  0020               	movlb	0	; select bank0
  6201  0C8A  0826               	movf	?___lwmod+1,w
  6202  0C8B  0021               	movlb	1	; select bank1
  6203  0C8C  00AB               	movwf	((_MyQueue+1)^(0+128)+2)
  6204  0C8D  0020               	movlb	0	; select bank0
  6205  0C8E  0825               	movf	?___lwmod,w
  6206  0C8F  0021               	movlb	1	; select bank1
  6207  0C90  00AA               	movwf	(_MyQueue^(0+128)+2)
  6208  0C91                     l3165:
  6209  0C91  3002               	movlw	2
  6210  0C92  3EA8               	addlw	(low (_MyQueue| 0))& (0+255)
  6211  0C93  0086               	movwf	6
  6212  0C94  0187               	clrf	7
  6213  0C95  3070               	movlw	112
  6214  0C96  0020               	movlb	0	; select bank0
  6215  0C97  00AB               	movwf	??_enQueue
  6216  0C98  3021               	movlw	33
  6217  0C99  00AC               	movwf	??_enQueue+1
  6218  0C9A  3F40               	moviw [0]fsr1
  6219  0C9B  072B               	addwf	??_enQueue,w
  6220  0C9C  00AD               	movwf	??_enQueue+2
  6221  0C9D  3F41               	moviw [1]fsr1
  6222  0C9E  3D2C               	addwfc	??_enQueue+1,w
  6223  0C9F  00AE               	movwf	??_enQueue+3
  6224  0CA0  082D               	movf	??_enQueue+2,w
  6225  0CA1  0086               	movwf	6
  6226  0CA2  082E               	movf	??_enQueue+3,w
  6227  0CA3  0087               	movwf	7
  6228  0CA4  082F               	movf	enQueue@element,w
  6229  0CA5  0081               	movwf	1
  6230  0CA6                     l82:
  6231  0CA6  0008               	return
  6232  0CA7                     __end_of_enQueue:
  6233                           
  6234                           	psect	text36
  6235  0A19                     __ptext36:	
  6236 ;; *************** function ___lwmod *****************
  6237 ;; Defined at:
  6238 ;;		line 5 in file "C:\Program Files (x86)\Microchip\xc8\pic\sources\c99\common\lwmod.c"
  6239 ;; Parameters:    Size  Location     Type
  6240 ;;  divisor         2    5[BANK0 ] unsigned int 
  6241 ;;  dividend        2    7[BANK0 ] unsigned int 
  6242 ;; Auto vars:     Size  Location     Type
  6243 ;;  counter         1   10[BANK0 ] unsigned char 
  6244 ;; Return value:  Size  Location     Type
  6245 ;;                  2    5[BANK0 ] unsigned int 
  6246 ;; Registers used:
  6247 ;;		wreg, status,2, status,0
  6248 ;; Tracked objects:
  6249 ;;		On entry : 0/0
  6250 ;;		On exit  : 0/0
  6251 ;;		Unchanged: 0/0
  6252 ;; Data sizes:     COMMON   BANK0   BANK1   BANK2   BANK3   BANK4   BANK5   BANK6
  6253 ;;      Params:         0       4       0       0       0       0       0       0
  6254 ;;      Locals:         0       1       0       0       0       0       0       0
  6255 ;;      Temps:          0       1       0       0       0       0       0       0
  6256 ;;      Totals:         0       6       0       0       0       0       0       0
  6257 ;;Total ram usage:        6 bytes
  6258 ;; Hardware stack levels used:    1
  6259 ;; Hardware stack levels required when called:    4
  6260 ;; This function calls:
  6261 ;;		Nothing
  6262 ;; This function is called by:
  6263 ;;		_enQueue
  6264 ;;		_deQueue
  6265 ;; This function uses a non-reentrant model
  6266 ;;
  6267                           
  6268                           
  6269                           ;psect for function ___lwmod
  6270  0A19                     ___lwmod:
  6271  0A19                     l3123:	
  6272                           ;incstack = 0
  6273                           ; Regs used in ___lwmod: [wreg+status,2+status,0]
  6274                           
  6275  0A19  0020               	movlb	0	; select bank0
  6276  0A1A  0825               	movf	___lwmod@divisor,w
  6277  0A1B  0426               	iorwf	___lwmod@divisor+1,w
  6278  0A1C  1903               	btfsc	3,2
  6279  0A1D  2A1F               	goto	u3101
  6280  0A1E  2A20               	goto	u3100
  6281  0A1F                     u3101:
  6282  0A1F  2A49               	goto	l3141
  6283  0A20                     u3100:
  6284  0A20                     l3125:
  6285  0A20  01AA               	clrf	___lwmod@counter
  6286  0A21  0AAA               	incf	___lwmod@counter,f
  6287  0A22  2A2C               	goto	l3131
  6288  0A23                     l3127:
  6289  0A23  3001               	movlw	1
  6290  0A24                     u3115:
  6291  0A24  35A5               	lslf	___lwmod@divisor,f
  6292  0A25  0DA6               	rlf	___lwmod@divisor+1,f
  6293  0A26  0B89               	decfsz	9,f
  6294  0A27  2A24               	goto	u3115
  6295  0A28                     l3129:
  6296  0A28  3001               	movlw	1
  6297  0A29  00A9               	movwf	??___lwmod
  6298  0A2A  0829               	movf	??___lwmod,w
  6299  0A2B  07AA               	addwf	___lwmod@counter,f
  6300  0A2C                     l3131:
  6301  0A2C  1FA6               	btfss	___lwmod@divisor+1,7
  6302  0A2D  2A2F               	goto	u3121
  6303  0A2E  2A30               	goto	u3120
  6304  0A2F                     u3121:
  6305  0A2F  2A23               	goto	l3127
  6306  0A30                     u3120:
  6307  0A30                     l3133:
  6308  0A30  0826               	movf	___lwmod@divisor+1,w
  6309  0A31  0228               	subwf	___lwmod@dividend+1,w
  6310  0A32  1D03               	skipz
  6311  0A33  2A36               	goto	u3135
  6312  0A34  0825               	movf	___lwmod@divisor,w
  6313  0A35  0227               	subwf	___lwmod@dividend,w
  6314  0A36                     u3135:
  6315  0A36  1C03               	skipc
  6316  0A37  2A39               	goto	u3131
  6317  0A38  2A3A               	goto	u3130
  6318  0A39                     u3131:
  6319  0A39  2A3E               	goto	l3137
  6320  0A3A                     u3130:
  6321  0A3A                     l3135:
  6322  0A3A  0825               	movf	___lwmod@divisor,w
  6323  0A3B  02A7               	subwf	___lwmod@dividend,f
  6324  0A3C  0826               	movf	___lwmod@divisor+1,w
  6325  0A3D  3BA8               	subwfb	___lwmod@dividend+1,f
  6326  0A3E                     l3137:
  6327  0A3E  3001               	movlw	1
  6328  0A3F                     u3145:
  6329  0A3F  36A6               	lsrf	___lwmod@divisor+1,f
  6330  0A40  0CA5               	rrf	___lwmod@divisor,f
  6331  0A41  0B89               	decfsz	9,f
  6332  0A42  2A3F               	goto	u3145
  6333  0A43                     l3139:
  6334  0A43  3001               	movlw	1
  6335  0A44  02AA               	subwf	___lwmod@counter,f
  6336  0A45  1D03               	btfss	3,2
  6337  0A46  2A48               	goto	u3151
  6338  0A47  2A49               	goto	u3150
  6339  0A48                     u3151:
  6340  0A48  2A30               	goto	l3133
  6341  0A49                     u3150:
  6342  0A49                     l3141:
  6343  0A49  0828               	movf	___lwmod@dividend+1,w
  6344  0A4A  00A6               	movwf	?___lwmod+1
  6345  0A4B  0827               	movf	___lwmod@dividend,w
  6346  0A4C  00A5               	movwf	?___lwmod
  6347  0A4D                     l827:
  6348  0A4D  0008               	return
  6349  0A4E                     __end_of___lwmod:
  6350                           
  6351                           	psect	text37
  6352  0AFB                     __ptext37:	
  6353 ;; *************** function _IsFull *****************
  6354 ;; Defined at:
  6355 ;;		line 52 in file "02-SRC/02-APPLICATION/Appl.c"
  6356 ;; Parameters:    Size  Location     Type
  6357 ;;		None
  6358 ;; Auto vars:     Size  Location     Type
  6359 ;;		None
  6360 ;; Return value:  Size  Location     Type
  6361 ;;                  1    wreg      unsigned char 
  6362 ;; Registers used:
  6363 ;;		wreg, status,2, status,0
  6364 ;; Tracked objects:
  6365 ;;		On entry : 0/0
  6366 ;;		On exit  : 0/0
  6367 ;;		Unchanged: 0/0
  6368 ;; Data sizes:     COMMON   BANK0   BANK1   BANK2   BANK3   BANK4   BANK5   BANK6
  6369 ;;      Params:         0       0       0       0       0       0       0       0
  6370 ;;      Locals:         0       1       0       0       0       0       0       0
  6371 ;;      Temps:          0       2       0       0       0       0       0       0
  6372 ;;      Totals:         0       3       0       0       0       0       0       0
  6373 ;;Total ram usage:        3 bytes
  6374 ;; Hardware stack levels used:    1
  6375 ;; Hardware stack levels required when called:    4
  6376 ;; This function calls:
  6377 ;;		Nothing
  6378 ;; This function is called by:
  6379 ;;		_enQueue
  6380 ;; This function uses a non-reentrant model
  6381 ;;
  6382                           
  6383                           
  6384                           ;psect for function _IsFull
  6385  0AFB                     _IsFull:
  6386  0AFB                     l3077:	
  6387                           ;incstack = 0
  6388                           ; Regs used in _IsFull: [wreg+status,2+status,0]
  6389                           
  6390  0AFB  0020               	movlb	0	; select bank0
  6391  0AFC  01A7               	clrf	_IsFull$130
  6392  0AFD  0AA7               	incf	_IsFull$130,f
  6393  0AFE                     l3079:
  6394  0AFE  0021               	movlb	1	; select bank1
  6395  0AFF  082A               	movf	(_MyQueue^(0+128)+2),w
  6396  0B00  3E01               	addlw	1
  6397  0B01  0020               	movlb	0	; select bank0
  6398  0B02  00A5               	movwf	??_IsFull
  6399  0B03  3000               	movlw	0
  6400  0B04  0021               	movlb	1	; select bank1
  6401  0B05  3D2B               	addwfc	((_MyQueue+1)^(0+128)+2),w
  6402  0B06  0020               	movlb	0	; select bank0
  6403  0B07  00A6               	movwf	??_IsFull+1
  6404  0B08  0021               	movlb	1	; select bank1
  6405  0B09  0829               	movf	(_MyQueue+1)^(0+128),w
  6406  0B0A  0020               	movlb	0	; select bank0
  6407  0B0B  0626               	xorwf	??_IsFull+1,w
  6408  0B0C  1D03               	skipz
  6409  0B0D  2B12               	goto	u3055
  6410  0B0E  0021               	movlb	1	; select bank1
  6411  0B0F  0828               	movf	_MyQueue^(0+128),w
  6412  0B10  0020               	movlb	0	; select bank0
  6413  0B11  0625               	xorwf	??_IsFull,w
  6414  0B12                     u3055:
  6415  0B12  1903               	skipnz
  6416  0B13  2B15               	goto	u3051
  6417  0B14  2B16               	goto	u3050
  6418  0B15                     u3051:
  6419  0B15  2B36               	goto	l3087
  6420  0B16                     u3050:
  6421  0B16                     l3081:
  6422  0B16  0021               	movlb	1	; select bank1
  6423  0B17  0828               	movf	_MyQueue^(0+128),w
  6424  0B18  0429               	iorwf	(_MyQueue+1)^(0+128),w
  6425  0B19  1D03               	btfss	3,2
  6426  0B1A  2B1C               	goto	u3061
  6427  0B1B  2B1D               	goto	u3060
  6428  0B1C                     u3061:
  6429  0B1C  2B34               	goto	l3085
  6430  0B1D                     u3060:
  6431  0B1D                     l3083:
  6432  0B1D  082C               	movf	(_MyQueue^(0+128)+4),w
  6433  0B1E  3EFF               	addlw	255
  6434  0B1F  0020               	movlb	0	; select bank0
  6435  0B20  00A5               	movwf	??_IsFull
  6436  0B21  30FF               	movlw	255
  6437  0B22  0021               	movlb	1	; select bank1
  6438  0B23  3D2D               	addwfc	((_MyQueue+1)^(0+128)+4),w
  6439  0B24  0020               	movlb	0	; select bank0
  6440  0B25  00A6               	movwf	??_IsFull+1
  6441  0B26  0021               	movlb	1	; select bank1
  6442  0B27  082B               	movf	((_MyQueue+1)^(0+128)+2),w
  6443  0B28  0020               	movlb	0	; select bank0
  6444  0B29  0626               	xorwf	??_IsFull+1,w
  6445  0B2A  1D03               	skipz
  6446  0B2B  2B30               	goto	u3075
  6447  0B2C  0021               	movlb	1	; select bank1
  6448  0B2D  082A               	movf	(_MyQueue^(0+128)+2),w
  6449  0B2E  0020               	movlb	0	; select bank0
  6450  0B2F  0625               	xorwf	??_IsFull,w
  6451  0B30                     u3075:
  6452  0B30  1903               	skipnz
  6453  0B31  2B33               	goto	u3071
  6454  0B32  2B34               	goto	u3070
  6455  0B33                     u3071:
  6456  0B33  2B36               	goto	l3087
  6457  0B34                     u3070:
  6458  0B34                     l3085:
  6459  0B34  0020               	movlb	0	; select bank0
  6460  0B35  01A7               	clrf	_IsFull$130
  6461  0B36                     l3087:
  6462  0B36  0827               	movf	_IsFull$130,w
  6463  0B37                     l67:
  6464  0B37  0008               	return
  6465  0B38                     __end_of_IsFull:
  6466                           
  6467                           	psect	text38
  6468  0F53                     __ptext38:	
  6469 ;; *************** function ___xxtofl *****************
  6470 ;; Defined at:
  6471 ;;		line 10 in file "C:\Program Files (x86)\Microchip\xc8\pic\sources\c99\common\xxtofl.c"
  6472 ;; Parameters:    Size  Location     Type
  6473 ;;  sign            1    wreg     unsigned char 
  6474 ;;  val             4    5[BANK0 ] long 
  6475 ;; Auto vars:     Size  Location     Type
  6476 ;;  sign            1   13[BANK0 ] unsigned char 
  6477 ;;  arg             4   15[BANK0 ] unsigned long 
  6478 ;;  exp             1   14[BANK0 ] unsigned char 
  6479 ;; Return value:  Size  Location     Type
  6480 ;;                  4    5[BANK0 ] unsigned char 
  6481 ;; Registers used:
  6482 ;;		wreg, status,2, status,0
  6483 ;; Tracked objects:
  6484 ;;		On entry : 0/0
  6485 ;;		On exit  : 0/0
  6486 ;;		Unchanged: 0/0
  6487 ;; Data sizes:     COMMON   BANK0   BANK1   BANK2   BANK3   BANK4   BANK5   BANK6
  6488 ;;      Params:         0       4       0       0       0       0       0       0
  6489 ;;      Locals:         0       6       0       0       0       0       0       0
  6490 ;;      Temps:          0       4       0       0       0       0       0       0
  6491 ;;      Totals:         0      14       0       0       0       0       0       0
  6492 ;;Total ram usage:       14 bytes
  6493 ;; Hardware stack levels used:    1
  6494 ;; Hardware stack levels required when called:    4
  6495 ;; This function calls:
  6496 ;;		Nothing
  6497 ;; This function is called by:
  6498 ;;		_LinearTransiant
  6499 ;; This function uses a non-reentrant model
  6500 ;;
  6501                           
  6502                           
  6503                           ;psect for function ___xxtofl
  6504  0F53                     ___xxtofl:
  6505                           
  6506                           ;incstack = 0
  6507                           ; Regs used in ___xxtofl: [wreg+status,2+status,0]
  6508                           ;___xxtofl@sign stored from wreg
  6509  0F53  0020               	movlb	0	; select bank0
  6510  0F54  00AD               	movwf	___xxtofl@sign
  6511  0F55                     l3495:
  6512  0F55  082D               	movf	___xxtofl@sign,w
  6513  0F56  1903               	btfsc	3,2
  6514  0F57  2F59               	goto	u3891
  6515  0F58  2F5A               	goto	u3890
  6516  0F59                     u3891:
  6517  0F59  2F6E               	goto	l3501
  6518  0F5A                     u3890:
  6519  0F5A                     l3497:
  6520  0F5A  1FA8               	btfss	___xxtofl@val+3,7
  6521  0F5B  2F5D               	goto	u3901
  6522  0F5C  2F5E               	goto	u3900
  6523  0F5D                     u3901:
  6524  0F5D  2F6E               	goto	l3501
  6525  0F5E                     u3900:
  6526  0F5E                     l3499:
  6527  0F5E  0925               	comf	___xxtofl@val,w
  6528  0F5F  00AF               	movwf	___xxtofl@arg
  6529  0F60  0926               	comf	___xxtofl@val+1,w
  6530  0F61  00B0               	movwf	___xxtofl@arg+1
  6531  0F62  0927               	comf	___xxtofl@val+2,w
  6532  0F63  00B1               	movwf	___xxtofl@arg+2
  6533  0F64  0928               	comf	___xxtofl@val+3,w
  6534  0F65  00B2               	movwf	___xxtofl@arg+3
  6535  0F66  0AAF               	incf	___xxtofl@arg,f
  6536  0F67  1903               	skipnz
  6537  0F68  0AB0               	incf	___xxtofl@arg+1,f
  6538  0F69  1903               	skipnz
  6539  0F6A  0AB1               	incf	___xxtofl@arg+2,f
  6540  0F6B  1903               	skipnz
  6541  0F6C  0AB2               	incf	___xxtofl@arg+3,f
  6542  0F6D  2F76               	goto	l978
  6543  0F6E                     l3501:
  6544  0F6E  0828               	movf	___xxtofl@val+3,w
  6545  0F6F  00B2               	movwf	___xxtofl@arg+3
  6546  0F70  0827               	movf	___xxtofl@val+2,w
  6547  0F71  00B1               	movwf	___xxtofl@arg+2
  6548  0F72  0826               	movf	___xxtofl@val+1,w
  6549  0F73  00B0               	movwf	___xxtofl@arg+1
  6550  0F74  0825               	movf	___xxtofl@val,w
  6551  0F75  00AF               	movwf	___xxtofl@arg
  6552  0F76                     l978:
  6553  0F76  0828               	movf	___xxtofl@val+3,w
  6554  0F77  0427               	iorwf	___xxtofl@val+2,w
  6555  0F78  0426               	iorwf	___xxtofl@val+1,w
  6556  0F79  0425               	iorwf	___xxtofl@val,w
  6557  0F7A  1D03               	skipz
  6558  0F7B  2F7D               	goto	u3911
  6559  0F7C  2F7E               	goto	u3910
  6560  0F7D                     u3911:
  6561  0F7D  2F87               	goto	l3507
  6562  0F7E                     u3910:
  6563  0F7E                     l3503:
  6564  0F7E  3000               	movlw	0
  6565  0F7F  00A8               	movwf	?___xxtofl+3
  6566  0F80  3000               	movlw	0
  6567  0F81  00A7               	movwf	?___xxtofl+2
  6568  0F82  3000               	movlw	0
  6569  0F83  00A6               	movwf	?___xxtofl+1
  6570  0F84  3000               	movlw	0
  6571  0F85  00A5               	movwf	?___xxtofl
  6572  0F86  2FFF               	goto	l980
  6573  0F87                     l3507:
  6574  0F87  3096               	movlw	150
  6575  0F88  00A9               	movwf	??___xxtofl
  6576  0F89  0829               	movf	??___xxtofl,w
  6577  0F8A  00AE               	movwf	___xxtofl@exp
  6578  0F8B  2F97               	goto	l3511
  6579  0F8C                     l3509:
  6580  0F8C  3001               	movlw	1
  6581  0F8D  00A9               	movwf	??___xxtofl
  6582  0F8E  0829               	movf	??___xxtofl,w
  6583  0F8F  07AE               	addwf	___xxtofl@exp,f
  6584  0F90  3001               	movlw	1
  6585  0F91                     u3925:
  6586  0F91  36B2               	lsrf	___xxtofl@arg+3,f
  6587  0F92  0CB1               	rrf	___xxtofl@arg+2,f
  6588  0F93  0CB0               	rrf	___xxtofl@arg+1,f
  6589  0F94  0CAF               	rrf	___xxtofl@arg,f
  6590  0F95  0B89               	decfsz	9,f
  6591  0F96  2F91               	goto	u3925
  6592  0F97                     l3511:
  6593  0F97  30FE               	movlw	254
  6594  0F98  0532               	andwf	___xxtofl@arg+3,w
  6595  0F99  1D03               	btfss	3,2
  6596  0F9A  2F9C               	goto	u3931
  6597  0F9B  2F9D               	goto	u3930
  6598  0F9C                     u3931:
  6599  0F9C  2F8C               	goto	l3509
  6600  0F9D                     u3930:
  6601  0F9D  2FB1               	goto	l984
  6602  0F9E                     l3513:
  6603  0F9E  3001               	movlw	1
  6604  0F9F  00A9               	movwf	??___xxtofl
  6605  0FA0  0829               	movf	??___xxtofl,w
  6606  0FA1  07AE               	addwf	___xxtofl@exp,f
  6607  0FA2                     l3515:
  6608  0FA2  3001               	movlw	1
  6609  0FA3  07AF               	addwf	___xxtofl@arg,f
  6610  0FA4  3000               	movlw	0
  6611  0FA5  3DB0               	addwfc	___xxtofl@arg+1,f
  6612  0FA6  3000               	movlw	0
  6613  0FA7  3DB1               	addwfc	___xxtofl@arg+2,f
  6614  0FA8  3000               	movlw	0
  6615  0FA9  3DB2               	addwfc	___xxtofl@arg+3,f
  6616  0FAA                     l3517:
  6617  0FAA  3001               	movlw	1
  6618  0FAB                     u3945:
  6619  0FAB  36B2               	lsrf	___xxtofl@arg+3,f
  6620  0FAC  0CB1               	rrf	___xxtofl@arg+2,f
  6621  0FAD  0CB0               	rrf	___xxtofl@arg+1,f
  6622  0FAE  0CAF               	rrf	___xxtofl@arg,f
  6623  0FAF  0B89               	decfsz	9,f
  6624  0FB0  2FAB               	goto	u3945
  6625  0FB1                     l984:
  6626  0FB1  30FF               	movlw	255
  6627  0FB2  0532               	andwf	___xxtofl@arg+3,w
  6628  0FB3  1D03               	btfss	3,2
  6629  0FB4  2FB6               	goto	u3951
  6630  0FB5  2FB7               	goto	u3950
  6631  0FB6                     u3951:
  6632  0FB6  2F9E               	goto	l3513
  6633  0FB7                     u3950:
  6634  0FB7  2FC1               	goto	l3521
  6635  0FB8                     l3519:
  6636  0FB8  3001               	movlw	1
  6637  0FB9  02AE               	subwf	___xxtofl@exp,f
  6638  0FBA  3001               	movlw	1
  6639  0FBB                     u3965:
  6640  0FBB  35AF               	lslf	___xxtofl@arg,f
  6641  0FBC  0DB0               	rlf	___xxtofl@arg+1,f
  6642  0FBD  0DB1               	rlf	___xxtofl@arg+2,f
  6643  0FBE  0DB2               	rlf	___xxtofl@arg+3,f
  6644  0FBF  0B89               	decfsz	9,f
  6645  0FC0  2FBB               	goto	u3965
  6646  0FC1                     l3521:
  6647  0FC1  1BB1               	btfsc	___xxtofl@arg+2,7
  6648  0FC2  2FC4               	goto	u3971
  6649  0FC3  2FC5               	goto	u3970
  6650  0FC4                     u3971:
  6651  0FC4  2FCB               	goto	l991
  6652  0FC5                     u3970:
  6653  0FC5                     l3523:
  6654  0FC5  3002               	movlw	2
  6655  0FC6  022E               	subwf	___xxtofl@exp,w
  6656  0FC7  1803               	skipnc
  6657  0FC8  2FCA               	goto	u3981
  6658  0FC9  2FCB               	goto	u3980
  6659  0FCA                     u3981:
  6660  0FCA  2FB8               	goto	l3519
  6661  0FCB                     u3980:
  6662  0FCB                     l991:
  6663  0FCB  182E               	btfsc	___xxtofl@exp,0
  6664  0FCC  2FCE               	goto	u3991
  6665  0FCD  2FCF               	goto	u3990
  6666  0FCE                     u3991:
  6667  0FCE  2FD7               	goto	l992
  6668  0FCF                     u3990:
  6669  0FCF                     l3525:
  6670  0FCF  30FF               	movlw	255
  6671  0FD0  05AF               	andwf	___xxtofl@arg,f
  6672  0FD1  30FF               	movlw	255
  6673  0FD2  05B0               	andwf	___xxtofl@arg+1,f
  6674  0FD3  307F               	movlw	127
  6675  0FD4  05B1               	andwf	___xxtofl@arg+2,f
  6676  0FD5  30FF               	movlw	255
  6677  0FD6  05B2               	andwf	___xxtofl@arg+3,f
  6678  0FD7                     l992:
  6679  0FD7  1003               	clrc
  6680  0FD8  0CAE               	rrf	___xxtofl@exp,f
  6681  0FD9                     l3527:
  6682  0FD9  082E               	movf	___xxtofl@exp,w
  6683  0FDA  00A9               	movwf	??___xxtofl
  6684  0FDB  01AA               	clrf	??___xxtofl+1
  6685  0FDC  01AB               	clrf	??___xxtofl+2
  6686  0FDD  01AC               	clrf	??___xxtofl+3
  6687  0FDE  3018               	movlw	24
  6688  0FDF                     u4005:
  6689  0FDF  35A9               	lslf	??___xxtofl,f
  6690  0FE0  0DAA               	rlf	??___xxtofl+1,f
  6691  0FE1  0DAB               	rlf	??___xxtofl+2,f
  6692  0FE2  0DAC               	rlf	??___xxtofl+3,f
  6693  0FE3                     u4000:
  6694  0FE3  0B89               	decfsz	9,f
  6695  0FE4  2FDF               	goto	u4005
  6696  0FE5  0829               	movf	??___xxtofl,w
  6697  0FE6  04AF               	iorwf	___xxtofl@arg,f
  6698  0FE7  082A               	movf	??___xxtofl+1,w
  6699  0FE8  04B0               	iorwf	___xxtofl@arg+1,f
  6700  0FE9  082B               	movf	??___xxtofl+2,w
  6701  0FEA  04B1               	iorwf	___xxtofl@arg+2,f
  6702  0FEB  082C               	movf	??___xxtofl+3,w
  6703  0FEC  04B2               	iorwf	___xxtofl@arg+3,f
  6704  0FED                     l3529:
  6705  0FED  082D               	movf	___xxtofl@sign,w
  6706  0FEE  1903               	btfsc	3,2
  6707  0FEF  2FF1               	goto	u4011
  6708  0FF0  2FF2               	goto	u4010
  6709  0FF1                     u4011:
  6710  0FF1  2FF7               	goto	l3535
  6711  0FF2                     u4010:
  6712  0FF2                     l3531:
  6713  0FF2  1FA8               	btfss	___xxtofl@val+3,7
  6714  0FF3  2FF5               	goto	u4021
  6715  0FF4  2FF6               	goto	u4020
  6716  0FF5                     u4021:
  6717  0FF5  2FF7               	goto	l3535
  6718  0FF6                     u4020:
  6719  0FF6                     l3533:
  6720  0FF6  17B2               	bsf	___xxtofl@arg+3,7
  6721  0FF7                     l3535:
  6722  0FF7  0832               	movf	___xxtofl@arg+3,w
  6723  0FF8  00A8               	movwf	?___xxtofl+3
  6724  0FF9  0831               	movf	___xxtofl@arg+2,w
  6725  0FFA  00A7               	movwf	?___xxtofl+2
  6726  0FFB  0830               	movf	___xxtofl@arg+1,w
  6727  0FFC  00A6               	movwf	?___xxtofl+1
  6728  0FFD  082F               	movf	___xxtofl@arg,w
  6729  0FFE  00A5               	movwf	?___xxtofl
  6730  0FFF                     l980:
  6731  0FFF  0008               	return
  6732  1000                     __end_of___xxtofl:
  6733                           
  6734                           	psect	text39
  6735  0DB9                     __ptext39:	
  6736 ;; *************** function ___fltol *****************
  6737 ;; Defined at:
  6738 ;;		line 43 in file "C:\Program Files (x86)\Microchip\xc8\pic\sources\c99\common\fltol.c"
  6739 ;; Parameters:    Size  Location     Type
  6740 ;;  f1              4   45[BANK0 ] unsigned char 
  6741 ;; Auto vars:     Size  Location     Type
  6742 ;;  exp1            1   55[BANK0 ] unsigned char 
  6743 ;;  sign1           1   54[BANK0 ] unsigned char 
  6744 ;; Return value:  Size  Location     Type
  6745 ;;                  4   45[BANK0 ] long 
  6746 ;; Registers used:
  6747 ;;		wreg, status,2, status,0
  6748 ;; Tracked objects:
  6749 ;;		On entry : 0/0
  6750 ;;		On exit  : 0/0
  6751 ;;		Unchanged: 0/0
  6752 ;; Data sizes:     COMMON   BANK0   BANK1   BANK2   BANK3   BANK4   BANK5   BANK6
  6753 ;;      Params:         0       4       0       0       0       0       0       0
  6754 ;;      Locals:         0       2       0       0       0       0       0       0
  6755 ;;      Temps:          0       5       0       0       0       0       0       0
  6756 ;;      Totals:         0      11       0       0       0       0       0       0
  6757 ;;Total ram usage:       11 bytes
  6758 ;; Hardware stack levels used:    1
  6759 ;; Hardware stack levels required when called:    4
  6760 ;; This function calls:
  6761 ;;		Nothing
  6762 ;; This function is called by:
  6763 ;;		_LinearTransiant
  6764 ;; This function uses a non-reentrant model
  6765 ;;
  6766                           
  6767                           
  6768                           ;psect for function ___fltol
  6769  0DB9                     ___fltol:
  6770  0DB9                     l3179:	
  6771                           ;incstack = 0
  6772                           ; Regs used in ___fltol: [wreg+status,2+status,0]
  6773                           
  6774  0DB9  1003               	clrc
  6775  0DBA  0020               	movlb	0	; select bank0
  6776  0DBB  0D4F               	rlf	___fltol@f1+2,w
  6777  0DBC  0D50               	rlf	___fltol@f1+3,w
  6778  0DBD  00D1               	movwf	??___fltol
  6779  0DBE  0851               	movf	??___fltol,w
  6780  0DBF  00D7               	movwf	___fltol@exp1
  6781  0DC0  0857               	movf	___fltol@exp1,w
  6782  0DC1  1D03               	btfss	3,2
  6783  0DC2  2DC4               	goto	u3241
  6784  0DC3  2DC5               	goto	u3240
  6785  0DC4                     u3241:
  6786  0DC4  2DCE               	goto	l3185
  6787  0DC5                     u3240:
  6788  0DC5                     l3181:
  6789  0DC5  3000               	movlw	0
  6790  0DC6  00D0               	movwf	?___fltol+3
  6791  0DC7  3000               	movlw	0
  6792  0DC8  00CF               	movwf	?___fltol+2
  6793  0DC9  3000               	movlw	0
  6794  0DCA  00CE               	movwf	?___fltol+1
  6795  0DCB  3000               	movlw	0
  6796  0DCC  00CD               	movwf	?___fltol
  6797  0DCD  2E2D               	goto	l731
  6798  0DCE                     l3185:
  6799  0DCE  084D               	movf	___fltol@f1,w
  6800  0DCF  00D1               	movwf	??___fltol
  6801  0DD0  084E               	movf	___fltol@f1+1,w
  6802  0DD1  00D2               	movwf	??___fltol+1
  6803  0DD2  084F               	movf	___fltol@f1+2,w
  6804  0DD3  00D3               	movwf	??___fltol+2
  6805  0DD4  0850               	movf	___fltol@f1+3,w
  6806  0DD5  00D4               	movwf	??___fltol+3
  6807  0DD6  301F               	movlw	31
  6808  0DD7                     u3255:
  6809  0DD7  36D4               	lsrf	??___fltol+3,f
  6810  0DD8  0CD3               	rrf	??___fltol+2,f
  6811  0DD9  0CD2               	rrf	??___fltol+1,f
  6812  0DDA  0CD1               	rrf	??___fltol,f
  6813  0DDB                     u3250:
  6814  0DDB  0B89               	decfsz	9,f
  6815  0DDC  2DD7               	goto	u3255
  6816  0DDD  0851               	movf	??___fltol,w
  6817  0DDE  00D5               	movwf	??___fltol+4
  6818  0DDF  0855               	movf	??___fltol+4,w
  6819  0DE0  00D6               	movwf	___fltol@sign1
  6820  0DE1                     l3187:
  6821  0DE1  17CF               	bsf	___fltol@f1+2,7
  6822  0DE2                     l3189:
  6823  0DE2  30FF               	movlw	255
  6824  0DE3  05CD               	andwf	___fltol@f1,f
  6825  0DE4  30FF               	movlw	255
  6826  0DE5  05CE               	andwf	___fltol@f1+1,f
  6827  0DE6  30FF               	movlw	255
  6828  0DE7  05CF               	andwf	___fltol@f1+2,f
  6829  0DE8  3000               	movlw	0
  6830  0DE9  05D0               	andwf	___fltol@f1+3,f
  6831  0DEA                     l3191:
  6832  0DEA  3096               	movlw	150
  6833  0DEB  02D7               	subwf	___fltol@exp1,f
  6834  0DEC                     l3193:
  6835  0DEC  1FD7               	btfss	___fltol@exp1,7
  6836  0DED  2DEF               	goto	u3261
  6837  0DEE  2DF0               	goto	u3260
  6838  0DEF                     u3261:
  6839  0DEF  2E08               	goto	l3203
  6840  0DF0                     u3260:
  6841  0DF0                     l3195:
  6842  0DF0  0857               	movf	___fltol@exp1,w
  6843  0DF1  3A80               	xorlw	128
  6844  0DF2  3E97               	addlw	151
  6845  0DF3  1803               	skipnc
  6846  0DF4  2DF6               	goto	u3271
  6847  0DF5  2DF7               	goto	u3270
  6848  0DF6                     u3271:
  6849  0DF6  2DF8               	goto	l3201
  6850  0DF7                     u3270:
  6851  0DF7  2DC5               	goto	l3181
  6852  0DF8                     l3201:
  6853  0DF8  3001               	movlw	1
  6854  0DF9                     u3285:
  6855  0DF9  36D0               	lsrf	___fltol@f1+3,f
  6856  0DFA  0CCF               	rrf	___fltol@f1+2,f
  6857  0DFB  0CCE               	rrf	___fltol@f1+1,f
  6858  0DFC  0CCD               	rrf	___fltol@f1,f
  6859  0DFD  0B89               	decfsz	9,f
  6860  0DFE  2DF9               	goto	u3285
  6861  0DFF  3001               	movlw	1
  6862  0E00  00D1               	movwf	??___fltol
  6863  0E01  0851               	movf	??___fltol,w
  6864  0E02  07D7               	addwf	___fltol@exp1,f
  6865  0E03  1D03               	btfss	3,2
  6866  0E04  2E06               	goto	u3291
  6867  0E05  2E07               	goto	u3290
  6868  0E06                     u3291:
  6869  0E06  2DF8               	goto	l3201
  6870  0E07                     u3290:
  6871  0E07  2E1D               	goto	l3211
  6872  0E08                     l3203:
  6873  0E08  3020               	movlw	32
  6874  0E09  0257               	subwf	___fltol@exp1,w
  6875  0E0A  1C03               	skipc
  6876  0E0B  2E0D               	goto	u3301
  6877  0E0C  2E0E               	goto	u3300
  6878  0E0D                     u3301:
  6879  0E0D  2E18               	goto	l738
  6880  0E0E                     u3300:
  6881  0E0E  2DC5               	goto	l3181
  6882  0E0F                     l3209:
  6883  0E0F  3001               	movlw	1
  6884  0E10                     u3315:
  6885  0E10  35CD               	lslf	___fltol@f1,f
  6886  0E11  0DCE               	rlf	___fltol@f1+1,f
  6887  0E12  0DCF               	rlf	___fltol@f1+2,f
  6888  0E13  0DD0               	rlf	___fltol@f1+3,f
  6889  0E14  0B89               	decfsz	9,f
  6890  0E15  2E10               	goto	u3315
  6891  0E16  3001               	movlw	1
  6892  0E17  02D7               	subwf	___fltol@exp1,f
  6893  0E18                     l738:
  6894  0E18  0857               	movf	___fltol@exp1,w
  6895  0E19  1D03               	btfss	3,2
  6896  0E1A  2E1C               	goto	u3321
  6897  0E1B  2E1D               	goto	u3320
  6898  0E1C                     u3321:
  6899  0E1C  2E0F               	goto	l3209
  6900  0E1D                     u3320:
  6901  0E1D                     l3211:
  6902  0E1D  0856               	movf	___fltol@sign1,w
  6903  0E1E  1903               	btfsc	3,2
  6904  0E1F  2E21               	goto	u3331
  6905  0E20  2E22               	goto	u3330
  6906  0E21                     u3331:
  6907  0E21  2E2D               	goto	l741
  6908  0E22                     u3330:
  6909  0E22                     l3213:
  6910  0E22  09CD               	comf	___fltol@f1,f
  6911  0E23  09CE               	comf	___fltol@f1+1,f
  6912  0E24  09CF               	comf	___fltol@f1+2,f
  6913  0E25  09D0               	comf	___fltol@f1+3,f
  6914  0E26  0ACD               	incf	___fltol@f1,f
  6915  0E27  1903               	skipnz
  6916  0E28  0ACE               	incf	___fltol@f1+1,f
  6917  0E29  1903               	skipnz
  6918  0E2A  0ACF               	incf	___fltol@f1+2,f
  6919  0E2B  1903               	skipnz
  6920  0E2C  0AD0               	incf	___fltol@f1+3,f
  6921  0E2D                     l741:
  6922  0E2D                     l731:
  6923  0E2D  0008               	return
  6924  0E2E                     __end_of___fltol:
  6925                           
  6926                           	psect	text40
  6927  0074                     __ptext40:	
  6928 ;; *************** function ___flmul *****************
  6929 ;; Defined at:
  6930 ;;		line 8 in file "C:\Program Files (x86)\Microchip\xc8\pic\sources\c99\common\sprcmul.c"
  6931 ;; Parameters:    Size  Location     Type
  6932 ;;  b               4   19[BANK0 ] long 
  6933 ;;  a               4   23[BANK0 ] long 
  6934 ;; Auto vars:     Size  Location     Type
  6935 ;;  prod            4   39[BANK0 ] struct .
  6936 ;;  grs             4   34[BANK0 ] unsigned long 
  6937 ;;  temp            2   43[BANK0 ] struct .
  6938 ;;  bexp            1   38[BANK0 ] unsigned char 
  6939 ;;  aexp            1   33[BANK0 ] unsigned char 
  6940 ;;  sign            1   32[BANK0 ] unsigned char 
  6941 ;; Return value:  Size  Location     Type
  6942 ;;                  4   19[BANK0 ] unsigned char 
  6943 ;; Registers used:
  6944 ;;		wreg, status,2, status,0, pclath, cstack
  6945 ;; Tracked objects:
  6946 ;;		On entry : 0/0
  6947 ;;		On exit  : 0/0
  6948 ;;		Unchanged: 0/0
  6949 ;; Data sizes:     COMMON   BANK0   BANK1   BANK2   BANK3   BANK4   BANK5   BANK6
  6950 ;;      Params:         0       8       0       0       0       0       0       0
  6951 ;;      Locals:         0      13       0       0       0       0       0       0
  6952 ;;      Temps:          0       5       0       0       0       0       0       0
  6953 ;;      Totals:         0      26       0       0       0       0       0       0
  6954 ;;Total ram usage:       26 bytes
  6955 ;; Hardware stack levels used:    1
  6956 ;; Hardware stack levels required when called:    5
  6957 ;; This function calls:
  6958 ;;		__Umul8_16
  6959 ;; This function is called by:
  6960 ;;		_LinearTransiant
  6961 ;; This function uses a non-reentrant model
  6962 ;;
  6963                           
  6964                           
  6965                           ;psect for function ___flmul
  6966  0074                     ___flmul:
  6967  0074                     l3355:	
  6968                           ;incstack = 0
  6969                           ; Regs used in ___flmul: [wreg+status,2+status,0+pclath+cstack]
  6970                           
  6971  0074  0020               	movlb	0	; select bank0
  6972  0075  0836               	movf	___flmul@b+3,w
  6973  0076  3980               	andlw	128
  6974  0077  00BB               	movwf	??___flmul
  6975  0078  083B               	movf	??___flmul,w
  6976  0079  00C0               	movwf	___flmul@sign
  6977  007A                     l3357:
  6978  007A  3536               	lslf	___flmul@b+3,w
  6979  007B  00BB               	movwf	??___flmul
  6980  007C  083B               	movf	??___flmul,w
  6981  007D  00C6               	movwf	___flmul@bexp
  6982  007E                     l3359:
  6983  007E  1FB5               	btfss	___flmul@b+2,7
  6984  007F  2881               	goto	u3631
  6985  0080  2882               	goto	u3630
  6986  0081                     u3631:
  6987  0081  2883               	goto	l3363
  6988  0082                     u3630:
  6989  0082                     l3361:
  6990  0082  1446               	bsf	___flmul@bexp,0
  6991  0083                     l3363:
  6992  0083  0846               	movf	___flmul@bexp,w
  6993  0084  1903               	btfsc	3,2
  6994  0085  2887               	goto	u3641
  6995  0086  2888               	goto	u3640
  6996  0087                     u3641:
  6997  0087  2897               	goto	l3371
  6998  0088                     u3640:
  6999  0088                     l3365:
  7000  0088  0A46               	incf	___flmul@bexp,w
  7001  0089  1D03               	btfss	3,2
  7002  008A  288C               	goto	u3651
  7003  008B  288D               	goto	u3650
  7004  008C                     u3651:
  7005  008C  2895               	goto	l3369
  7006  008D                     u3650:
  7007  008D                     l3367:
  7008  008D  3000               	movlw	0
  7009  008E  00B6               	movwf	___flmul@b+3
  7010  008F  3000               	movlw	0
  7011  0090  00B5               	movwf	___flmul@b+2
  7012  0091  3000               	movlw	0
  7013  0092  00B4               	movwf	___flmul@b+1
  7014  0093  3000               	movlw	0
  7015  0094  00B3               	movwf	___flmul@b
  7016  0095                     l3369:
  7017  0095  17B5               	bsf	___flmul@b+2,7
  7018  0096  289F               	goto	l3373
  7019  0097                     l3371:
  7020  0097  3000               	movlw	0
  7021  0098  00B6               	movwf	___flmul@b+3
  7022  0099  3000               	movlw	0
  7023  009A  00B5               	movwf	___flmul@b+2
  7024  009B  3000               	movlw	0
  7025  009C  00B4               	movwf	___flmul@b+1
  7026  009D  3000               	movlw	0
  7027  009E  00B3               	movwf	___flmul@b
  7028  009F                     l3373:
  7029  009F  083A               	movf	___flmul@a+3,w
  7030  00A0  3980               	andlw	128
  7031  00A1  00BB               	movwf	??___flmul
  7032  00A2  083B               	movf	??___flmul,w
  7033  00A3  06C0               	xorwf	___flmul@sign,f
  7034  00A4                     l3375:
  7035  00A4  353A               	lslf	___flmul@a+3,w
  7036  00A5  00BB               	movwf	??___flmul
  7037  00A6  083B               	movf	??___flmul,w
  7038  00A7  00C1               	movwf	___flmul@aexp
  7039  00A8                     l3377:
  7040  00A8  1FB9               	btfss	___flmul@a+2,7
  7041  00A9  28AB               	goto	u3661
  7042  00AA  28AC               	goto	u3660
  7043  00AB                     u3661:
  7044  00AB  28AD               	goto	l3381
  7045  00AC                     u3660:
  7046  00AC                     l3379:
  7047  00AC  1441               	bsf	___flmul@aexp,0
  7048  00AD                     l3381:
  7049  00AD  0841               	movf	___flmul@aexp,w
  7050  00AE  1903               	btfsc	3,2
  7051  00AF  28B1               	goto	u3671
  7052  00B0  28B2               	goto	u3670
  7053  00B1                     u3671:
  7054  00B1  28C1               	goto	l3389
  7055  00B2                     u3670:
  7056  00B2                     l3383:
  7057  00B2  0A41               	incf	___flmul@aexp,w
  7058  00B3  1D03               	btfss	3,2
  7059  00B4  28B6               	goto	u3681
  7060  00B5  28B7               	goto	u3680
  7061  00B6                     u3681:
  7062  00B6  28BF               	goto	l3387
  7063  00B7                     u3680:
  7064  00B7                     l3385:
  7065  00B7  3000               	movlw	0
  7066  00B8  00BA               	movwf	___flmul@a+3
  7067  00B9  3000               	movlw	0
  7068  00BA  00B9               	movwf	___flmul@a+2
  7069  00BB  3000               	movlw	0
  7070  00BC  00B8               	movwf	___flmul@a+1
  7071  00BD  3000               	movlw	0
  7072  00BE  00B7               	movwf	___flmul@a
  7073  00BF                     l3387:
  7074  00BF  17B9               	bsf	___flmul@a+2,7
  7075  00C0  28C9               	goto	l3391
  7076  00C1                     l3389:
  7077  00C1  3000               	movlw	0
  7078  00C2  00BA               	movwf	___flmul@a+3
  7079  00C3  3000               	movlw	0
  7080  00C4  00B9               	movwf	___flmul@a+2
  7081  00C5  3000               	movlw	0
  7082  00C6  00B8               	movwf	___flmul@a+1
  7083  00C7  3000               	movlw	0
  7084  00C8  00B7               	movwf	___flmul@a
  7085  00C9                     l3391:
  7086  00C9  0841               	movf	___flmul@aexp,w
  7087  00CA  1903               	btfsc	3,2
  7088  00CB  28CD               	goto	u3691
  7089  00CC  28CE               	goto	u3690
  7090  00CD                     u3691:
  7091  00CD  28D3               	goto	l3395
  7092  00CE                     u3690:
  7093  00CE                     l3393:
  7094  00CE  0846               	movf	___flmul@bexp,w
  7095  00CF  1D03               	btfss	3,2
  7096  00D0  28D2               	goto	u3701
  7097  00D1  28D3               	goto	u3700
  7098  00D2                     u3701:
  7099  00D2  28DC               	goto	l3399
  7100  00D3                     u3700:
  7101  00D3                     l3395:
  7102  00D3  3000               	movlw	0
  7103  00D4  00B6               	movwf	?___flmul+3
  7104  00D5  3000               	movlw	0
  7105  00D6  00B5               	movwf	?___flmul+2
  7106  00D7  3000               	movlw	0
  7107  00D8  00B4               	movwf	?___flmul+1
  7108  00D9  3000               	movlw	0
  7109  00DA  00B3               	movwf	?___flmul
  7110  00DB  2ACA               	goto	l934
  7111  00DC                     l3399:
  7112  00DC  0833               	movf	___flmul@b,w
  7113  00DD  00BB               	movwf	??___flmul
  7114  00DE  083B               	movf	??___flmul,w
  7115  00DF  00A5               	movwf	__Umul8_16@multiplicand
  7116  00E0  0839               	movf	___flmul@a+2,w
  7117  00E1  3188  208D  3180   	fcall	__Umul8_16
  7118  00E4  0020               	movlb	0	; select bank0
  7119  00E5  0826               	movf	?__Umul8_16+1,w
  7120  00E6  00CC               	movwf	___flmul@temp+1
  7121  00E7  0825               	movf	?__Umul8_16,w
  7122  00E8  00CB               	movwf	___flmul@temp
  7123  00E9                     l3401:
  7124  00E9  084B               	movf	___flmul@temp,w
  7125  00EA  00BB               	movwf	??___flmul
  7126  00EB  01BC               	clrf	??___flmul+1
  7127  00EC  01BD               	clrf	??___flmul+2
  7128  00ED  01BE               	clrf	??___flmul+3
  7129  00EE  083E               	movf	??___flmul+3,w
  7130  00EF  00C5               	movwf	___flmul@grs+3
  7131  00F0  083D               	movf	??___flmul+2,w
  7132  00F1  00C4               	movwf	___flmul@grs+2
  7133  00F2  083C               	movf	??___flmul+1,w
  7134  00F3  00C3               	movwf	___flmul@grs+1
  7135  00F4  083B               	movf	??___flmul,w
  7136  00F5  00C2               	movwf	___flmul@grs
  7137  00F6                     l3403:
  7138  00F6  084C               	movf	___flmul@temp+1,w
  7139  00F7  00BB               	movwf	??___flmul
  7140  00F8  01BC               	clrf	??___flmul+1
  7141  00F9  01BD               	clrf	??___flmul+2
  7142  00FA  01BE               	clrf	??___flmul+3
  7143  00FB  083E               	movf	??___flmul+3,w
  7144  00FC  00CA               	movwf	___flmul@prod+3
  7145  00FD  083D               	movf	??___flmul+2,w
  7146  00FE  00C9               	movwf	___flmul@prod+2
  7147  00FF  083C               	movf	??___flmul+1,w
  7148  0100  00C8               	movwf	___flmul@prod+1
  7149  0101  083B               	movf	??___flmul,w
  7150  0102  00C7               	movwf	___flmul@prod
  7151  0103  0834               	movf	___flmul@b+1,w
  7152  0104  00BB               	movwf	??___flmul
  7153  0105  083B               	movf	??___flmul,w
  7154  0106  00A5               	movwf	__Umul8_16@multiplicand
  7155  0107  0838               	movf	___flmul@a+1,w
  7156  0108  3188  208D  3180   	fcall	__Umul8_16
  7157  010B  0020               	movlb	0	; select bank0
  7158  010C  0826               	movf	?__Umul8_16+1,w
  7159  010D  00CC               	movwf	___flmul@temp+1
  7160  010E  0825               	movf	?__Umul8_16,w
  7161  010F  00CB               	movwf	___flmul@temp
  7162  0110                     l3405:
  7163  0110  084B               	movf	___flmul@temp,w
  7164  0111  00BB               	movwf	??___flmul
  7165  0112  01BC               	clrf	??___flmul+1
  7166  0113  01BD               	clrf	??___flmul+2
  7167  0114  01BE               	clrf	??___flmul+3
  7168  0115  083B               	movf	??___flmul,w
  7169  0116  07C2               	addwf	___flmul@grs,f
  7170  0117  083C               	movf	??___flmul+1,w
  7171  0118  3DC3               	addwfc	___flmul@grs+1,f
  7172  0119  083D               	movf	??___flmul+2,w
  7173  011A  3DC4               	addwfc	___flmul@grs+2,f
  7174  011B  083E               	movf	??___flmul+3,w
  7175  011C  3DC5               	addwfc	___flmul@grs+3,f
  7176  011D                     l3407:
  7177  011D  084C               	movf	___flmul@temp+1,w
  7178  011E  00BB               	movwf	??___flmul
  7179  011F  01BC               	clrf	??___flmul+1
  7180  0120  01BD               	clrf	??___flmul+2
  7181  0121  01BE               	clrf	??___flmul+3
  7182  0122  083B               	movf	??___flmul,w
  7183  0123  07C7               	addwf	___flmul@prod,f
  7184  0124  083C               	movf	??___flmul+1,w
  7185  0125  3DC8               	addwfc	___flmul@prod+1,f
  7186  0126  083D               	movf	??___flmul+2,w
  7187  0127  3DC9               	addwfc	___flmul@prod+2,f
  7188  0128  083E               	movf	??___flmul+3,w
  7189  0129  3DCA               	addwfc	___flmul@prod+3,f
  7190  012A  0835               	movf	___flmul@b+2,w
  7191  012B  00BB               	movwf	??___flmul
  7192  012C  083B               	movf	??___flmul,w
  7193  012D  00A5               	movwf	__Umul8_16@multiplicand
  7194  012E  0837               	movf	___flmul@a,w
  7195  012F  3188  208D  3180   	fcall	__Umul8_16
  7196  0132  0020               	movlb	0	; select bank0
  7197  0133  0826               	movf	?__Umul8_16+1,w
  7198  0134  00CC               	movwf	___flmul@temp+1
  7199  0135  0825               	movf	?__Umul8_16,w
  7200  0136  00CB               	movwf	___flmul@temp
  7201  0137                     l3409:
  7202  0137  084B               	movf	___flmul@temp,w
  7203  0138  00BB               	movwf	??___flmul
  7204  0139  01BC               	clrf	??___flmul+1
  7205  013A  01BD               	clrf	??___flmul+2
  7206  013B  01BE               	clrf	??___flmul+3
  7207  013C  083B               	movf	??___flmul,w
  7208  013D  07C2               	addwf	___flmul@grs,f
  7209  013E  083C               	movf	??___flmul+1,w
  7210  013F  3DC3               	addwfc	___flmul@grs+1,f
  7211  0140  083D               	movf	??___flmul+2,w
  7212  0141  3DC4               	addwfc	___flmul@grs+2,f
  7213  0142  083E               	movf	??___flmul+3,w
  7214  0143  3DC5               	addwfc	___flmul@grs+3,f
  7215  0144                     l3411:
  7216  0144  084C               	movf	___flmul@temp+1,w
  7217  0145  00BB               	movwf	??___flmul
  7218  0146  01BC               	clrf	??___flmul+1
  7219  0147  01BD               	clrf	??___flmul+2
  7220  0148  01BE               	clrf	??___flmul+3
  7221  0149  083B               	movf	??___flmul,w
  7222  014A  07C7               	addwf	___flmul@prod,f
  7223  014B  083C               	movf	??___flmul+1,w
  7224  014C  3DC8               	addwfc	___flmul@prod+1,f
  7225  014D  083D               	movf	??___flmul+2,w
  7226  014E  3DC9               	addwfc	___flmul@prod+2,f
  7227  014F  083E               	movf	??___flmul+3,w
  7228  0150  3DCA               	addwfc	___flmul@prod+3,f
  7229  0151                     l3413:
  7230  0151  3008               	movlw	8
  7231  0152                     u3715:
  7232  0152  35C2               	lslf	___flmul@grs,f
  7233  0153  0DC3               	rlf	___flmul@grs+1,f
  7234  0154  0DC4               	rlf	___flmul@grs+2,f
  7235  0155  0DC5               	rlf	___flmul@grs+3,f
  7236  0156  0B89               	decfsz	9,f
  7237  0157  2952               	goto	u3715
  7238  0158                     l3415:
  7239  0158  0834               	movf	___flmul@b+1,w
  7240  0159  00BB               	movwf	??___flmul
  7241  015A  083B               	movf	??___flmul,w
  7242  015B  00A5               	movwf	__Umul8_16@multiplicand
  7243  015C  0837               	movf	___flmul@a,w
  7244  015D  3188  208D  3180   	fcall	__Umul8_16
  7245  0160  0020               	movlb	0	; select bank0
  7246  0161  0826               	movf	?__Umul8_16+1,w
  7247  0162  00CC               	movwf	___flmul@temp+1
  7248  0163  0825               	movf	?__Umul8_16,w
  7249  0164  00CB               	movwf	___flmul@temp
  7250  0165                     l3417:
  7251  0165  084B               	movf	___flmul@temp,w
  7252  0166  07C2               	addwf	___flmul@grs,f
  7253  0167  084C               	movf	___flmul@temp+1,w
  7254  0168  3DC3               	addwfc	___flmul@grs+1,f
  7255  0169  3000               	movlw	0
  7256  016A  3DC4               	addwfc	___flmul@grs+2,f
  7257  016B  3DC5               	addwfc	___flmul@grs+3,f
  7258  016C                     l3419:
  7259  016C  0833               	movf	___flmul@b,w
  7260  016D  00BB               	movwf	??___flmul
  7261  016E  083B               	movf	??___flmul,w
  7262  016F  00A5               	movwf	__Umul8_16@multiplicand
  7263  0170  0838               	movf	___flmul@a+1,w
  7264  0171  3188  208D  3180   	fcall	__Umul8_16
  7265  0174  0020               	movlb	0	; select bank0
  7266  0175  0826               	movf	?__Umul8_16+1,w
  7267  0176  00CC               	movwf	___flmul@temp+1
  7268  0177  0825               	movf	?__Umul8_16,w
  7269  0178  00CB               	movwf	___flmul@temp
  7270  0179                     l3421:
  7271  0179  084B               	movf	___flmul@temp,w
  7272  017A  07C2               	addwf	___flmul@grs,f
  7273  017B  084C               	movf	___flmul@temp+1,w
  7274  017C  3DC3               	addwfc	___flmul@grs+1,f
  7275  017D  3000               	movlw	0
  7276  017E  3DC4               	addwfc	___flmul@grs+2,f
  7277  017F  3DC5               	addwfc	___flmul@grs+3,f
  7278  0180                     l3423:
  7279  0180  3008               	movlw	8
  7280  0181                     u3725:
  7281  0181  35C2               	lslf	___flmul@grs,f
  7282  0182  0DC3               	rlf	___flmul@grs+1,f
  7283  0183  0DC4               	rlf	___flmul@grs+2,f
  7284  0184  0DC5               	rlf	___flmul@grs+3,f
  7285  0185  0B89               	decfsz	9,f
  7286  0186  2981               	goto	u3725
  7287  0187  0833               	movf	___flmul@b,w
  7288  0188  00BB               	movwf	??___flmul
  7289  0189  083B               	movf	??___flmul,w
  7290  018A  00A5               	movwf	__Umul8_16@multiplicand
  7291  018B  0837               	movf	___flmul@a,w
  7292  018C  3188  208D  3180   	fcall	__Umul8_16
  7293  018F  0020               	movlb	0	; select bank0
  7294  0190  0826               	movf	?__Umul8_16+1,w
  7295  0191  00CC               	movwf	___flmul@temp+1
  7296  0192  0825               	movf	?__Umul8_16,w
  7297  0193  00CB               	movwf	___flmul@temp
  7298  0194                     l3425:
  7299  0194  084B               	movf	___flmul@temp,w
  7300  0195  07C2               	addwf	___flmul@grs,f
  7301  0196  084C               	movf	___flmul@temp+1,w
  7302  0197  3DC3               	addwfc	___flmul@grs+1,f
  7303  0198  3000               	movlw	0
  7304  0199  3DC4               	addwfc	___flmul@grs+2,f
  7305  019A  3DC5               	addwfc	___flmul@grs+3,f
  7306  019B                     l3427:
  7307  019B  0834               	movf	___flmul@b+1,w
  7308  019C  00BB               	movwf	??___flmul
  7309  019D  083B               	movf	??___flmul,w
  7310  019E  00A5               	movwf	__Umul8_16@multiplicand
  7311  019F  0839               	movf	___flmul@a+2,w
  7312  01A0  3188  208D  3180   	fcall	__Umul8_16
  7313  01A3  0020               	movlb	0	; select bank0
  7314  01A4  0826               	movf	?__Umul8_16+1,w
  7315  01A5  00CC               	movwf	___flmul@temp+1
  7316  01A6  0825               	movf	?__Umul8_16,w
  7317  01A7  00CB               	movwf	___flmul@temp
  7318  01A8  084B               	movf	___flmul@temp,w
  7319  01A9  07C7               	addwf	___flmul@prod,f
  7320  01AA  084C               	movf	___flmul@temp+1,w
  7321  01AB  3DC8               	addwfc	___flmul@prod+1,f
  7322  01AC  3000               	movlw	0
  7323  01AD  3DC9               	addwfc	___flmul@prod+2,f
  7324  01AE  3DCA               	addwfc	___flmul@prod+3,f
  7325  01AF                     l3429:
  7326  01AF  0835               	movf	___flmul@b+2,w
  7327  01B0  00BB               	movwf	??___flmul
  7328  01B1  083B               	movf	??___flmul,w
  7329  01B2  00A5               	movwf	__Umul8_16@multiplicand
  7330  01B3  0838               	movf	___flmul@a+1,w
  7331  01B4  3188  208D  3180   	fcall	__Umul8_16
  7332  01B7  0020               	movlb	0	; select bank0
  7333  01B8  0826               	movf	?__Umul8_16+1,w
  7334  01B9  00CC               	movwf	___flmul@temp+1
  7335  01BA  0825               	movf	?__Umul8_16,w
  7336  01BB  00CB               	movwf	___flmul@temp
  7337  01BC                     l3431:
  7338  01BC  084B               	movf	___flmul@temp,w
  7339  01BD  07C7               	addwf	___flmul@prod,f
  7340  01BE  084C               	movf	___flmul@temp+1,w
  7341  01BF  3DC8               	addwfc	___flmul@prod+1,f
  7342  01C0  3000               	movlw	0
  7343  01C1  3DC9               	addwfc	___flmul@prod+2,f
  7344  01C2  3DCA               	addwfc	___flmul@prod+3,f
  7345  01C3  0835               	movf	___flmul@b+2,w
  7346  01C4  00BB               	movwf	??___flmul
  7347  01C5  083B               	movf	??___flmul,w
  7348  01C6  00A5               	movwf	__Umul8_16@multiplicand
  7349  01C7  0839               	movf	___flmul@a+2,w
  7350  01C8  3188  208D  3180   	fcall	__Umul8_16
  7351  01CB  0020               	movlb	0	; select bank0
  7352  01CC  0826               	movf	?__Umul8_16+1,w
  7353  01CD  00CC               	movwf	___flmul@temp+1
  7354  01CE  0825               	movf	?__Umul8_16,w
  7355  01CF  00CB               	movwf	___flmul@temp
  7356  01D0                     l3433:
  7357  01D0  084B               	movf	___flmul@temp,w
  7358  01D1  00BB               	movwf	??___flmul
  7359  01D2  084C               	movf	___flmul@temp+1,w
  7360  01D3  00BC               	movwf	??___flmul+1
  7361  01D4  01BD               	clrf	??___flmul+2
  7362  01D5  01BE               	clrf	??___flmul+3
  7363  01D6  3008               	movlw	8
  7364  01D7                     u3735:
  7365  01D7  35BB               	lslf	??___flmul,f
  7366  01D8  0DBC               	rlf	??___flmul+1,f
  7367  01D9  0DBD               	rlf	??___flmul+2,f
  7368  01DA  0DBE               	rlf	??___flmul+3,f
  7369  01DB                     u3730:
  7370  01DB  0B89               	decfsz	9,f
  7371  01DC  29D7               	goto	u3735
  7372  01DD  083B               	movf	??___flmul,w
  7373  01DE  07C7               	addwf	___flmul@prod,f
  7374  01DF  083C               	movf	??___flmul+1,w
  7375  01E0  3DC8               	addwfc	___flmul@prod+1,f
  7376  01E1  083D               	movf	??___flmul+2,w
  7377  01E2  3DC9               	addwfc	___flmul@prod+2,f
  7378  01E3  083E               	movf	??___flmul+3,w
  7379  01E4  3DCA               	addwfc	___flmul@prod+3,f
  7380  01E5                     l3435:
  7381  01E5  0842               	movf	___flmul@grs,w
  7382  01E6  00BB               	movwf	??___flmul
  7383  01E7  0843               	movf	___flmul@grs+1,w
  7384  01E8  00BC               	movwf	??___flmul+1
  7385  01E9  0844               	movf	___flmul@grs+2,w
  7386  01EA  00BD               	movwf	??___flmul+2
  7387  01EB  0845               	movf	___flmul@grs+3,w
  7388  01EC  00BE               	movwf	??___flmul+3
  7389  01ED  3018               	movlw	24
  7390  01EE                     u3745:
  7391  01EE  36BE               	lsrf	??___flmul+3,f
  7392  01EF  0CBD               	rrf	??___flmul+2,f
  7393  01F0  0CBC               	rrf	??___flmul+1,f
  7394  01F1  0CBB               	rrf	??___flmul,f
  7395  01F2                     u3740:
  7396  01F2  0B89               	decfsz	9,f
  7397  01F3  29EE               	goto	u3745
  7398  01F4  083B               	movf	??___flmul,w
  7399  01F5  07C7               	addwf	___flmul@prod,f
  7400  01F6  083C               	movf	??___flmul+1,w
  7401  01F7  3DC8               	addwfc	___flmul@prod+1,f
  7402  01F8  083D               	movf	??___flmul+2,w
  7403  01F9  3DC9               	addwfc	___flmul@prod+2,f
  7404  01FA  083E               	movf	??___flmul+3,w
  7405  01FB  3DCA               	addwfc	___flmul@prod+3,f
  7406  01FC                     l3437:
  7407  01FC  3008               	movlw	8
  7408  01FD                     u3755:
  7409  01FD  35C2               	lslf	___flmul@grs,f
  7410  01FE  0DC3               	rlf	___flmul@grs+1,f
  7411  01FF  0DC4               	rlf	___flmul@grs+2,f
  7412  0200  0DC5               	rlf	___flmul@grs+3,f
  7413  0201  0B89               	decfsz	9,f
  7414  0202  29FD               	goto	u3755
  7415  0203                     l3439:
  7416  0203  0846               	movf	___flmul@bexp,w
  7417  0204  0741               	addwf	___flmul@aexp,w
  7418  0205  00BB               	movwf	??___flmul
  7419  0206  01BC               	clrf	??___flmul+1
  7420  0207  0DBC               	rlf	??___flmul+1,f
  7421  0208  083B               	movf	??___flmul,w
  7422  0209  3E82               	addlw	130
  7423  020A  00CB               	movwf	___flmul@temp
  7424  020B  30FF               	movlw	255
  7425  020C  3D3C               	addwfc	??___flmul+1,w
  7426  020D  00CC               	movwf	___flmul@temp+1
  7427  020E  2A26               	goto	l3451
  7428  020F                     l3441:
  7429  020F  3001               	movlw	1
  7430  0210                     u3765:
  7431  0210  35C7               	lslf	___flmul@prod,f
  7432  0211  0DC8               	rlf	___flmul@prod+1,f
  7433  0212  0DC9               	rlf	___flmul@prod+2,f
  7434  0213  0DCA               	rlf	___flmul@prod+3,f
  7435  0214  0B89               	decfsz	9,f
  7436  0215  2A10               	goto	u3765
  7437  0216                     l3443:
  7438  0216  1FC5               	btfss	___flmul@grs+3,7
  7439  0217  2A19               	goto	u3771
  7440  0218  2A1A               	goto	u3770
  7441  0219                     u3771:
  7442  0219  2A1B               	goto	l3447
  7443  021A                     u3770:
  7444  021A                     l3445:
  7445  021A  1447               	bsf	___flmul@prod,0
  7446  021B                     l3447:
  7447  021B  3001               	movlw	1
  7448  021C                     u3785:
  7449  021C  35C2               	lslf	___flmul@grs,f
  7450  021D  0DC3               	rlf	___flmul@grs+1,f
  7451  021E  0DC4               	rlf	___flmul@grs+2,f
  7452  021F  0DC5               	rlf	___flmul@grs+3,f
  7453  0220  0B89               	decfsz	9,f
  7454  0221  2A1C               	goto	u3785
  7455  0222                     l3449:
  7456  0222  30FF               	movlw	255
  7457  0223  07CB               	addwf	___flmul@temp,f
  7458  0224  30FF               	movlw	255
  7459  0225  3DCC               	addwfc	___flmul@temp+1,f
  7460  0226                     l3451:
  7461  0226  1FC9               	btfss	___flmul@prod+2,7
  7462  0227  2A29               	goto	u3791
  7463  0228  2A2A               	goto	u3790
  7464  0229                     u3791:
  7465  0229  2A0F               	goto	l3441
  7466  022A                     u3790:
  7467  022A                     l3453:
  7468  022A  01C1               	clrf	___flmul@aexp
  7469  022B                     l3455:
  7470  022B  1FC5               	btfss	___flmul@grs+3,7
  7471  022C  2A2E               	goto	u3801
  7472  022D  2A2F               	goto	u3800
  7473  022E                     u3801:
  7474  022E  2A4B               	goto	l3463
  7475  022F                     u3800:
  7476  022F                     l3457:
  7477  022F  30FF               	movlw	255
  7478  0230  0542               	andwf	___flmul@grs,w
  7479  0231  00BB               	movwf	??___flmul
  7480  0232  30FF               	movlw	255
  7481  0233  0543               	andwf	___flmul@grs+1,w
  7482  0234  00BC               	movwf	??___flmul+1
  7483  0235  30FF               	movlw	255
  7484  0236  0544               	andwf	___flmul@grs+2,w
  7485  0237  00BD               	movwf	??___flmul+2
  7486  0238  307F               	movlw	127
  7487  0239  0545               	andwf	___flmul@grs+3,w
  7488  023A  00BE               	movwf	??___flmul+3
  7489  023B  083E               	movf	??___flmul+3,w
  7490  023C  043D               	iorwf	??___flmul+2,w
  7491  023D  043C               	iorwf	??___flmul+1,w
  7492  023E  043B               	iorwf	??___flmul,w
  7493  023F  1903               	skipnz
  7494  0240  2A42               	goto	u3811
  7495  0241  2A43               	goto	u3810
  7496  0242                     u3811:
  7497  0242  2A46               	goto	l940
  7498  0243                     u3810:
  7499  0243                     l3459:
  7500  0243  01C1               	clrf	___flmul@aexp
  7501  0244  0AC1               	incf	___flmul@aexp,f
  7502  0245  2A4B               	goto	l3463
  7503  0246                     l940:
  7504  0246  1C47               	btfss	___flmul@prod,0
  7505  0247  2A49               	goto	u3821
  7506  0248  2A4A               	goto	u3820
  7507  0249                     u3821:
  7508  0249  2A4B               	goto	l3463
  7509  024A                     u3820:
  7510  024A  2A43               	goto	l3459
  7511  024B                     l3463:
  7512  024B  0841               	movf	___flmul@aexp,w
  7513  024C  1903               	btfsc	3,2
  7514  024D  2A4F               	goto	u3831
  7515  024E  2A50               	goto	u3830
  7516  024F                     u3831:
  7517  024F  2A78               	goto	l3473
  7518  0250                     u3830:
  7519  0250                     l3465:
  7520  0250  3001               	movlw	1
  7521  0251  07C7               	addwf	___flmul@prod,f
  7522  0252  3000               	movlw	0
  7523  0253  3DC8               	addwfc	___flmul@prod+1,f
  7524  0254  3000               	movlw	0
  7525  0255  3DC9               	addwfc	___flmul@prod+2,f
  7526  0256  3000               	movlw	0
  7527  0257  3DCA               	addwfc	___flmul@prod+3,f
  7528  0258                     l3467:
  7529  0258  1C4A               	btfss	___flmul@prod+3,0
  7530  0259  2A5B               	goto	u3841
  7531  025A  2A5C               	goto	u3840
  7532  025B                     u3841:
  7533  025B  2A78               	goto	l3473
  7534  025C                     u3840:
  7535  025C                     l3469:
  7536  025C  0847               	movf	___flmul@prod,w
  7537  025D  00BB               	movwf	??___flmul
  7538  025E  0848               	movf	___flmul@prod+1,w
  7539  025F  00BC               	movwf	??___flmul+1
  7540  0260  0849               	movf	___flmul@prod+2,w
  7541  0261  00BD               	movwf	??___flmul+2
  7542  0262  084A               	movf	___flmul@prod+3,w
  7543  0263  00BE               	movwf	??___flmul+3
  7544  0264  3001               	movlw	1
  7545  0265  00BF               	movwf	??___flmul+4
  7546  0266                     u3855:
  7547  0266  37BE               	asrf	??___flmul+3,f
  7548  0267  0CBD               	rrf	??___flmul+2,f
  7549  0268  0CBC               	rrf	??___flmul+1,f
  7550  0269  0CBB               	rrf	??___flmul,f
  7551  026A                     u3850:
  7552  026A  0BBF               	decfsz	??___flmul+4,f
  7553  026B  2A66               	goto	u3855
  7554  026C  083E               	movf	??___flmul+3,w
  7555  026D  00CA               	movwf	___flmul@prod+3
  7556  026E  083D               	movf	??___flmul+2,w
  7557  026F  00C9               	movwf	___flmul@prod+2
  7558  0270  083C               	movf	??___flmul+1,w
  7559  0271  00C8               	movwf	___flmul@prod+1
  7560  0272  083B               	movf	??___flmul,w
  7561  0273  00C7               	movwf	___flmul@prod
  7562  0274                     l3471:
  7563  0274  3001               	movlw	1
  7564  0275  07CB               	addwf	___flmul@temp,f
  7565  0276  3000               	movlw	0
  7566  0277  3DCC               	addwfc	___flmul@temp+1,f
  7567  0278                     l3473:
  7568  0278  084C               	movf	___flmul@temp+1,w
  7569  0279  3A80               	xorlw	128
  7570  027A  00BB               	movwf	??___flmul
  7571  027B  3080               	movlw	128
  7572  027C  023B               	subwf	??___flmul,w
  7573  027D  1D03               	skipz
  7574  027E  2A81               	goto	u3865
  7575  027F  30FF               	movlw	255
  7576  0280  024B               	subwf	___flmul@temp,w
  7577  0281                     u3865:
  7578  0281  1C03               	skipc
  7579  0282  2A84               	goto	u3861
  7580  0283  2A85               	goto	u3860
  7581  0284                     u3861:
  7582  0284  2A8F               	goto	l3477
  7583  0285                     u3860:
  7584  0285                     l3475:
  7585  0285  307F               	movlw	127
  7586  0286  0020               	movlb	0	; select bank0
  7587  0287  00CA               	movwf	___flmul@prod+3
  7588  0288  3080               	movlw	128
  7589  0289  00C9               	movwf	___flmul@prod+2
  7590  028A  3000               	movlw	0
  7591  028B  00C8               	movwf	___flmul@prod+1
  7592  028C  3000               	movlw	0
  7593  028D  00C7               	movwf	___flmul@prod
  7594  028E  2ABE               	goto	l946
  7595  028F                     l3477:
  7596  028F  0020               	movlb	0	; select bank0
  7597  0290  084C               	movf	___flmul@temp+1,w
  7598  0291  3A80               	xorlw	128
  7599  0292  00BB               	movwf	??___flmul
  7600  0293  3080               	movlw	128
  7601  0294  023B               	subwf	??___flmul,w
  7602  0295  1D03               	skipz
  7603  0296  2A99               	goto	u3875
  7604  0297  3001               	movlw	1
  7605  0298  024B               	subwf	___flmul@temp,w
  7606  0299                     u3875:
  7607  0299  1803               	skipnc
  7608  029A  2A9C               	goto	u3871
  7609  029B  2A9D               	goto	u3870
  7610  029C                     u3871:
  7611  029C  2AA8               	goto	l3483
  7612  029D                     u3870:
  7613  029D                     l3479:
  7614  029D  3000               	movlw	0
  7615  029E  0020               	movlb	0	; select bank0
  7616  029F  00CA               	movwf	___flmul@prod+3
  7617  02A0  3000               	movlw	0
  7618  02A1  00C9               	movwf	___flmul@prod+2
  7619  02A2  3000               	movlw	0
  7620  02A3  00C8               	movwf	___flmul@prod+1
  7621  02A4  3000               	movlw	0
  7622  02A5  00C7               	movwf	___flmul@prod
  7623  02A6                     l3481:
  7624  02A6  01C0               	clrf	___flmul@sign
  7625  02A7  2ABE               	goto	l946
  7626  02A8                     l3483:
  7627  02A8  0020               	movlb	0	; select bank0
  7628  02A9  084B               	movf	___flmul@temp,w
  7629  02AA  00BB               	movwf	??___flmul
  7630  02AB  083B               	movf	??___flmul,w
  7631  02AC  00C6               	movwf	___flmul@bexp
  7632  02AD  30FF               	movlw	255
  7633  02AE  05C7               	andwf	___flmul@prod,f
  7634  02AF  30FF               	movlw	255
  7635  02B0  05C8               	andwf	___flmul@prod+1,f
  7636  02B1  307F               	movlw	127
  7637  02B2  05C9               	andwf	___flmul@prod+2,f
  7638  02B3  3000               	movlw	0
  7639  02B4  05CA               	andwf	___flmul@prod+3,f
  7640  02B5                     l3485:
  7641  02B5  1C46               	btfss	___flmul@bexp,0
  7642  02B6  2AB8               	goto	u3881
  7643  02B7  2AB9               	goto	u3880
  7644  02B8                     u3881:
  7645  02B8  2ABA               	goto	l3489
  7646  02B9                     u3880:
  7647  02B9                     l3487:
  7648  02B9  17C9               	bsf	___flmul@prod+2,7
  7649  02BA                     l3489:
  7650  02BA  3646               	lsrf	___flmul@bexp,w
  7651  02BB  00BB               	movwf	??___flmul
  7652  02BC  083B               	movf	??___flmul,w
  7653  02BD  00CA               	movwf	___flmul@prod+3
  7654  02BE                     l946:
  7655  02BE  0840               	movf	___flmul@sign,w
  7656  02BF  00BB               	movwf	??___flmul
  7657  02C0  083B               	movf	??___flmul,w
  7658  02C1  04CA               	iorwf	___flmul@prod+3,f
  7659  02C2                     l3491:
  7660  02C2  084A               	movf	___flmul@prod+3,w
  7661  02C3  00B6               	movwf	?___flmul+3
  7662  02C4  0849               	movf	___flmul@prod+2,w
  7663  02C5  00B5               	movwf	?___flmul+2
  7664  02C6  0848               	movf	___flmul@prod+1,w
  7665  02C7  00B4               	movwf	?___flmul+1
  7666  02C8  0847               	movf	___flmul@prod,w
  7667  02C9  00B3               	movwf	?___flmul
  7668  02CA                     l934:
  7669  02CA  0008               	return
  7670  02CB                     __end_of___flmul:
  7671                           
  7672                           	psect	text41
  7673  088D                     __ptext41:	
  7674 ;; *************** function __Umul8_16 *****************
  7675 ;; Defined at:
  7676 ;;		line 4 in file "C:\Program Files (x86)\Microchip\xc8\pic\sources\c99\common\Umul8_16.c"
  7677 ;; Parameters:    Size  Location     Type
  7678 ;;  multiplier      1    wreg     unsigned char 
  7679 ;;  multiplicand    1    5[BANK0 ] unsigned char 
  7680 ;; Auto vars:     Size  Location     Type
  7681 ;;  multiplier      1   13[BANK0 ] unsigned char 
  7682 ;;  word_mpld       2   11[BANK0 ] unsigned int 
  7683 ;;  product         2    9[BANK0 ] unsigned int 
  7684 ;; Return value:  Size  Location     Type
  7685 ;;                  2    5[BANK0 ] unsigned int 
  7686 ;; Registers used:
  7687 ;;		wreg, status,2, status,0
  7688 ;; Tracked objects:
  7689 ;;		On entry : 0/0
  7690 ;;		On exit  : 0/0
  7691 ;;		Unchanged: 0/0
  7692 ;; Data sizes:     COMMON   BANK0   BANK1   BANK2   BANK3   BANK4   BANK5   BANK6
  7693 ;;      Params:         0       2       0       0       0       0       0       0
  7694 ;;      Locals:         0       5       0       0       0       0       0       0
  7695 ;;      Temps:          0       2       0       0       0       0       0       0
  7696 ;;      Totals:         0       9       0       0       0       0       0       0
  7697 ;;Total ram usage:        9 bytes
  7698 ;; Hardware stack levels used:    1
  7699 ;; Hardware stack levels required when called:    4
  7700 ;; This function calls:
  7701 ;;		Nothing
  7702 ;; This function is called by:
  7703 ;;		___flmul
  7704 ;; This function uses a non-reentrant model
  7705 ;;
  7706                           
  7707                           
  7708                           ;psect for function __Umul8_16
  7709  088D                     __Umul8_16:
  7710                           
  7711                           ;incstack = 0
  7712                           ; Regs used in __Umul8_16: [wreg+status,2+status,0]
  7713                           ;__Umul8_16@multiplier stored from wreg
  7714  088D  0020               	movlb	0	; select bank0
  7715  088E  00AD               	movwf	__Umul8_16@multiplier
  7716  088F                     l3145:
  7717  088F  01A9               	clrf	__Umul8_16@product
  7718  0890  01AA               	clrf	__Umul8_16@product+1
  7719  0891                     l3147:
  7720  0891  0825               	movf	__Umul8_16@multiplicand,w
  7721  0892  00A7               	movwf	??__Umul8_16
  7722  0893  01A8               	clrf	??__Umul8_16+1
  7723  0894  0827               	movf	??__Umul8_16,w
  7724  0895  00AB               	movwf	__Umul8_16@word_mpld
  7725  0896  0828               	movf	??__Umul8_16+1,w
  7726  0897  00AC               	movwf	__Umul8_16@word_mpld+1
  7727  0898                     l3149:
  7728  0898  1C2D               	btfss	__Umul8_16@multiplier,0
  7729  0899  289B               	goto	u3161
  7730  089A  289C               	goto	u3160
  7731  089B                     u3161:
  7732  089B  28A0               	goto	l953
  7733  089C                     u3160:
  7734  089C                     l3151:
  7735  089C  082B               	movf	__Umul8_16@word_mpld,w
  7736  089D  07A9               	addwf	__Umul8_16@product,f
  7737  089E  082C               	movf	__Umul8_16@word_mpld+1,w
  7738  089F  3DAA               	addwfc	__Umul8_16@product+1,f
  7739  08A0                     l953:
  7740  08A0  3001               	movlw	1
  7741  08A1                     u3175:
  7742  08A1  35AB               	lslf	__Umul8_16@word_mpld,f
  7743  08A2  0DAC               	rlf	__Umul8_16@word_mpld+1,f
  7744  08A3  0B89               	decfsz	9,f
  7745  08A4  28A1               	goto	u3175
  7746  08A5  1003               	clrc
  7747  08A6  0CAD               	rrf	__Umul8_16@multiplier,f
  7748  08A7                     l3153:
  7749  08A7  082D               	movf	__Umul8_16@multiplier,w
  7750  08A8  1D03               	btfss	3,2
  7751  08A9  28AB               	goto	u3181
  7752  08AA  28AC               	goto	u3180
  7753  08AB                     u3181:
  7754  08AB  2898               	goto	l3149
  7755  08AC                     u3180:
  7756  08AC                     l3155:
  7757  08AC  082A               	movf	__Umul8_16@product+1,w
  7758  08AD  00A6               	movwf	?__Umul8_16+1
  7759  08AE  0829               	movf	__Umul8_16@product,w
  7760  08AF  00A5               	movwf	?__Umul8_16
  7761  08B0                     l955:
  7762  08B0  0008               	return
  7763  08B1                     __end_of__Umul8_16:
  7764                           
  7765                           	psect	text42
  7766  04CB                     __ptext42:	
  7767 ;; *************** function ___fldiv *****************
  7768 ;; Defined at:
  7769 ;;		line 8 in file "C:\Program Files (x86)\Microchip\xc8\pic\sources\c99\common\sprcdiv.c"
  7770 ;; Parameters:    Size  Location     Type
  7771 ;;  a               4   19[BANK0 ] unsigned int 
  7772 ;;  b               4   23[BANK0 ] unsigned int 
  7773 ;; Auto vars:     Size  Location     Type
  7774 ;;  grs             4   39[BANK0 ] unsigned long 
  7775 ;;  rem             4   32[BANK0 ] unsigned long 
  7776 ;;  new_exp         2   37[BANK0 ] int 
  7777 ;;  aexp            1   44[BANK0 ] unsigned char 
  7778 ;;  bexp            1   43[BANK0 ] unsigned char 
  7779 ;;  sign            1   36[BANK0 ] unsigned char 
  7780 ;; Return value:  Size  Location     Type
  7781 ;;                  4   19[BANK0 ] unsigned char 
  7782 ;; Registers used:
  7783 ;;		wreg, status,2, status,0
  7784 ;; Tracked objects:
  7785 ;;		On entry : 0/0
  7786 ;;		On exit  : 0/0
  7787 ;;		Unchanged: 0/0
  7788 ;; Data sizes:     COMMON   BANK0   BANK1   BANK2   BANK3   BANK4   BANK5   BANK6
  7789 ;;      Params:         0       8       0       0       0       0       0       0
  7790 ;;      Locals:         0      13       0       0       0       0       0       0
  7791 ;;      Temps:          0       5       0       0       0       0       0       0
  7792 ;;      Totals:         0      26       0       0       0       0       0       0
  7793 ;;Total ram usage:       26 bytes
  7794 ;; Hardware stack levels used:    1
  7795 ;; Hardware stack levels required when called:    4
  7796 ;; This function calls:
  7797 ;;		Nothing
  7798 ;; This function is called by:
  7799 ;;		_LinearTransiant
  7800 ;; This function uses a non-reentrant model
  7801 ;;
  7802                           
  7803                           
  7804                           ;psect for function ___fldiv
  7805  04CB                     ___fldiv:
  7806  04CB                     l3215:	
  7807                           ;incstack = 0
  7808                           ; Regs used in ___fldiv: [wreg+status,2+status,0]
  7809                           
  7810  04CB  0020               	movlb	0	; select bank0
  7811  04CC  083A               	movf	___fldiv@b+3,w
  7812  04CD  3980               	andlw	128
  7813  04CE  00BB               	movwf	??___fldiv
  7814  04CF  083B               	movf	??___fldiv,w
  7815  04D0  00C4               	movwf	___fldiv@sign
  7816  04D1                     l3217:
  7817  04D1  353A               	lslf	___fldiv@b+3,w
  7818  04D2  00BB               	movwf	??___fldiv
  7819  04D3  083B               	movf	??___fldiv,w
  7820  04D4  00CB               	movwf	___fldiv@bexp
  7821  04D5                     l3219:
  7822  04D5  1FB9               	btfss	___fldiv@b+2,7
  7823  04D6  2CD8               	goto	u3341
  7824  04D7  2CD9               	goto	u3340
  7825  04D8                     u3341:
  7826  04D8  2CDA               	goto	l3223
  7827  04D9                     u3340:
  7828  04D9                     l3221:
  7829  04D9  144B               	bsf	___fldiv@bexp,0
  7830  04DA                     l3223:
  7831  04DA  084B               	movf	___fldiv@bexp,w
  7832  04DB  1903               	btfsc	3,2
  7833  04DC  2CDE               	goto	u3351
  7834  04DD  2CDF               	goto	u3350
  7835  04DE                     u3351:
  7836  04DE  2CEF               	goto	l3233
  7837  04DF                     u3350:
  7838  04DF                     l3225:
  7839  04DF  0A4B               	incf	___fldiv@bexp,w
  7840  04E0  1D03               	btfss	3,2
  7841  04E1  2CE3               	goto	u3361
  7842  04E2  2CE4               	goto	u3360
  7843  04E3                     u3361:
  7844  04E3  2CEC               	goto	l3229
  7845  04E4                     u3360:
  7846  04E4                     l3227:
  7847  04E4  3000               	movlw	0
  7848  04E5  00BA               	movwf	___fldiv@b+3
  7849  04E6  3000               	movlw	0
  7850  04E7  00B9               	movwf	___fldiv@b+2
  7851  04E8  3000               	movlw	0
  7852  04E9  00B8               	movwf	___fldiv@b+1
  7853  04EA  3000               	movlw	0
  7854  04EB  00B7               	movwf	___fldiv@b
  7855  04EC                     l3229:
  7856  04EC  17B9               	bsf	___fldiv@b+2,7
  7857  04ED                     l3231:
  7858  04ED  01BA               	clrf	___fldiv@b+3
  7859  04EE  2CF7               	goto	l3235
  7860  04EF                     l3233:
  7861  04EF  3000               	movlw	0
  7862  04F0  00BA               	movwf	___fldiv@b+3
  7863  04F1  3000               	movlw	0
  7864  04F2  00B9               	movwf	___fldiv@b+2
  7865  04F3  3000               	movlw	0
  7866  04F4  00B8               	movwf	___fldiv@b+1
  7867  04F5  3000               	movlw	0
  7868  04F6  00B7               	movwf	___fldiv@b
  7869  04F7                     l3235:
  7870  04F7  0836               	movf	___fldiv@a+3,w
  7871  04F8  3980               	andlw	128
  7872  04F9  00BB               	movwf	??___fldiv
  7873  04FA  083B               	movf	??___fldiv,w
  7874  04FB  06C4               	xorwf	___fldiv@sign,f
  7875  04FC                     l3237:
  7876  04FC  3536               	lslf	___fldiv@a+3,w
  7877  04FD  00BB               	movwf	??___fldiv
  7878  04FE  083B               	movf	??___fldiv,w
  7879  04FF  00CC               	movwf	___fldiv@aexp
  7880  0500                     l3239:
  7881  0500  1FB5               	btfss	___fldiv@a+2,7
  7882  0501  2D03               	goto	u3371
  7883  0502  2D04               	goto	u3370
  7884  0503                     u3371:
  7885  0503  2D05               	goto	l3243
  7886  0504                     u3370:
  7887  0504                     l3241:
  7888  0504  144C               	bsf	___fldiv@aexp,0
  7889  0505                     l3243:
  7890  0505  084C               	movf	___fldiv@aexp,w
  7891  0506  1903               	btfsc	3,2
  7892  0507  2D09               	goto	u3381
  7893  0508  2D0A               	goto	u3380
  7894  0509                     u3381:
  7895  0509  2D1A               	goto	l3253
  7896  050A                     u3380:
  7897  050A                     l3245:
  7898  050A  0A4C               	incf	___fldiv@aexp,w
  7899  050B  1D03               	btfss	3,2
  7900  050C  2D0E               	goto	u3391
  7901  050D  2D0F               	goto	u3390
  7902  050E                     u3391:
  7903  050E  2D17               	goto	l3249
  7904  050F                     u3390:
  7905  050F                     l3247:
  7906  050F  3000               	movlw	0
  7907  0510  00B6               	movwf	___fldiv@a+3
  7908  0511  3000               	movlw	0
  7909  0512  00B5               	movwf	___fldiv@a+2
  7910  0513  3000               	movlw	0
  7911  0514  00B4               	movwf	___fldiv@a+1
  7912  0515  3000               	movlw	0
  7913  0516  00B3               	movwf	___fldiv@a
  7914  0517                     l3249:
  7915  0517  17B5               	bsf	___fldiv@a+2,7
  7916  0518                     l3251:
  7917  0518  01B6               	clrf	___fldiv@a+3
  7918  0519  2D22               	goto	l894
  7919  051A                     l3253:
  7920  051A  3000               	movlw	0
  7921  051B  00B6               	movwf	___fldiv@a+3
  7922  051C  3000               	movlw	0
  7923  051D  00B5               	movwf	___fldiv@a+2
  7924  051E  3000               	movlw	0
  7925  051F  00B4               	movwf	___fldiv@a+1
  7926  0520  3000               	movlw	0
  7927  0521  00B3               	movwf	___fldiv@a
  7928  0522                     l894:
  7929  0522  0836               	movf	___fldiv@a+3,w
  7930  0523  0435               	iorwf	___fldiv@a+2,w
  7931  0524  0434               	iorwf	___fldiv@a+1,w
  7932  0525  0433               	iorwf	___fldiv@a,w
  7933  0526  1D03               	skipz
  7934  0527  2D29               	goto	u3401
  7935  0528  2D2A               	goto	u3400
  7936  0529                     u3401:
  7937  0529  2D43               	goto	l3263
  7938  052A                     u3400:
  7939  052A                     l3255:
  7940  052A  3000               	movlw	0
  7941  052B  00BA               	movwf	___fldiv@b+3
  7942  052C  3000               	movlw	0
  7943  052D  00B9               	movwf	___fldiv@b+2
  7944  052E  3000               	movlw	0
  7945  052F  00B8               	movwf	___fldiv@b+1
  7946  0530  3000               	movlw	0
  7947  0531  00B7               	movwf	___fldiv@b
  7948  0532  3080               	movlw	128
  7949  0533  04B9               	iorwf	___fldiv@b+2,f
  7950  0534  307F               	movlw	127
  7951  0535  04BA               	iorwf	___fldiv@b+3,f
  7952  0536                     l3257:
  7953  0536  0844               	movf	___fldiv@sign,w
  7954  0537  00BB               	movwf	??___fldiv
  7955  0538  083B               	movf	??___fldiv,w
  7956  0539  04BA               	iorwf	___fldiv@b+3,f
  7957  053A                     l3259:
  7958  053A  083A               	movf	___fldiv@b+3,w
  7959  053B  00B6               	movwf	?___fldiv+3
  7960  053C  0839               	movf	___fldiv@b+2,w
  7961  053D  00B5               	movwf	?___fldiv+2
  7962  053E  0838               	movf	___fldiv@b+1,w
  7963  053F  00B4               	movwf	?___fldiv+1
  7964  0540  0837               	movf	___fldiv@b,w
  7965  0541  00B3               	movwf	?___fldiv
  7966  0542  2E7E               	goto	l896
  7967  0543                     l3263:
  7968  0543  084B               	movf	___fldiv@bexp,w
  7969  0544  1D03               	btfss	3,2
  7970  0545  2D47               	goto	u3411
  7971  0546  2D48               	goto	u3410
  7972  0547                     u3411:
  7973  0547  2D51               	goto	l3269
  7974  0548                     u3410:
  7975  0548                     l3265:
  7976  0548  3000               	movlw	0
  7977  0549  00B6               	movwf	?___fldiv+3
  7978  054A  3000               	movlw	0
  7979  054B  00B5               	movwf	?___fldiv+2
  7980  054C  3000               	movlw	0
  7981  054D  00B4               	movwf	?___fldiv+1
  7982  054E  3000               	movlw	0
  7983  054F  00B3               	movwf	?___fldiv
  7984  0550  2E7E               	goto	l896
  7985  0551                     l3269:
  7986  0551  084B               	movf	___fldiv@bexp,w
  7987  0552  00BB               	movwf	??___fldiv
  7988  0553  01BC               	clrf	??___fldiv+1
  7989  0554  083C               	movf	??___fldiv+1,w
  7990  0555  00BE               	movwf	??___fldiv+3
  7991  0556  084C               	movf	___fldiv@aexp,w
  7992  0557  023B               	subwf	??___fldiv,w
  7993  0558  00BD               	movwf	??___fldiv+2
  7994  0559  1C03               	skipc
  7995  055A  03BE               	decf	??___fldiv+3,f
  7996  055B  083D               	movf	??___fldiv+2,w
  7997  055C  3E7F               	addlw	127
  7998  055D  00C5               	movwf	___fldiv@new_exp
  7999  055E  3000               	movlw	0
  8000  055F  3D3E               	addwfc	??___fldiv+3,w
  8001  0560  00C6               	movwf	___fldiv@new_exp+1
  8002  0561                     l3271:
  8003  0561  083A               	movf	___fldiv@b+3,w
  8004  0562  00C3               	movwf	___fldiv@rem+3
  8005  0563  0839               	movf	___fldiv@b+2,w
  8006  0564  00C2               	movwf	___fldiv@rem+2
  8007  0565  0838               	movf	___fldiv@b+1,w
  8008  0566  00C1               	movwf	___fldiv@rem+1
  8009  0567  0837               	movf	___fldiv@b,w
  8010  0568  00C0               	movwf	___fldiv@rem
  8011  0569                     l3273:
  8012  0569  3000               	movlw	0
  8013  056A  00BA               	movwf	___fldiv@b+3
  8014  056B  3000               	movlw	0
  8015  056C  00B9               	movwf	___fldiv@b+2
  8016  056D  3000               	movlw	0
  8017  056E  00B8               	movwf	___fldiv@b+1
  8018  056F  3000               	movlw	0
  8019  0570  00B7               	movwf	___fldiv@b
  8020  0571                     l3275:
  8021  0571  3000               	movlw	0
  8022  0572  00CA               	movwf	___fldiv@grs+3
  8023  0573  3000               	movlw	0
  8024  0574  00C9               	movwf	___fldiv@grs+2
  8025  0575  3000               	movlw	0
  8026  0576  00C8               	movwf	___fldiv@grs+1
  8027  0577  3000               	movlw	0
  8028  0578  00C7               	movwf	___fldiv@grs
  8029  0579                     l3277:
  8030  0579  01CC               	clrf	___fldiv@aexp
  8031  057A  2DB9               	goto	l3297
  8032  057B                     l3279:
  8033  057B  084C               	movf	___fldiv@aexp,w
  8034  057C  1903               	btfsc	3,2
  8035  057D  2D7F               	goto	u3421
  8036  057E  2D80               	goto	u3420
  8037  057F                     u3421:
  8038  057F  2D9A               	goto	l3289
  8039  0580                     u3420:
  8040  0580                     l3281:
  8041  0580  3001               	movlw	1
  8042  0581                     u3435:
  8043  0581  35C0               	lslf	___fldiv@rem,f
  8044  0582  0DC1               	rlf	___fldiv@rem+1,f
  8045  0583  0DC2               	rlf	___fldiv@rem+2,f
  8046  0584  0DC3               	rlf	___fldiv@rem+3,f
  8047  0585  0B89               	decfsz	9,f
  8048  0586  2D81               	goto	u3435
  8049  0587  3001               	movlw	1
  8050  0588                     u3445:
  8051  0588  35B7               	lslf	___fldiv@b,f
  8052  0589  0DB8               	rlf	___fldiv@b+1,f
  8053  058A  0DB9               	rlf	___fldiv@b+2,f
  8054  058B  0DBA               	rlf	___fldiv@b+3,f
  8055  058C  0B89               	decfsz	9,f
  8056  058D  2D88               	goto	u3445
  8057  058E                     l3283:
  8058  058E  1FCA               	btfss	___fldiv@grs+3,7
  8059  058F  2D91               	goto	u3451
  8060  0590  2D92               	goto	u3450
  8061  0591                     u3451:
  8062  0591  2D93               	goto	l3287
  8063  0592                     u3450:
  8064  0592                     l3285:
  8065  0592  1437               	bsf	___fldiv@b,0
  8066  0593                     l3287:
  8067  0593  3001               	movlw	1
  8068  0594                     u3465:
  8069  0594  35C7               	lslf	___fldiv@grs,f
  8070  0595  0DC8               	rlf	___fldiv@grs+1,f
  8071  0596  0DC9               	rlf	___fldiv@grs+2,f
  8072  0597  0DCA               	rlf	___fldiv@grs+3,f
  8073  0598  0B89               	decfsz	9,f
  8074  0599  2D94               	goto	u3465
  8075  059A                     l3289:
  8076  059A  0836               	movf	___fldiv@a+3,w
  8077  059B  0243               	subwf	___fldiv@rem+3,w
  8078  059C  1D03               	skipz
  8079  059D  2DA8               	goto	u3475
  8080  059E  0835               	movf	___fldiv@a+2,w
  8081  059F  0242               	subwf	___fldiv@rem+2,w
  8082  05A0  1D03               	skipz
  8083  05A1  2DA8               	goto	u3475
  8084  05A2  0834               	movf	___fldiv@a+1,w
  8085  05A3  0241               	subwf	___fldiv@rem+1,w
  8086  05A4  1D03               	skipz
  8087  05A5  2DA8               	goto	u3475
  8088  05A6  0833               	movf	___fldiv@a,w
  8089  05A7  0240               	subwf	___fldiv@rem,w
  8090  05A8                     u3475:
  8091  05A8  1C03               	skipc
  8092  05A9  2DAB               	goto	u3471
  8093  05AA  2DAC               	goto	u3470
  8094  05AB                     u3471:
  8095  05AB  2DB5               	goto	l3295
  8096  05AC                     u3470:
  8097  05AC                     l3291:
  8098  05AC  174A               	bsf	___fldiv@grs+3,6
  8099  05AD                     l3293:
  8100  05AD  0833               	movf	___fldiv@a,w
  8101  05AE  02C0               	subwf	___fldiv@rem,f
  8102  05AF  0834               	movf	___fldiv@a+1,w
  8103  05B0  3BC1               	subwfb	___fldiv@rem+1,f
  8104  05B1  0835               	movf	___fldiv@a+2,w
  8105  05B2  3BC2               	subwfb	___fldiv@rem+2,f
  8106  05B3  0836               	movf	___fldiv@a+3,w
  8107  05B4  3BC3               	subwfb	___fldiv@rem+3,f
  8108  05B5                     l3295:
  8109  05B5  3001               	movlw	1
  8110  05B6  00BB               	movwf	??___fldiv
  8111  05B7  083B               	movf	??___fldiv,w
  8112  05B8  07CC               	addwf	___fldiv@aexp,f
  8113  05B9                     l3297:
  8114  05B9  301A               	movlw	26
  8115  05BA  024C               	subwf	___fldiv@aexp,w
  8116  05BB  1C03               	skipc
  8117  05BC  2DBE               	goto	u3481
  8118  05BD  2DBF               	goto	u3480
  8119  05BE                     u3481:
  8120  05BE  2D7B               	goto	l3279
  8121  05BF                     u3480:
  8122  05BF                     l3299:
  8123  05BF  0843               	movf	___fldiv@rem+3,w
  8124  05C0  0442               	iorwf	___fldiv@rem+2,w
  8125  05C1  0441               	iorwf	___fldiv@rem+1,w
  8126  05C2  0440               	iorwf	___fldiv@rem,w
  8127  05C3  1903               	skipnz
  8128  05C4  2DC6               	goto	u3491
  8129  05C5  2DC7               	goto	u3490
  8130  05C6                     u3491:
  8131  05C6  2DE0               	goto	l3313
  8132  05C7                     u3490:
  8133  05C7                     l3301:
  8134  05C7  1447               	bsf	___fldiv@grs,0
  8135  05C8  2DE0               	goto	l3313
  8136  05C9                     l3303:
  8137  05C9  3001               	movlw	1
  8138  05CA                     u3505:
  8139  05CA  35B7               	lslf	___fldiv@b,f
  8140  05CB  0DB8               	rlf	___fldiv@b+1,f
  8141  05CC  0DB9               	rlf	___fldiv@b+2,f
  8142  05CD  0DBA               	rlf	___fldiv@b+3,f
  8143  05CE  0B89               	decfsz	9,f
  8144  05CF  2DCA               	goto	u3505
  8145  05D0                     l3305:
  8146  05D0  1FCA               	btfss	___fldiv@grs+3,7
  8147  05D1  2DD3               	goto	u3511
  8148  05D2  2DD4               	goto	u3510
  8149  05D3                     u3511:
  8150  05D3  2DD5               	goto	l3309
  8151  05D4                     u3510:
  8152  05D4                     l3307:
  8153  05D4  1437               	bsf	___fldiv@b,0
  8154  05D5                     l3309:
  8155  05D5  3001               	movlw	1
  8156  05D6                     u3525:
  8157  05D6  35C7               	lslf	___fldiv@grs,f
  8158  05D7  0DC8               	rlf	___fldiv@grs+1,f
  8159  05D8  0DC9               	rlf	___fldiv@grs+2,f
  8160  05D9  0DCA               	rlf	___fldiv@grs+3,f
  8161  05DA  0B89               	decfsz	9,f
  8162  05DB  2DD6               	goto	u3525
  8163  05DC                     l3311:
  8164  05DC  30FF               	movlw	255
  8165  05DD  07C5               	addwf	___fldiv@new_exp,f
  8166  05DE  30FF               	movlw	255
  8167  05DF  3DC6               	addwfc	___fldiv@new_exp+1,f
  8168  05E0                     l3313:
  8169  05E0  1FB9               	btfss	___fldiv@b+2,7
  8170  05E1  2DE3               	goto	u3531
  8171  05E2  2DE4               	goto	u3530
  8172  05E3                     u3531:
  8173  05E3  2DC9               	goto	l3303
  8174  05E4                     u3530:
  8175  05E4                     l3315:
  8176  05E4  01CC               	clrf	___fldiv@aexp
  8177  05E5                     l3317:
  8178  05E5  1FCA               	btfss	___fldiv@grs+3,7
  8179  05E6  2DE8               	goto	u3541
  8180  05E7  2DE9               	goto	u3540
  8181  05E8                     u3541:
  8182  05E8  2E05               	goto	l3325
  8183  05E9                     u3540:
  8184  05E9                     l3319:
  8185  05E9  30FF               	movlw	255
  8186  05EA  0547               	andwf	___fldiv@grs,w
  8187  05EB  00BB               	movwf	??___fldiv
  8188  05EC  30FF               	movlw	255
  8189  05ED  0548               	andwf	___fldiv@grs+1,w
  8190  05EE  00BC               	movwf	??___fldiv+1
  8191  05EF  30FF               	movlw	255
  8192  05F0  0549               	andwf	___fldiv@grs+2,w
  8193  05F1  00BD               	movwf	??___fldiv+2
  8194  05F2  307F               	movlw	127
  8195  05F3  054A               	andwf	___fldiv@grs+3,w
  8196  05F4  00BE               	movwf	??___fldiv+3
  8197  05F5  083E               	movf	??___fldiv+3,w
  8198  05F6  043D               	iorwf	??___fldiv+2,w
  8199  05F7  043C               	iorwf	??___fldiv+1,w
  8200  05F8  043B               	iorwf	??___fldiv,w
  8201  05F9  1903               	skipnz
  8202  05FA  2DFC               	goto	u3551
  8203  05FB  2DFD               	goto	u3550
  8204  05FC                     u3551:
  8205  05FC  2E00               	goto	l910
  8206  05FD                     u3550:
  8207  05FD                     l3321:
  8208  05FD  01CC               	clrf	___fldiv@aexp
  8209  05FE  0ACC               	incf	___fldiv@aexp,f
  8210  05FF  2E05               	goto	l3325
  8211  0600                     l910:
  8212  0600  1C37               	btfss	___fldiv@b,0
  8213  0601  2E03               	goto	u3561
  8214  0602  2E04               	goto	u3560
  8215  0603                     u3561:
  8216  0603  2E05               	goto	l3325
  8217  0604                     u3560:
  8218  0604  2DFD               	goto	l3321
  8219  0605                     l3325:
  8220  0605  084C               	movf	___fldiv@aexp,w
  8221  0606  1903               	btfsc	3,2
  8222  0607  2E09               	goto	u3571
  8223  0608  2E0A               	goto	u3570
  8224  0609                     u3571:
  8225  0609  2E32               	goto	l3335
  8226  060A                     u3570:
  8227  060A                     l3327:
  8228  060A  3001               	movlw	1
  8229  060B  07B7               	addwf	___fldiv@b,f
  8230  060C  3000               	movlw	0
  8231  060D  3DB8               	addwfc	___fldiv@b+1,f
  8232  060E  3000               	movlw	0
  8233  060F  3DB9               	addwfc	___fldiv@b+2,f
  8234  0610  3000               	movlw	0
  8235  0611  3DBA               	addwfc	___fldiv@b+3,f
  8236  0612                     l3329:
  8237  0612  1C3A               	btfss	___fldiv@b+3,0
  8238  0613  2E15               	goto	u3581
  8239  0614  2E16               	goto	u3580
  8240  0615                     u3581:
  8241  0615  2E32               	goto	l3335
  8242  0616                     u3580:
  8243  0616                     l3331:
  8244  0616  0837               	movf	___fldiv@b,w
  8245  0617  00BB               	movwf	??___fldiv
  8246  0618  0838               	movf	___fldiv@b+1,w
  8247  0619  00BC               	movwf	??___fldiv+1
  8248  061A  0839               	movf	___fldiv@b+2,w
  8249  061B  00BD               	movwf	??___fldiv+2
  8250  061C  083A               	movf	___fldiv@b+3,w
  8251  061D  00BE               	movwf	??___fldiv+3
  8252  061E  3001               	movlw	1
  8253  061F  00BF               	movwf	??___fldiv+4
  8254  0620                     u3595:
  8255  0620  37BE               	asrf	??___fldiv+3,f
  8256  0621  0CBD               	rrf	??___fldiv+2,f
  8257  0622  0CBC               	rrf	??___fldiv+1,f
  8258  0623  0CBB               	rrf	??___fldiv,f
  8259  0624                     u3590:
  8260  0624  0BBF               	decfsz	??___fldiv+4,f
  8261  0625  2E20               	goto	u3595
  8262  0626  083E               	movf	??___fldiv+3,w
  8263  0627  00BA               	movwf	___fldiv@b+3
  8264  0628  083D               	movf	??___fldiv+2,w
  8265  0629  00B9               	movwf	___fldiv@b+2
  8266  062A  083C               	movf	??___fldiv+1,w
  8267  062B  00B8               	movwf	___fldiv@b+1
  8268  062C  083B               	movf	??___fldiv,w
  8269  062D  00B7               	movwf	___fldiv@b
  8270  062E                     l3333:
  8271  062E  3001               	movlw	1
  8272  062F  07C5               	addwf	___fldiv@new_exp,f
  8273  0630  3000               	movlw	0
  8274  0631  3DC6               	addwfc	___fldiv@new_exp+1,f
  8275  0632                     l3335:
  8276  0632  0846               	movf	___fldiv@new_exp+1,w
  8277  0633  3A80               	xorlw	128
  8278  0634  00BB               	movwf	??___fldiv
  8279  0635  3080               	movlw	128
  8280  0636  023B               	subwf	??___fldiv,w
  8281  0637  1D03               	skipz
  8282  0638  2E3B               	goto	u3605
  8283  0639  30FF               	movlw	255
  8284  063A  0245               	subwf	___fldiv@new_exp,w
  8285  063B                     u3605:
  8286  063B  1C03               	skipc
  8287  063C  2E3E               	goto	u3601
  8288  063D  2E3F               	goto	u3600
  8289  063E                     u3601:
  8290  063E  2E4C               	goto	l915
  8291  063F                     u3600:
  8292  063F                     l3337:
  8293  063F  30FF               	movlw	255
  8294  0640  0020               	movlb	0	; select bank0
  8295  0641  00C5               	movwf	___fldiv@new_exp
  8296  0642  3000               	movlw	0
  8297  0643  00C6               	movwf	___fldiv@new_exp+1
  8298  0644  3000               	movlw	0
  8299  0645  00BA               	movwf	___fldiv@b+3
  8300  0646  3000               	movlw	0
  8301  0647  00B9               	movwf	___fldiv@b+2
  8302  0648  3000               	movlw	0
  8303  0649  00B8               	movwf	___fldiv@b+1
  8304  064A  3000               	movlw	0
  8305  064B  00B7               	movwf	___fldiv@b
  8306  064C                     l915:
  8307  064C  0020               	movlb	0	; select bank0
  8308  064D  0846               	movf	___fldiv@new_exp+1,w
  8309  064E  3A80               	xorlw	128
  8310  064F  00BB               	movwf	??___fldiv
  8311  0650  3080               	movlw	128
  8312  0651  023B               	subwf	??___fldiv,w
  8313  0652  1D03               	skipz
  8314  0653  2E56               	goto	u3615
  8315  0654  3001               	movlw	1
  8316  0655  0245               	subwf	___fldiv@new_exp,w
  8317  0656                     u3615:
  8318  0656  1803               	skipnc
  8319  0657  2E59               	goto	u3611
  8320  0658  2E5A               	goto	u3610
  8321  0659                     u3611:
  8322  0659  2E66               	goto	l916
  8323  065A                     u3610:
  8324  065A                     l3339:
  8325  065A  0020               	movlb	0	; select bank0
  8326  065B  01C5               	clrf	___fldiv@new_exp
  8327  065C  01C6               	clrf	___fldiv@new_exp+1
  8328  065D                     l3341:
  8329  065D  3000               	movlw	0
  8330  065E  00BA               	movwf	___fldiv@b+3
  8331  065F  3000               	movlw	0
  8332  0660  00B9               	movwf	___fldiv@b+2
  8333  0661  3000               	movlw	0
  8334  0662  00B8               	movwf	___fldiv@b+1
  8335  0663  3000               	movlw	0
  8336  0664  00B7               	movwf	___fldiv@b
  8337  0665                     l3343:
  8338  0665  01C4               	clrf	___fldiv@sign
  8339  0666                     l916:
  8340  0666  0020               	movlb	0	; select bank0
  8341  0667  0845               	movf	___fldiv@new_exp,w
  8342  0668  00BB               	movwf	??___fldiv
  8343  0669  083B               	movf	??___fldiv,w
  8344  066A  00CB               	movwf	___fldiv@bexp
  8345  066B                     l3345:
  8346  066B  1C4B               	btfss	___fldiv@bexp,0
  8347  066C  2E6E               	goto	u3621
  8348  066D  2E6F               	goto	u3620
  8349  066E                     u3621:
  8350  066E  2E71               	goto	l3349
  8351  066F                     u3620:
  8352  066F                     l3347:
  8353  066F  17B9               	bsf	___fldiv@b+2,7
  8354  0670  2E75               	goto	l918
  8355  0671                     l3349:
  8356  0671  307F               	movlw	127
  8357  0672  00BB               	movwf	??___fldiv
  8358  0673  083B               	movf	??___fldiv,w
  8359  0674  05B9               	andwf	___fldiv@b+2,f
  8360  0675                     l918:
  8361  0675  364B               	lsrf	___fldiv@bexp,w
  8362  0676  00BB               	movwf	??___fldiv
  8363  0677  083B               	movf	??___fldiv,w
  8364  0678  00BA               	movwf	___fldiv@b+3
  8365  0679  0844               	movf	___fldiv@sign,w
  8366  067A  00BB               	movwf	??___fldiv
  8367  067B  083B               	movf	??___fldiv,w
  8368  067C  04BA               	iorwf	___fldiv@b+3,f
  8369  067D  2D3A               	goto	l3259
  8370  067E                     l896:
  8371  067E  0008               	return
  8372  067F                     __end_of___fldiv:
  8373                           
  8374                           	psect	text43
  8375  0983                     __ptext43:	
  8376 ;; *************** function _KeepDistance *****************
  8377 ;; Defined at:
  8378 ;;		line 62 in file "02-SRC/02-APPLICATION/Appl.c"
  8379 ;; Parameters:    Size  Location     Type
  8380 ;;  amount          1    wreg     unsigned char 
  8381 ;; Auto vars:     Size  Location     Type
  8382 ;;  amount          1    8[BANK0 ] unsigned char 
  8383 ;;  diff            2    6[BANK0 ] short 
  8384 ;;  retVal          1    9[BANK0 ] unsigned char 
  8385 ;; Return value:  Size  Location     Type
  8386 ;;                  1    wreg      unsigned char 
  8387 ;; Registers used:
  8388 ;;		wreg, status,2, status,0
  8389 ;; Tracked objects:
  8390 ;;		On entry : 0/0
  8391 ;;		On exit  : 0/0
  8392 ;;		Unchanged: 0/0
  8393 ;; Data sizes:     COMMON   BANK0   BANK1   BANK2   BANK3   BANK4   BANK5   BANK6
  8394 ;;      Params:         0       0       0       0       0       0       0       0
  8395 ;;      Locals:         0       4       0       0       0       0       0       0
  8396 ;;      Temps:          0       1       0       0       0       0       0       0
  8397 ;;      Totals:         0       5       0       0       0       0       0       0
  8398 ;;Total ram usage:        5 bytes
  8399 ;; Hardware stack levels used:    1
  8400 ;; Hardware stack levels required when called:    4
  8401 ;; This function calls:
  8402 ;;		Nothing
  8403 ;; This function is called by:
  8404 ;;		_APPL_TASK_10MS
  8405 ;; This function uses a non-reentrant model
  8406 ;;
  8407                           
  8408                           
  8409                           ;psect for function _KeepDistance
  8410  0983                     _KeepDistance:
  8411                           
  8412                           ;incstack = 0
  8413                           ; Regs used in _KeepDistance: [wreg+status,2+status,0]
  8414                           ;KeepDistance@amount stored from wreg
  8415  0983  0020               	movlb	0	; select bank0
  8416  0984  00A8               	movwf	KeepDistance@amount
  8417  0985                     l2559:
  8418  0985  01A9               	clrf	KeepDistance@retVal
  8419  0986  0AA9               	incf	KeepDistance@retVal,f
  8420  0987                     l2561:
  8421  0987  0021               	movlb	1	; select bank1
  8422  0988  0829               	movf	(_MyQueue+1)^(0+128),w
  8423  0989  3A80               	xorlw	128
  8424  098A  0020               	movlb	0	; select bank0
  8425  098B  00A5               	movwf	??_KeepDistance
  8426  098C  0021               	movlb	1	; select bank1
  8427  098D  082B               	movf	((_MyQueue+1)^(0+128)+2),w
  8428  098E  3A80               	xorlw	128
  8429  098F  0020               	movlb	0	; select bank0
  8430  0990  0225               	subwf	??_KeepDistance,w
  8431  0991  1D03               	skipz
  8432  0992  2996               	goto	u2565
  8433  0993  0021               	movlb	1	; select bank1
  8434  0994  082A               	movf	(_MyQueue^(0+128)+2),w
  8435  0995  0228               	subwf	_MyQueue^(0+128),w
  8436  0996                     u2565:
  8437  0996  1803               	skipnc
  8438  0997  2999               	goto	u2561
  8439  0998  299A               	goto	u2560
  8440  0999                     u2561:
  8441  0999  29B1               	goto	l2569
  8442  099A                     u2560:
  8443  099A                     l2563:
  8444  099A  0021               	movlb	1	; select bank1
  8445  099B  0828               	movf	_MyQueue^(0+128),w
  8446  099C  022A               	subwf	(_MyQueue^(0+128)+2),w
  8447  099D  0020               	movlb	0	; select bank0
  8448  099E  00A6               	movwf	KeepDistance@diff
  8449  099F  0021               	movlb	1	; select bank1
  8450  09A0  0829               	movf	(_MyQueue+1)^(0+128),w
  8451  09A1  3B2B               	subwfb	((_MyQueue+1)^(0+128)+2),w
  8452  09A2  0020               	movlb	0	; select bank0
  8453  09A3  00A7               	movwf	KeepDistance@diff+1
  8454  09A4                     l2565:
  8455  09A4  0827               	movf	KeepDistance@diff+1,w
  8456  09A5  3A80               	xorlw	128
  8457  09A6  3C80               	sublw	128
  8458  09A7  1D03               	skipz
  8459  09A8  29AB               	goto	u2575
  8460  09A9  0826               	movf	KeepDistance@diff,w
  8461  09AA  0228               	subwf	KeepDistance@amount,w
  8462  09AB                     u2575:
  8463  09AB  1803               	skipnc
  8464  09AC  29AE               	goto	u2571
  8465  09AD  29AF               	goto	u2570
  8466  09AE                     u2571:
  8467  09AE  29B1               	goto	l2569
  8468  09AF                     u2570:
  8469  09AF                     l2567:
  8470  09AF  0020               	movlb	0	; select bank0
  8471  09B0  01A9               	clrf	KeepDistance@retVal
  8472  09B1                     l2569:
  8473  09B1  0020               	movlb	0	; select bank0
  8474  09B2  0829               	movf	KeepDistance@retVal,w
  8475  09B3                     l77:
  8476  09B3  0008               	return
  8477  09B4                     __end_of_KeepDistance:
  8478                           
  8479                           	psect	text44
  8480  1703                     __ptext44:	
  8481 ;; *************** function _Get_Slope1 *****************
  8482 ;; Defined at:
  8483 ;;		line 72 in file "02-SRC/03-NETWORK/network.c"
  8484 ;; Parameters:    Size  Location     Type
  8485 ;;		None
  8486 ;; Auto vars:     Size  Location     Type
  8487 ;;		None
  8488 ;; Return value:  Size  Location     Type
  8489 ;;                  1    wreg      unsigned char 
  8490 ;; Registers used:
  8491 ;;		wreg
  8492 ;; Tracked objects:
  8493 ;;		On entry : 0/0
  8494 ;;		On exit  : 0/0
  8495 ;;		Unchanged: 0/0
  8496 ;; Data sizes:     COMMON   BANK0   BANK1   BANK2   BANK3   BANK4   BANK5   BANK6
  8497 ;;      Params:         0       0       0       0       0       0       0       0
  8498 ;;      Locals:         0       0       0       0       0       0       0       0
  8499 ;;      Temps:          0       0       0       0       0       0       0       0
  8500 ;;      Totals:         0       0       0       0       0       0       0       0
  8501 ;;Total ram usage:        0 bytes
  8502 ;; Hardware stack levels used:    1
  8503 ;; Hardware stack levels required when called:    4
  8504 ;; This function calls:
  8505 ;;		Nothing
  8506 ;; This function is called by:
  8507 ;;		_APPL_TASK_10MS
  8508 ;; This function uses a non-reentrant model
  8509 ;;
  8510                           
  8511                           
  8512                           ;psect for function _Get_Slope1
  8513  1703                     _Get_Slope1:
  8514  1703                     l2629:	
  8515                           ;incstack = 0
  8516                           ; Regs used in _Get_Slope1: [wreg]
  8517                           
  8518  1703  0021               	movlb	1	; select bank1
  8519  1704  083F               	movf	_Slope1^(0+128),w
  8520  1705                     l183:
  8521  1705  0008               	return
  8522  1706                     __end_of_Get_Slope1:
  8523                           
  8524                           	psect	text45
  8525  1700                     __ptext45:	
  8526 ;; *************** function _Get_PWM2Cmd *****************
  8527 ;; Defined at:
  8528 ;;		line 68 in file "02-SRC/03-NETWORK/network.c"
  8529 ;; Parameters:    Size  Location     Type
  8530 ;;		None
  8531 ;; Auto vars:     Size  Location     Type
  8532 ;;		None
  8533 ;; Return value:  Size  Location     Type
  8534 ;;                  1    wreg      unsigned char 
  8535 ;; Registers used:
  8536 ;;		wreg
  8537 ;; Tracked objects:
  8538 ;;		On entry : 0/0
  8539 ;;		On exit  : 0/0
  8540 ;;		Unchanged: 0/0
  8541 ;; Data sizes:     COMMON   BANK0   BANK1   BANK2   BANK3   BANK4   BANK5   BANK6
  8542 ;;      Params:         0       0       0       0       0       0       0       0
  8543 ;;      Locals:         0       0       0       0       0       0       0       0
  8544 ;;      Temps:          0       0       0       0       0       0       0       0
  8545 ;;      Totals:         0       0       0       0       0       0       0       0
  8546 ;;Total ram usage:        0 bytes
  8547 ;; Hardware stack levels used:    1
  8548 ;; Hardware stack levels required when called:    4
  8549 ;; This function calls:
  8550 ;;		Nothing
  8551 ;; This function is called by:
  8552 ;;		_APPL_TASK_10MS
  8553 ;; This function uses a non-reentrant model
  8554 ;;
  8555                           
  8556                           
  8557                           ;psect for function _Get_PWM2Cmd
  8558  1700                     _Get_PWM2Cmd:
  8559  1700                     l2633:	
  8560                           ;incstack = 0
  8561                           ; Regs used in _Get_PWM2Cmd: [wreg]
  8562                           
  8563  1700  0021               	movlb	1	; select bank1
  8564  1701  0840               	movf	_CmdPWM2^(0+128),w
  8565  1702                     l180:
  8566  1702  0008               	return
  8567  1703                     __end_of_Get_PWM2Cmd:
  8568                           
  8569                           	psect	text46
  8570  16FD                     __ptext46:	
  8571 ;; *************** function _Get_PWM1Cmd *****************
  8572 ;; Defined at:
  8573 ;;		line 64 in file "02-SRC/03-NETWORK/network.c"
  8574 ;; Parameters:    Size  Location     Type
  8575 ;;		None
  8576 ;; Auto vars:     Size  Location     Type
  8577 ;;		None
  8578 ;; Return value:  Size  Location     Type
  8579 ;;                  1    wreg      unsigned char 
  8580 ;; Registers used:
  8581 ;;		wreg
  8582 ;; Tracked objects:
  8583 ;;		On entry : 0/0
  8584 ;;		On exit  : 0/0
  8585 ;;		Unchanged: 0/0
  8586 ;; Data sizes:     COMMON   BANK0   BANK1   BANK2   BANK3   BANK4   BANK5   BANK6
  8587 ;;      Params:         0       0       0       0       0       0       0       0
  8588 ;;      Locals:         0       0       0       0       0       0       0       0
  8589 ;;      Temps:          0       0       0       0       0       0       0       0
  8590 ;;      Totals:         0       0       0       0       0       0       0       0
  8591 ;;Total ram usage:        0 bytes
  8592 ;; Hardware stack levels used:    1
  8593 ;; Hardware stack levels required when called:    4
  8594 ;; This function calls:
  8595 ;;		Nothing
  8596 ;; This function is called by:
  8597 ;;		_APPL_TASK_10MS
  8598 ;; This function uses a non-reentrant model
  8599 ;;
  8600                           
  8601                           
  8602                           ;psect for function _Get_PWM1Cmd
  8603  16FD                     _Get_PWM1Cmd:
  8604  16FD                     l2625:	
  8605                           ;incstack = 0
  8606                           ; Regs used in _Get_PWM1Cmd: [wreg]
  8607                           
  8608  16FD  0021               	movlb	1	; select bank1
  8609  16FE  0841               	movf	_CmdPWM1^(0+128),w
  8610  16FF                     l177:
  8611  16FF  0008               	return
  8612  1700                     __end_of_Get_PWM1Cmd:
  8613                           
  8614                           	psect	intentry
  8615  0004                     __pintentry:	
  8616 ;; *************** function _ISR *****************
  8617 ;; Defined at:
  8618 ;;		line 188 in file "02-SRC/04-DRIVER/target.c"
  8619 ;; Parameters:    Size  Location     Type
  8620 ;;		None
  8621 ;; Auto vars:     Size  Location     Type
  8622 ;;  PipeNo          1    4[BANK0 ] unsigned char 
  8623 ;; Return value:  Size  Location     Type
  8624 ;;                  1    wreg      void 
  8625 ;; Registers used:
  8626 ;;		wreg, fsr1l, fsr1h, status,2, status,0, pclath, cstack
  8627 ;; Tracked objects:
  8628 ;;		On entry : 0/0
  8629 ;;		On exit  : 0/0
  8630 ;;		Unchanged: 0/0
  8631 ;; Data sizes:     COMMON   BANK0   BANK1   BANK2   BANK3   BANK4   BANK5   BANK6
  8632 ;;      Params:         0       0       0       0       0       0       0       0
  8633 ;;      Locals:         0       1       0       0       0       0       0       0
  8634 ;;      Temps:          0       2       0       0       0       0       0       0
  8635 ;;      Totals:         0       3       0       0       0       0       0       0
  8636 ;;Total ram usage:        3 bytes
  8637 ;; Hardware stack levels used:    1
  8638 ;; Hardware stack levels required when called:    3
  8639 ;; This function calls:
  8640 ;;		_ClickLed
  8641 ;;		_NRF_Available
  8642 ;;		_NRF_ReadPayload
  8643 ;; This function is called by:
  8644 ;;		Interrupt level 1
  8645 ;; This function uses a non-reentrant model
  8646 ;;
  8647                           
  8648  0004                     _ISR:
  8649                           
  8650                           ;incstack = 0
  8651  0004  147E               	bsf	int$flags,0	;set compiler interrupt flag (level 1)
  8652                           
  8653                           ; Regs used in _ISR: [wreg+fsr1l+fsr1h+status,2+status,0+pclath+cstack]
  8654  0005  3180               	pagesel	$
  8655  0006                     i1l3851:
  8656  0006                     i1l3853:
  8657  0006  1D0B               	btfss	11,2	;volatile
  8658  0007  2809               	goto	u431_21
  8659  0008  280A               	goto	u431_20
  8660  0009                     u431_21:
  8661  0009  2814               	goto	i1l465
  8662  000A                     u431_20:
  8663  000A                     i1l3855:
  8664  000A  3005               	movlw	5
  8665  000B  0020               	movlb	0	; select bank0
  8666  000C  0095               	movwf	21	;volatile
  8667  000D  3001               	movlw	1
  8668  000E  0021               	movlb	1	; select bank1
  8669  000F  07BC               	addwf	_Tick_1ms^(0+128),f
  8670  0010  3000               	movlw	0
  8671  0011  3DBD               	addwfc	(_Tick_1ms+1)^(0+128),f
  8672  0012                     i1l3857:
  8673  0012  110B               	bcf	11,2	;volatile
  8674  0013  2845               	goto	i1l469
  8675  0014                     i1l465:
  8676  0014  1C0B               	btfss	11,0	;volatile
  8677  0015  2817               	goto	u432_21
  8678  0016  2818               	goto	u432_20
  8679  0017                     u432_21:
  8680  0017  2845               	goto	i1l469
  8681  0018                     u432_20:
  8682  0018                     i1l3859:
  8683  0018  3032               	movlw	50
  8684  0019  00F0               	movwf	ClickLed@DurationMs
  8685  001A  3000               	movlw	0
  8686  001B  00F1               	movwf	ClickLed@DurationMs+1
  8687  001C  3197  270C  3180   	fcall	_ClickLed
  8688  001F  3197  278A  3180   	fcall	_NRF_Available
  8689  0022  0020               	movlb	0	; select bank0
  8690  0023  00A2               	movwf	??_ISR
  8691  0024  0822               	movf	??_ISR,w
  8692  0025  00A4               	movwf	ISR@PipeNo
  8693  0026                     i1l3861:
  8694  0026  3008               	movlw	8
  8695  0027  00A2               	movwf	??_ISR
  8696  0028  0822               	movf	??_ISR,w
  8697  0029  00FA               	movwf	NRF_ReadPayload@PayloadLength
  8698  002A  0824               	movf	ISR@PipeNo,w
  8699  002B  00A3               	movwf	??_ISR+1
  8700  002C  3002               	movlw	2
  8701  002D                     u433_25:
  8702  002D  35A3               	lslf	??_ISR+1,f
  8703  002E  3EFF               	addlw	-1
  8704  002F  1D03               	skipz
  8705  0030  282D               	goto	u433_25
  8706  0031  3523               	lslf	??_ISR+1,w
  8707  0032  3EC2               	addlw	(low (_DataPipe| 0))& (0+255)
  8708  0033  318B  2377  3180   	fcall	_NRF_ReadPayload
  8709  0036                     i1l3863:
  8710  0036  3001               	movlw	1
  8711  0037  0020               	movlb	0	; select bank0
  8712  0038  00A2               	movwf	??_ISR
  8713  0039  0A24               	incf	ISR@PipeNo,w
  8714  003A  283C               	goto	u434_24
  8715  003B                     u434_25:
  8716  003B  35A2               	lslf	??_ISR,f
  8717  003C                     u434_24:
  8718  003C  0B89               	decfsz	9,f
  8719  003D  283B               	goto	u434_25
  8720  003E  0822               	movf	??_ISR,w
  8721  003F  00A3               	movwf	??_ISR+1
  8722  0040  0823               	movf	??_ISR+1,w
  8723  0041  00E6               	movwf	_NwtFlags
  8724  0042                     i1l3865:
  8725  0042  0027               	movlb	7	; select bank7
  8726  0043  0193               	clrf	19	;volatile
  8727  0044                     i1l3867:
  8728  0044  100B               	bcf	11,0	;volatile
  8729  0045                     i1l469:
  8730  0045  107E               	bcf	int$flags,0	;clear compiler interrupt flag (level 1)
  8731  0046  0009               	retfie
  8732  0047                     __end_of_ISR:
  8733                           
  8734                           	psect	text48
  8735  0B77                     __ptext48:	
  8736 ;; *************** function _NRF_ReadPayload *****************
  8737 ;; Defined at:
  8738 ;;		line 47 in file "02-SRC/04-DRIVER/NRF24L01/NRF24L01.c"
  8739 ;; Parameters:    Size  Location     Type
  8740 ;;  Payload         1    wreg     PTR unsigned char 
  8741 ;;		 -> DataPipe(16), 
  8742 ;;  PayloadLengt    1   10[COMMON] unsigned char 
  8743 ;; Auto vars:     Size  Location     Type
  8744 ;;  Payload         1    0[BANK0 ] PTR unsigned char 
  8745 ;;		 -> DataPipe(16), 
  8746 ;;  i               1    1[BANK0 ] unsigned char 
  8747 ;; Return value:  Size  Location     Type
  8748 ;;                  1    wreg      void 
  8749 ;; Registers used:
  8750 ;;		wreg, fsr1l, fsr1h, status,2, status,0, pclath, cstack
  8751 ;; Tracked objects:
  8752 ;;		On entry : 0/0
  8753 ;;		On exit  : 0/0
  8754 ;;		Unchanged: 0/0
  8755 ;; Data sizes:     COMMON   BANK0   BANK1   BANK2   BANK3   BANK4   BANK5   BANK6
  8756 ;;      Params:         1       0       0       0       0       0       0       0
  8757 ;;      Locals:         0       2       0       0       0       0       0       0
  8758 ;;      Temps:          3       0       0       0       0       0       0       0
  8759 ;;      Totals:         4       2       0       0       0       0       0       0
  8760 ;;Total ram usage:        6 bytes
  8761 ;; Hardware stack levels used:    1
  8762 ;; Hardware stack levels required when called:    2
  8763 ;; This function calls:
  8764 ;;		Absolute function
  8765 ;;		i1_NRF_Write_Register
  8766 ;;		i1_SPI_Exchange
  8767 ;; This function is called by:
  8768 ;;		_ISR
  8769 ;; This function uses a non-reentrant model
  8770 ;;
  8771                           
  8772                           
  8773                           ;psect for function _NRF_ReadPayload
  8774  0B77                     _NRF_ReadPayload:
  8775                           
  8776                           ;incstack = 0
  8777                           ; Regs used in _NRF_ReadPayload: [wreg+fsr1l+fsr1h+status,2+status,0+pclath+cstack]
  8778                           ;NRF_ReadPayload@Payload stored from wreg
  8779  0B77  0020               	movlb	0	; select bank0
  8780  0B78  00A0               	movwf	NRF_ReadPayload@Payload
  8781  0B79                     i1l3751:
  8782  0B79  0022               	movlb	2	; select bank2
  8783  0B7A  108E               	bcf	14,1	;volatile
  8784  0B7B                     i1l3753:
  8785  0B7B  3061               	movlw	97
  8786  0B7C  00FB               	movwf	??_NRF_ReadPayload
  8787  0B7D  087B               	movf	??_NRF_ReadPayload,w
  8788  0B7E  00F0               	movwf	i1SPI_Exchange@Data
  8789  0B7F  0020               	movlb	0	; select bank0
  8790  0B80  0865               	movf	_p_NRF_SPI_Exchange+1,w
  8791  0B81  008A               	movwf	10
  8792  0B82  0864               	movf	_p_NRF_SPI_Exchange,w
  8793  0B83  000A               	callw
  8794  0B84  318B               	pagesel	$
  8795  0B85  00FC               	movwf	??_NRF_ReadPayload+1
  8796  0B86  087C               	movf	??_NRF_ReadPayload+1,w
  8797  0B87  0021               	movlb	1	; select bank1
  8798  0B88  00D7               	movwf	(_NRFChip^(0+128)+5)
  8799  0B89                     i1l3755:
  8800  0B89  0020               	movlb	0	; select bank0
  8801  0B8A  01A1               	clrf	NRF_ReadPayload@i
  8802  0B8B  2BA3               	goto	i1l3761
  8803  0B8C                     i1l3757:
  8804  0B8C  30FF               	movlw	255
  8805  0B8D  00FB               	movwf	??_NRF_ReadPayload
  8806  0B8E  087B               	movf	??_NRF_ReadPayload,w
  8807  0B8F  00F0               	movwf	i1SPI_Exchange@Data
  8808  0B90  0865               	movf	_p_NRF_SPI_Exchange+1,w
  8809  0B91  008A               	movwf	10
  8810  0B92  0864               	movf	_p_NRF_SPI_Exchange,w
  8811  0B93  000A               	callw
  8812  0B94  318B               	pagesel	$
  8813  0B95  00FC               	movwf	??_NRF_ReadPayload+1
  8814  0B96  0020               	movlb	0	; select bank0
  8815  0B97  0821               	movf	NRF_ReadPayload@i,w
  8816  0B98  0720               	addwf	NRF_ReadPayload@Payload,w
  8817  0B99  00FD               	movwf	??_NRF_ReadPayload+2
  8818  0B9A  087D               	movf	??_NRF_ReadPayload+2,w
  8819  0B9B  0086               	movwf	6
  8820  0B9C  0187               	clrf	7
  8821  0B9D  087C               	movf	??_NRF_ReadPayload+1,w
  8822  0B9E  0081               	movwf	1
  8823  0B9F                     i1l3759:
  8824  0B9F  3001               	movlw	1
  8825  0BA0  00FB               	movwf	??_NRF_ReadPayload
  8826  0BA1  087B               	movf	??_NRF_ReadPayload,w
  8827  0BA2  07A1               	addwf	NRF_ReadPayload@i,f
  8828  0BA3                     i1l3761:
  8829  0BA3  087A               	movf	NRF_ReadPayload@PayloadLength,w
  8830  0BA4  0221               	subwf	NRF_ReadPayload@i,w
  8831  0BA5  1C03               	skipc
  8832  0BA6  2BA8               	goto	u423_21
  8833  0BA7  2BA9               	goto	u423_20
  8834  0BA8                     u423_21:
  8835  0BA8  2B8C               	goto	i1l3757
  8836  0BA9                     u423_20:
  8837  0BA9                     i1l225:
  8838  0BA9  0022               	movlb	2	; select bank2
  8839  0BAA  148E               	bsf	14,1	;volatile
  8840  0BAB  0021               	movlb	1	; select bank1
  8841  0BAC  1757               	bsf	(_NRFChip^(0+128)+5),6
  8842  0BAD                     i1l3763:
  8843  0BAD  30D7               	movlw	low (_NRFChip+5)
  8844  0BAE  00F1               	movwf	i1NRF_Write_Register@Bytes
  8845  0BAF  3000               	movlw	high (_NRFChip+5)
  8846  0BB0  00F2               	movwf	i1NRF_Write_Register@Bytes+1
  8847  0BB1  01F3               	clrf	i1NRF_Write_Register@Length
  8848  0BB2  0AF3               	incf	i1NRF_Write_Register@Length,f
  8849  0BB3  3007               	movlw	7
  8850  0BB4  3189  2152  318B   	fcall	i1_NRF_Write_Register
  8851  0BB7                     i1l226:
  8852  0BB7  0008               	return
  8853  0BB8                     __end_of_NRF_ReadPayload:
  8854                           
  8855                           	psect	text49
  8856  0952                     __ptext49:	
  8857 ;; *************** function i1_NRF_Write_Register *****************
  8858 ;; Defined at:
  8859 ;;		line 23 in file "02-SRC/04-DRIVER/NRF24L01/NRF24L01.c"
  8860 ;; Parameters:    Size  Location     Type
  8861 ;;  Register        1    wreg     unsigned char 
  8862 ;;  Bytes           2    1[COMMON] PTR unsigned char 
  8863 ;;		 -> NRF_PipeDisableAA@AA(1), NRF_PipeEnableAA@AA(1), NRF_PipeDisable@EN(1), NRF_PipeEnable@EN(1), 
  8864 ;;		 -> NFR_RxPipes(36), NRFChip.STATUS(1), NRFChip(14), NetworkInit@ModuleAddr(5), 
  8865 ;;  Length          1    3[COMMON] unsigned char 
  8866 ;; Auto vars:     Size  Location     Type
  8867 ;;  Register        1    8[COMMON] unsigned char 
  8868 ;;  i               1    9[COMMON] unsigned char 
  8869 ;;  Status          1    0        unsigned char 
  8870 ;; Return value:  Size  Location     Type
  8871 ;;                  1    wreg      unsigned char 
  8872 ;; Registers used:
  8873 ;;		wreg, fsr1l, fsr1h, status,2, status,0, pclath, cstack
  8874 ;; Tracked objects:
  8875 ;;		On entry : 0/0
  8876 ;;		On exit  : 0/0
  8877 ;;		Unchanged: 0/0
  8878 ;; Data sizes:     COMMON   BANK0   BANK1   BANK2   BANK3   BANK4   BANK5   BANK6
  8879 ;;      Params:         3       0       0       0       0       0       0       0
  8880 ;;      Locals:         3       0       0       0       0       0       0       0
  8881 ;;      Temps:          3       0       0       0       0       0       0       0
  8882 ;;      Totals:         9       0       0       0       0       0       0       0
  8883 ;;Total ram usage:        9 bytes
  8884 ;; Hardware stack levels used:    1
  8885 ;; Hardware stack levels required when called:    1
  8886 ;; This function calls:
  8887 ;;		Absolute function
  8888 ;;		i1_SPI_Exchange
  8889 ;; This function is called by:
  8890 ;;		_NRF_ReadPayload
  8891 ;; This function uses a non-reentrant model
  8892 ;;
  8893                           
  8894                           
  8895                           ;psect for function i1_NRF_Write_Register
  8896  0952                     i1_NRF_Write_Register:
  8897                           
  8898                           ;incstack = 0
  8899                           ; Regs used in i1_NRF_Write_Register: [wreg+fsr1l+fsr1h+status,2+status,0+pclath+cstack]
  8900                           ;i1NRF_Write_Register@Register stored from wreg
  8901  0952  00F8               	movwf	i1NRF_Write_Register@Register
  8902  0953                     i1l3691:
  8903  0953  01F9               	clrf	i1NRF_Write_Register@i
  8904  0954                     i1l3693:
  8905  0954  0022               	movlb	2	; select bank2
  8906  0955  108E               	bcf	14,1	;volatile
  8907  0956                     i1l3695:
  8908  0956  0878               	movf	i1NRF_Write_Register@Register,w
  8909  0957  3820               	iorlw	32
  8910  0958  00F4               	movwf	??i1_NRF_Write_Register
  8911  0959  0874               	movf	??i1_NRF_Write_Register,w
  8912  095A  00F0               	movwf	i1SPI_Exchange@Data
  8913  095B  0020               	movlb	0	; select bank0
  8914  095C  0865               	movf	_p_NRF_SPI_Exchange+1,w
  8915  095D  008A               	movwf	10
  8916  095E  0864               	movf	_p_NRF_SPI_Exchange,w
  8917  095F  000A               	callw
  8918  0960  3189               	pagesel	$
  8919  0961                     i1l3697:
  8920  0961  01F9               	clrf	i1NRF_Write_Register@i
  8921  0962  297A               	goto	i1l3703
  8922  0963                     i1l3699:
  8923  0963  0879               	movf	i1NRF_Write_Register@i,w
  8924  0964  00F4               	movwf	??i1_NRF_Write_Register
  8925  0965  01F5               	clrf	??i1_NRF_Write_Register+1
  8926  0966  0874               	movf	??i1_NRF_Write_Register,w
  8927  0967  0771               	addwf	i1NRF_Write_Register@Bytes,w
  8928  0968  0086               	movwf	6
  8929  0969  0875               	movf	??i1_NRF_Write_Register+1,w
  8930  096A  3D72               	addwfc	i1NRF_Write_Register@Bytes+1,w
  8931  096B  0087               	movwf	7
  8932  096C  0801               	movf	1,w
  8933  096D  00F6               	movwf	??i1_NRF_Write_Register+2
  8934  096E  0876               	movf	??i1_NRF_Write_Register+2,w
  8935  096F  00F0               	movwf	i1SPI_Exchange@Data
  8936  0970  0020               	movlb	0	; select bank0
  8937  0971  0865               	movf	_p_NRF_SPI_Exchange+1,w
  8938  0972  008A               	movwf	10
  8939  0973  0864               	movf	_p_NRF_SPI_Exchange,w
  8940  0974  000A               	callw
  8941  0975  3189               	pagesel	$
  8942  0976                     i1l3701:
  8943  0976  3001               	movlw	1
  8944  0977  00F4               	movwf	??i1_NRF_Write_Register
  8945  0978  0874               	movf	??i1_NRF_Write_Register,w
  8946  0979  07F9               	addwf	i1NRF_Write_Register@i,f
  8947  097A                     i1l3703:
  8948  097A  0873               	movf	i1NRF_Write_Register@Length,w
  8949  097B  0279               	subwf	i1NRF_Write_Register@i,w
  8950  097C  1C03               	skipc
  8951  097D  297F               	goto	u419_21
  8952  097E  2980               	goto	u419_20
  8953  097F                     u419_21:
  8954  097F  2963               	goto	i1l3699
  8955  0980                     u419_20:
  8956  0980                     i1l213:
  8957  0980  0022               	movlb	2	; select bank2
  8958  0981  148E               	bsf	14,1	;volatile
  8959  0982                     i1l214:	
  8960                           ;	Return value of i1_NRF_Write_Register is never used
  8961                           
  8962  0982  0008               	return
  8963  0983                     __end_ofi1_NRF_Write_Register:
  8964                           
  8965                           	psect	text50
  8966  178A                     __ptext50:	
  8967 ;; *************** function _NRF_Available *****************
  8968 ;; Defined at:
  8969 ;;		line 206 in file "02-SRC/04-DRIVER/NRF24L01/NRF24L01.c"
  8970 ;; Parameters:    Size  Location     Type
  8971 ;;		None
  8972 ;; Auto vars:     Size  Location     Type
  8973 ;;  PipiNo          1    4[COMMON] unsigned char 
  8974 ;; Return value:  Size  Location     Type
  8975 ;;                  1    wreg      unsigned char 
  8976 ;; Registers used:
  8977 ;;		wreg, status,2, status,0, pclath, cstack
  8978 ;; Tracked objects:
  8979 ;;		On entry : 0/0
  8980 ;;		On exit  : 0/0
  8981 ;;		Unchanged: 0/0
  8982 ;; Data sizes:     COMMON   BANK0   BANK1   BANK2   BANK3   BANK4   BANK5   BANK6
  8983 ;;      Params:         0       0       0       0       0       0       0       0
  8984 ;;      Locals:         1       0       0       0       0       0       0       0
  8985 ;;      Temps:          1       0       0       0       0       0       0       0
  8986 ;;      Totals:         2       0       0       0       0       0       0       0
  8987 ;;Total ram usage:        2 bytes
  8988 ;; Hardware stack levels used:    1
  8989 ;; Hardware stack levels required when called:    2
  8990 ;; This function calls:
  8991 ;;		_NRF_GetStatus
  8992 ;; This function is called by:
  8993 ;;		_ISR
  8994 ;; This function uses a non-reentrant model
  8995 ;;
  8996                           
  8997                           
  8998                           ;psect for function _NRF_Available
  8999  178A                     _NRF_Available:
  9000  178A                     i1l3765:	
  9001                           ;incstack = 0
  9002                           ; Regs used in _NRF_Available: [wreg+status,2+status,0+pclath+cstack]
  9003                           
  9004  178A  30FF               	movlw	255
  9005  178B  00F3               	movwf	??_NRF_Available
  9006  178C  0873               	movf	??_NRF_Available,w
  9007  178D  00F4               	movwf	NRF_Available@PipiNo
  9008  178E                     i1l3767:
  9009  178E  3197  2777  3197   	fcall	_NRF_GetStatus
  9010  1791                     i1l3769:
  9011  1791  0021               	movlb	1	; select bank1
  9012  1792  1F57               	btfss	(_NRFChip^(0+128)+5),6
  9013  1793  2F95               	goto	u424_21
  9014  1794  2F96               	goto	u424_20
  9015  1795                     u424_21:
  9016  1795  2F9B               	goto	i1l3773
  9017  1796                     u424_20:
  9018  1796                     i1l3771:
  9019  1796  0C57               	rrf	(_NRFChip^(0+128)+5),w
  9020  1797  3907               	andlw	7
  9021  1798  00F3               	movwf	??_NRF_Available
  9022  1799  0873               	movf	??_NRF_Available,w
  9023  179A  00F4               	movwf	NRF_Available@PipiNo
  9024  179B                     i1l3773:
  9025  179B  0874               	movf	NRF_Available@PipiNo,w
  9026  179C                     i1l304:
  9027  179C  0008               	return
  9028  179D                     __end_of_NRF_Available:
  9029                           
  9030                           	psect	text51
  9031  1777                     __ptext51:	
  9032 ;; *************** function _NRF_GetStatus *****************
  9033 ;; Defined at:
  9034 ;;		line 217 in file "02-SRC/04-DRIVER/NRF24L01/NRF24L01.c"
  9035 ;; Parameters:    Size  Location     Type
  9036 ;;		None
  9037 ;; Auto vars:     Size  Location     Type
  9038 ;;		None
  9039 ;; Return value:  Size  Location     Type
  9040 ;;                  1    wreg      unsigned char 
  9041 ;; Registers used:
  9042 ;;		wreg, pclath, cstack
  9043 ;; Tracked objects:
  9044 ;;		On entry : 0/0
  9045 ;;		On exit  : 0/0
  9046 ;;		Unchanged: 0/0
  9047 ;; Data sizes:     COMMON   BANK0   BANK1   BANK2   BANK3   BANK4   BANK5   BANK6
  9048 ;;      Params:         0       0       0       0       0       0       0       0
  9049 ;;      Locals:         0       0       0       0       0       0       0       0
  9050 ;;      Temps:          2       0       0       0       0       0       0       0
  9051 ;;      Totals:         2       0       0       0       0       0       0       0
  9052 ;;Total ram usage:        2 bytes
  9053 ;; Hardware stack levels used:    1
  9054 ;; Hardware stack levels required when called:    1
  9055 ;; This function calls:
  9056 ;;		Absolute function
  9057 ;;		i1_SPI_Exchange
  9058 ;; This function is called by:
  9059 ;;		_NRF_Available
  9060 ;; This function uses a non-reentrant model
  9061 ;;
  9062                           
  9063                           
  9064                           ;psect for function _NRF_GetStatus
  9065  1777                     _NRF_GetStatus:
  9066  1777                     i1l3683:	
  9067                           ;incstack = 0
  9068                           ; Regs used in _NRF_GetStatus: [wreg+pclath+cstack]
  9069                           
  9070  1777  0022               	movlb	2	; select bank2
  9071  1778  108E               	bcf	14,1	;volatile
  9072  1779                     i1l3685:
  9073  1779  30FF               	movlw	255
  9074  177A  00F1               	movwf	??_NRF_GetStatus
  9075  177B  0871               	movf	??_NRF_GetStatus,w
  9076  177C  00F0               	movwf	i1SPI_Exchange@Data
  9077  177D  0020               	movlb	0	; select bank0
  9078  177E  0865               	movf	_p_NRF_SPI_Exchange+1,w
  9079  177F  008A               	movwf	10
  9080  1780  0864               	movf	_p_NRF_SPI_Exchange,w
  9081  1781  000A               	callw
  9082  1782  3197               	pagesel	$
  9083  1783  00F2               	movwf	??_NRF_GetStatus+1
  9084  1784  0872               	movf	??_NRF_GetStatus+1,w
  9085  1785  0021               	movlb	1	; select bank1
  9086  1786  00D7               	movwf	(_NRFChip^(0+128)+5)
  9087  1787                     i1l3687:
  9088  1787  0022               	movlb	2	; select bank2
  9089  1788  148E               	bsf	14,1	;volatile
  9090  1789                     i1l307:
  9091  1789  0008               	return
  9092  178A                     __end_of_NRF_GetStatus:
  9093                           
  9094                           	psect	text52
  9095  1715                     __ptext52:	
  9096 ;; *************** function i1_SPI_Exchange *****************
  9097 ;; Defined at:
  9098 ;;		line 108 in file "02-SRC/04-DRIVER/target.c"
  9099 ;; Parameters:    Size  Location     Type
  9100 ;;  Data            1    0[COMMON] unsigned char 
  9101 ;; Auto vars:     Size  Location     Type
  9102 ;;		None
  9103 ;; Return value:  Size  Location     Type
  9104 ;;                  1    wreg      unsigned char 
  9105 ;; Registers used:
  9106 ;;		wreg
  9107 ;; Tracked objects:
  9108 ;;		On entry : 0/0
  9109 ;;		On exit  : 0/0
  9110 ;;		Unchanged: 0/0
  9111 ;; Data sizes:     COMMON   BANK0   BANK1   BANK2   BANK3   BANK4   BANK5   BANK6
  9112 ;;      Params:         1       0       0       0       0       0       0       0
  9113 ;;      Locals:         0       0       0       0       0       0       0       0
  9114 ;;      Temps:          0       0       0       0       0       0       0       0
  9115 ;;      Totals:         1       0       0       0       0       0       0       0
  9116 ;;Total ram usage:        1 bytes
  9117 ;; Hardware stack levels used:    1
  9118 ;; This function calls:
  9119 ;;		Nothing
  9120 ;; This function is called by:
  9121 ;;		_NRF_Write_Register
  9122 ;;		_NRF_Read_Register
  9123 ;;		_NRF_GetStatus
  9124 ;;		i1_NRF_Write_Register
  9125 ;;		_NRF_ReadPayload
  9126 ;;		_NRF_WritePayload
  9127 ;; This function uses a non-reentrant model
  9128 ;;
  9129                           
  9130                           
  9131                           ;psect for function i1_SPI_Exchange
  9132  1715                     i1_SPI_Exchange:
  9133  1715                     i1l3539:	
  9134                           ;incstack = 0
  9135                           ; Regs used in i1_SPI_Exchange: [wreg]
  9136                           
  9137  1715  0870               	movf	i1SPI_Exchange@Data,w
  9138  1716  0024               	movlb	4	; select bank4
  9139  1717  0091               	movwf	17	;volatile
  9140  1718                     i1l428:
  9141  1718  1C14               	btfss	20,0	;volatile
  9142  1719  2F1B               	goto	u403_21
  9143  171A  2F1C               	goto	u403_20
  9144  171B                     u403_21:
  9145  171B  2F18               	goto	i1l428
  9146  171C                     u403_20:
  9147  171C                     i1l3541:
  9148  171C  0811               	movf	17,w	;volatile
  9149  171D                     i1l431:
  9150  171D  0008               	return
  9151  171E                     __end_ofi1_SPI_Exchange:
  9152                           
  9153                           	psect	text53
  9154  170C                     __ptext53:	
  9155 ;; *************** function _ClickLed *****************
  9156 ;; Defined at:
  9157 ;;		line 161 in file "02-SRC/02-APPLICATION/Appl.c"
  9158 ;; Parameters:    Size  Location     Type
  9159 ;;  DurationMs      2    0[COMMON] unsigned short 
  9160 ;; Auto vars:     Size  Location     Type
  9161 ;;		None
  9162 ;; Return value:  Size  Location     Type
  9163 ;;                  1    wreg      void 
  9164 ;; Registers used:
  9165 ;;		wreg
  9166 ;; Tracked objects:
  9167 ;;		On entry : 0/0
  9168 ;;		On exit  : 0/0
  9169 ;;		Unchanged: 0/0
  9170 ;; Data sizes:     COMMON   BANK0   BANK1   BANK2   BANK3   BANK4   BANK5   BANK6
  9171 ;;      Params:         2       0       0       0       0       0       0       0
  9172 ;;      Locals:         0       0       0       0       0       0       0       0
  9173 ;;      Temps:          0       0       0       0       0       0       0       0
  9174 ;;      Totals:         2       0       0       0       0       0       0       0
  9175 ;;Total ram usage:        2 bytes
  9176 ;; Hardware stack levels used:    1
  9177 ;; This function calls:
  9178 ;;		Nothing
  9179 ;; This function is called by:
  9180 ;;		_ISR
  9181 ;; This function uses a non-reentrant model
  9182 ;;
  9183                           
  9184                           
  9185                           ;psect for function _ClickLed
  9186  170C                     _ClickLed:
  9187  170C                     i1l2937:	
  9188                           ;incstack = 0
  9189                           ; Regs used in _ClickLed: [wreg]
  9190                           
  9191  170C  0020               	movlb	0	; select bank0
  9192  170D  01E8               	clrf	_Click
  9193  170E  0AE8               	incf	_Click,f
  9194  170F                     i1l2939:
  9195  170F  0871               	movf	ClickLed@DurationMs+1,w
  9196  1710  0021               	movlb	1	; select bank1
  9197  1711  00BB               	movwf	(_Click_Duration+1)^(0+128)
  9198  1712  0870               	movf	ClickLed@DurationMs,w
  9199  1713  00BA               	movwf	_Click_Duration^(0+128)
  9200  1714                     i1l113:
  9201  1714  0008               	return
  9202  1715                     __end_of_ClickLed:
  9203  007E                     btemp	set	126	;btemp
  9204  007E                     int$flags	set	126
  9205  007E                     wtemp0	set	126
  9206  2170                     
  9207                           	psect	config
  9208                           
  9209                           ;Config register CONFIG1 @ 0x8007
  9210                           ;	Oscillator Selection Bits
  9211                           ;	FOSC = HS, HS Oscillator, High-speed crystal/resonator connected between OSC1 and OSC2
      +                           pins
  9212                           ;	Watchdog Timer Enable
  9213                           ;	WDTE = OFF, WDT disabled
  9214                           ;	Power-up Timer Enable
  9215                           ;	PWRTE = ON, PWRT enabled
  9216                           ;	MCLR Pin Function Select
  9217                           ;	MCLRE = ON, MCLR/VPP pin function is MCLR
  9218                           ;	Flash Program Memory Code Protection
  9219                           ;	CP = OFF, Program memory code protection is disabled
  9220                           ;	Brown-out Reset Enable
  9221                           ;	BOREN = OFF, Brown-out Reset disabled
  9222                           ;	Clock Out Enable
  9223                           ;	CLKOUTEN = OFF, CLKOUT function is disabled. I/O or oscillator function on the CLKOUT 
      +                          pin
  9224                           ;	Internal/External Switchover Mode
  9225                           ;	IESO = ON, Internal/External Switchover Mode is enabled
  9226                           ;	Fail-Safe Clock Monitor Enable
  9227                           ;	FCMEN = ON, Fail-Safe Clock Monitor is enabled
  9228  8007                     	org	32775
  9229  8007  39C2               	dw	14786
  9230                           
  9231                           ;Config register CONFIG2 @ 0x8008
  9232                           ;	Flash Memory Self-Write Protection
  9233                           ;	WRT = OFF, Write protection off
  9234                           ;	Stack Overflow/Underflow Reset Enable
  9235                           ;	STVREN = ON, Stack Overflow or Underflow will cause a Reset
  9236                           ;	Brown-out Reset Voltage Selection
  9237                           ;	BORV = HI, Brown-out Reset Voltage (Vbor), high trip point selected.
  9238                           ;	Low-Power Brown Out Reset
  9239                           ;	LPBOR = ON, Low-Power BOR is enabled
  9240                           ;	Low-Voltage Programming Enable
  9241                           ;	LVP = OFF, High-voltage on MCLR/VPP must be used for programming
  9242  8008                     	org	32776
  9243  8008  13FF               	dw	5119

Data Sizes:
    Strings     0
    Constant    512
    Data        0
    BSS         137
    Persistent  32
    Stack       0

Auto Spaces:
    Space          Size  Autos    Used
    COMMON           14     14      14
    BANK0            80     68      73
    BANK1            80     15      79
    BANK2            80      0      68
    BANK3            80      0       0
    BANK4            48      0       0
    BANK5             0      0       0
    BANK6             0      0       0

Pointer List with Targets:

    NVM_Write_Row@WriteBuff	PTR unsigned char  size(1) Largest target is 32
		 -> NVM_Init@InitBuffer(BANK0[32]), 

    NVM_Read_Buff@RBuff	PTR unsigned char  size(1) Largest target is 5
		 -> NetworkInit@ModuleAddr(BANK0[5]), NetworkInit@AddrPipe1(BANK0[5]), 

    NRF_SetTxAddr@PipeAddr	PTR unsigned char  size(1) Largest target is 5
		 -> NetworkInit@ModuleAddr(BANK0[5]), 

    NRF_OpenReadingPipe@PipeAddr	PTR unsigned char  size(1) Largest target is 5
		 -> NetworkInit@ModuleAddr(BANK0[5]), NetworkInit@AddrPipe1(BANK0[5]), 

    NRF_ReadPayload@Payload	PTR unsigned char  size(1) Largest target is 16
		 -> DataPipe(BANK1[16]), 

    NRF_Read_Register@Bytes	PTR unsigned char  size(1) Largest target is 14
		 -> NRFChip.RF_SETUP(BANK1[1]), NRFChip.CONFIG(BANK1[1]), NRF_PipeDisableAA@AA(COMMON[1]), NRF_PipeEnableAA@AA(BANK0[1]), 
		 -> NRF_PipeDisable@EN(COMMON[1]), NRF_PipeEnable@EN(BANK0[1]), NRFChip(BANK1[14]), 

    NRF_Write_Register@Bytes	PTR unsigned char  size(2) Largest target is 36
		 -> NRFChip.SETUP_RETR(BANK1[1]), NRFChip.RF_SETUP(BANK1[1]), NRFChip.RF_CH(BANK1[1]), NRFChip.CONFIG(BANK1[1]), 
		 -> NRF_PipeDisableAA@AA(COMMON[1]), NRF_PipeEnableAA@AA(BANK0[1]), NRF_PipeDisable@EN(COMMON[1]), NRF_PipeEnable@EN(BANK0[1]), 
		 -> NFR_RxPipes(BANK2[36]), NRFChip.AW(BANK1[1]), NRFChip(BANK1[14]), NetworkInit@ModuleAddr(BANK0[5]), 

    NRF24L01_Init@SPI_Exchange	PTR FTN(unsigned char ,)unsigned char  size(2) Largest target is 1
		 -> SPI_Exchange(), 

    NRF_Set_SPI_Handler@SPI_Handler	PTR FTN(unsigned char ,)unsigned char  size(2) Largest target is 1
		 -> SPI_Exchange(), 

    p_NRF_SPI_Exchange	PTR FTN(unsigned char ,)unsigned char  size(2) Largest target is 1
		 -> i1_SPI_Exchange(), Absolute function(), SPI_Exchange(), 


Critical Paths under _main in COMMON

    None.

Critical Paths under _ISR in COMMON

    _ISR->_NRF_ReadPayload
    _NRF_ReadPayload->i1_NRF_Write_Register
    i1_NRF_Write_Register->i1_SPI_Exchange
    _NRF_Available->_NRF_GetStatus
    _NRF_GetStatus->i1_SPI_Exchange

Critical Paths under _main in BANK0

    _main->_APPL_TASK_10MS
    _NetworkInit->_NRF_OpenReadingPipe
    _NVM_Read_Buff->_NVM_Read
    _NRF_StartListening->_NRF_Write_Register
    _NRF_SetTxAddr->_NRF_Write_Register
    _NRF_SetRFPower->_NRF_Write_Register
    _NRF_SetRFDataRate->_NRF_Write_Register
    _NRF_SetRFChannel->_NRF_Write_Register
    _NRF_SetCRCLen->_NRF_Write_Register
    _NRF_SetAddrWidth->_NRF_Write_Register
    _NRF_SetART->_NRF_Write_Register
    _NRF_OpenReadingPipe->_NRF_PipeEnable
    _NRF_OpenReadingPipe->_NRF_PipeEnableAA
    _NRF_PipeEnableAA->_NRF_Write_Register
    _NRF_PipeEnable->_NRF_Write_Register
    _NRF_Write_Register->___bmul
    _NRF_Read_Register->_SPI_Exchange
    _NRF24L01_Init->_NRF_Set_SPI_Handler
    _NVM_Init->_NVM_Write_Row
    _MCU_Init->_SetPWM1
    _APPL_TASK_10MS->_LinearTransiant
    _deQueue->___lwmod
    _SetPWM1->_deQueue
    _LinearTransiant->___fltol
    _enQueue->___lwmod
    ___fltol->___flmul
    ___flmul->___xxtofl
    ___fldiv->___xxtofl

Critical Paths under _ISR in BANK0

    _ISR->_NRF_ReadPayload

Critical Paths under _main in BANK1

    _APPL_TASK_10MS->_LinearTransiant

Critical Paths under _ISR in BANK1

    None.

Critical Paths under _main in BANK2

    None.

Critical Paths under _ISR in BANK2

    None.

Critical Paths under _main in BANK3

    None.

Critical Paths under _ISR in BANK3

    None.

Critical Paths under _main in BANK4

    None.

Critical Paths under _ISR in BANK4

    None.

Critical Paths under _main in BANK5

    None.

Critical Paths under _ISR in BANK5

    None.

Critical Paths under _main in BANK6

    None.

Critical Paths under _ISR in BANK6

    None.

Call Graph Tables:

 ---------------------------------------------------------------------------------
 (Depth) Function   	        Calls       Base Space   Used Autos Params    Refs
 ---------------------------------------------------------------------------------
 (0) _main                                                 6     6      0   72958
                                              9 BANK1      6     6      0
                     _APPL_TASK_10MS
                          _Appl_Init
                           _MCU_Init
                           _NVM_Init
                        _NetworkInit
                     _NetworkManager
                    _Task_LedManager
 ---------------------------------------------------------------------------------
 (1) _Task_LedManager                                      0     0      0       0
 ---------------------------------------------------------------------------------
 (1) _NetworkManager                                       1     1      0       0
                                              5 BANK0      1     1      0
 ---------------------------------------------------------------------------------
 (1) _NetworkInit                                         12    12      0   60775
                                             35 BANK0     12    12      0
                      _NRF24L01_Init
                _NRF_OpenReadingPipe
                         _NRF_SetART
                   _NRF_SetAddrWidth
                      _NRF_SetCRCLen
                   _NRF_SetRFChannel
                  _NRF_SetRFDataRate
                     _NRF_SetRFPower
                      _NRF_SetTxAddr
                 _NRF_StartListening
                      _NVM_Read_Buff
 ---------------------------------------------------------------------------------
 (2) _NVM_Read_Buff                                        7     3      4     863
                                              7 BANK0      7     3      4
                           _NVM_Read
 ---------------------------------------------------------------------------------
 (2) _NRF_StartListening                                   1     1      0    6370
                                             18 BANK0      1     1      0
                  _NRF_Read_Register
                 _NRF_Write_Register
 ---------------------------------------------------------------------------------
 (2) _NRF_SetTxAddr                                        3     3      0    3859
                                             18 BANK0      3     3      0
                 _NRF_Write_Register
 ---------------------------------------------------------------------------------
 (2) _NRF_SetRFPower                                       5     5      0    6469
                                             18 BANK0      5     5      0
                  _NRF_Read_Register
                 _NRF_Write_Register
 ---------------------------------------------------------------------------------
 (2) _NRF_SetRFDataRate                                    2     2      0    6401
                                             18 BANK0      2     2      0
                  _NRF_Read_Register
                 _NRF_Write_Register
 ---------------------------------------------------------------------------------
 (2) _NRF_SetRFChannel                                     5     5      0    3891
                                             18 BANK0      5     5      0
                 _NRF_Write_Register
 ---------------------------------------------------------------------------------
 (2) _NRF_SetCRCLen                                        2     2      0    6401
                                             18 BANK0      2     2      0
                  _NRF_Read_Register
                 _NRF_Write_Register
 ---------------------------------------------------------------------------------
 (2) _NRF_SetAddrWidth                                     4     4      0    3928
                                             18 BANK0      4     4      0
                 _NRF_Write_Register
 ---------------------------------------------------------------------------------
 (2) _NRF_SetART                                           3     2      1    3944
                                             18 BANK0      3     2      1
                 _NRF_Write_Register
 ---------------------------------------------------------------------------------
 (2) _NRF_OpenReadingPipe                                 13     9      4   18268
                                             22 BANK0     13     9      4
                     _NRF_PipeEnable
                   _NRF_PipeEnableAA
                 _NRF_Write_Register
                             ___bmul
 ---------------------------------------------------------------------------------
 (3) ___bmul                                               4     3      1     196
                                              5 BANK0      4     3      1
 ---------------------------------------------------------------------------------
 (3) _NRF_PipeEnableAA                                     4     4      0    6478
                                             18 BANK0      4     4      0
                  _NRF_Read_Register
                 _NRF_Write_Register
 ---------------------------------------------------------------------------------
 (3) _NRF_PipeEnable                                       4     4      0    6478
                                             18 BANK0      4     4      0
                  _NRF_Read_Register
                 _NRF_Write_Register
 ---------------------------------------------------------------------------------
 (3) _NRF_Write_Register                                   9     6      3    3792
                                              9 BANK0      9     6      3
                   Absolute function *
                       _SPI_Exchange *
                             ___bmul (ARG)
 ---------------------------------------------------------------------------------
 (3) _NRF_Read_Register                                    8     6      2    2578
                                              6 BANK0      8     6      2
                   Absolute function *
                       _SPI_Exchange *
 ---------------------------------------------------------------------------------
 (4) _SPI_Exchange                                         1     0      1     421
                                              5 BANK0      1     0      1
 ---------------------------------------------------------------------------------
 (9) Absolute function(Fake)                               1     0      1       0
 ---------------------------------------------------------------------------------
 (2) _NRF24L01_Init                                        2     0      2     196
                                              7 BANK0      2     0      2
                _NRF_Set_SPI_Handler
 ---------------------------------------------------------------------------------
 (3) _NRF_Set_SPI_Handler                                  2     0      2      98
                                              5 BANK0      2     0      2
 ---------------------------------------------------------------------------------
 (1) _NVM_Init                                            35    35      0    1012
                                             12 BANK0     35    35      0
                           _NVM_Read
                      _NVM_Write_Row
 ---------------------------------------------------------------------------------
 (2) _NVM_Write_Row                                        7     3      4     450
                                              5 BANK0      7     3      4
                         _NWM_Unlock
 ---------------------------------------------------------------------------------
 (3) _NWM_Unlock                                           0     0      0       0
 ---------------------------------------------------------------------------------
 (3) _NVM_Read                                             2     0      2     272
                                              5 BANK0      2     0      2
 ---------------------------------------------------------------------------------
 (1) _MCU_Init                                             0     0      0     392
                            _SetPWM1
                            _SetPWM2
 ---------------------------------------------------------------------------------
 (1) _Appl_Init                                            0     0      0       0
                          _QueueInit
 ---------------------------------------------------------------------------------
 (2) _QueueInit                                            0     0      0       0
 ---------------------------------------------------------------------------------
 (1) _APPL_TASK_10MS                                       5     5      0   10668
                                             63 BANK0      5     5      0
                        _Get_PWM1Cmd
                        _Get_PWM2Cmd
                         _Get_Slope1
                       _KeepDistance
                    _LinearTransiant
                            _SetPWM1
                            _SetPWM2
                            _deQueue
                            _enQueue
 ---------------------------------------------------------------------------------
 (2) _deQueue                                              4     4      0     629
                                             11 BANK0      4     4      0
                            _IsEmpty
                            ___lwmod
 ---------------------------------------------------------------------------------
 (3) _IsEmpty                                              0     0      0       0
 ---------------------------------------------------------------------------------
 (2) _SetPWM2                                              4     2      2     196
                                              5 BANK0      4     2      2
 ---------------------------------------------------------------------------------
 (2) _SetPWM1                                              4     2      2     196
                                             15 BANK0      4     2      2
                            _deQueue (ARG)
 ---------------------------------------------------------------------------------
 (2) _LinearTransiant                                     16    14      2    8785
                                             56 BANK0      7     5      2
                                              0 BANK1      9     9      0
                            ___fldiv
                            ___flmul
                            ___fltol
                           ___xxtofl
                            _enQueue
 ---------------------------------------------------------------------------------
 (2) _enQueue                                              5     5      0     660
                                             11 BANK0      5     5      0
                             _IsFull
                            ___lwmod
 ---------------------------------------------------------------------------------
 (3) ___lwmod                                              6     2      4     592
                                              5 BANK0      6     2      4
 ---------------------------------------------------------------------------------
 (3) _IsFull                                               3     3      0      37
                                              5 BANK0      3     3      0
 ---------------------------------------------------------------------------------
 (3) ___xxtofl                                            14    10      4    1016
                                              5 BANK0     14    10      4
 ---------------------------------------------------------------------------------
 (3) ___fltol                                             11     7      4     517
                                             45 BANK0     11     7      4
                            ___flmul (ARG)
                           ___xxtofl (ARG)
 ---------------------------------------------------------------------------------
 (3) ___flmul                                             26    18      8    3533
                                             19 BANK0     26    18      8
                          __Umul8_16
                           ___xxtofl (ARG)
 ---------------------------------------------------------------------------------
 (4) __Umul8_16                                            9     7      2     980
                                              5 BANK0      9     7      2
 ---------------------------------------------------------------------------------
 (3) ___fldiv                                             26    18      8    2043
                                             19 BANK0     26    18      8
                           ___xxtofl (ARG)
 ---------------------------------------------------------------------------------
 (2) _KeepDistance                                         5     5      0      69
                                              5 BANK0      5     5      0
 ---------------------------------------------------------------------------------
 (2) _Get_Slope1                                           0     0      0       0
 ---------------------------------------------------------------------------------
 (2) _Get_PWM2Cmd                                          0     0      0       0
 ---------------------------------------------------------------------------------
 (2) _Get_PWM1Cmd                                          0     0      0       0
 ---------------------------------------------------------------------------------
 Estimated maximum stack depth 9
 ---------------------------------------------------------------------------------
 (Depth) Function   	        Calls       Base Space   Used Autos Params    Refs
 ---------------------------------------------------------------------------------
 (6) _ISR                                                  3     3      0    1324
                                              2 BANK0      3     3      0
                           _ClickLed
                      _NRF_Available
                    _NRF_ReadPayload
 ---------------------------------------------------------------------------------
 (7) _NRF_ReadPayload                                      6     5      1     915
                                             10 COMMON     4     3      1
                                              0 BANK0      2     2      0
                   Absolute function *
               i1_NRF_Write_Register
                     i1_SPI_Exchange *
 ---------------------------------------------------------------------------------
 (8) i1_NRF_Write_Register                                 9     6      3     453
                                              1 COMMON     9     6      3
                   Absolute function *
                     i1_SPI_Exchange *
 ---------------------------------------------------------------------------------
 (7) _NRF_Available                                        2     2      0     243
                                              3 COMMON     2     2      0
                      _NRF_GetStatus
 ---------------------------------------------------------------------------------
 (8) _NRF_GetStatus                                        2     2      0     206
                                              1 COMMON     2     2      0
                   Absolute function *
                     i1_SPI_Exchange *
 ---------------------------------------------------------------------------------
 (8) i1_SPI_Exchange                                       1     0      1     206
                                              0 COMMON     1     0      1
 ---------------------------------------------------------------------------------
 (9) Absolute function(Fake)                               1     0      1       0
 ---------------------------------------------------------------------------------
 (7) _ClickLed                                             2     0      2      98
                                              0 COMMON     2     0      2
 ---------------------------------------------------------------------------------
 Estimated maximum stack depth 9
 ---------------------------------------------------------------------------------

 Call Graph Graphs:

 _main (ROOT)
   _APPL_TASK_10MS
     _Get_PWM1Cmd
     _Get_PWM2Cmd
     _Get_Slope1
     _KeepDistance
     _LinearTransiant
       ___fldiv
         ___xxtofl (ARG)
       ___flmul
         __Umul8_16
         ___xxtofl (ARG)
       ___fltol
         ___flmul (ARG)
           __Umul8_16
           ___xxtofl (ARG)
         ___xxtofl (ARG)
       ___xxtofl
       _enQueue
         _IsFull
         ___lwmod
     _SetPWM1
       _deQueue (ARG)
         _IsEmpty
         ___lwmod
     _SetPWM2
     _deQueue
       _IsEmpty
       ___lwmod
     _enQueue
       _IsFull
       ___lwmod
   _Appl_Init
     _QueueInit
   _MCU_Init
     _SetPWM1
       _deQueue (ARG)
         _IsEmpty
         ___lwmod
     _SetPWM2
   _NVM_Init
     _NVM_Read
     _NVM_Write_Row
       _NWM_Unlock
   _NetworkInit
     _NRF24L01_Init
       _NRF_Set_SPI_Handler
     _NRF_OpenReadingPipe
       _NRF_PipeEnable
         _NRF_Read_Register
           Absolute function(Fake) *
           _SPI_Exchange *
         _NRF_Write_Register
           Absolute function(Fake) *
           _SPI_Exchange *
           ___bmul (ARG) *
       _NRF_PipeEnableAA
         _NRF_Read_Register
           Absolute function(Fake) *
           _SPI_Exchange *
         _NRF_Write_Register
           Absolute function(Fake) *
           _SPI_Exchange *
           ___bmul (ARG) *
       _NRF_Write_Register
         Absolute function(Fake) *
         _SPI_Exchange *
         ___bmul (ARG) *
       ___bmul
     _NRF_SetART
       _NRF_Write_Register
         Absolute function(Fake) *
         _SPI_Exchange *
         ___bmul (ARG) *
     _NRF_SetAddrWidth
       _NRF_Write_Register
         Absolute function(Fake) *
         _SPI_Exchange *
         ___bmul (ARG) *
     _NRF_SetCRCLen
       _NRF_Read_Register
         Absolute function(Fake) *
         _SPI_Exchange *
       _NRF_Write_Register
         Absolute function(Fake) *
         _SPI_Exchange *
         ___bmul (ARG) *
     _NRF_SetRFChannel
       _NRF_Write_Register
         Absolute function(Fake) *
         _SPI_Exchange *
         ___bmul (ARG) *
     _NRF_SetRFDataRate
       _NRF_Read_Register
         Absolute function(Fake) *
         _SPI_Exchange *
       _NRF_Write_Register
         Absolute function(Fake) *
         _SPI_Exchange *
         ___bmul (ARG) *
     _NRF_SetRFPower
       _NRF_Read_Register
         Absolute function(Fake) *
         _SPI_Exchange *
       _NRF_Write_Register
         Absolute function(Fake) *
         _SPI_Exchange *
         ___bmul (ARG) *
     _NRF_SetTxAddr
       _NRF_Write_Register
         Absolute function(Fake) *
         _SPI_Exchange *
         ___bmul (ARG) *
     _NRF_StartListening
       _NRF_Read_Register
         Absolute function(Fake) *
         _SPI_Exchange *
       _NRF_Write_Register
         Absolute function(Fake) *
         _SPI_Exchange *
         ___bmul (ARG) *
     _NVM_Read_Buff
       _NVM_Read
   _NetworkManager
   _Task_LedManager

 _ISR (ROOT)
   _ClickLed
   _NRF_Available
     _NRF_GetStatus
       Absolute function(Fake) *
       i1_SPI_Exchange *
   _NRF_ReadPayload
     Absolute function(Fake) *
     i1_NRF_Write_Register *
       Absolute function(Fake) *
       i1_SPI_Exchange *
     i1_SPI_Exchange *

 Address spaces:
Name               Size   Autos  Total    Cost      Usage
BIGRAM             1F0      0       0       0        0.0%
NULL                 0      0       0       0        0.0%
CODE                 0      0       0       0        0.0%
BITCOMMON            E      0       0       1        0.0%
BITSFR0              0      0       0       1        0.0%
SFR0                 0      0       0       1        0.0%
COMMON               E      E       E       2      100.0%
BITSFR1              0      0       0       2        0.0%
SFR1                 0      0       0       2        0.0%
BITSFR2              0      0       0       3        0.0%
SFR2                 0      0       0       3        0.0%
STACK                0      0       0       3        0.0%
BITSFR3              0      0       0       4        0.0%
SFR3                 0      0       0       4        0.0%
ABS                  0      0      EA       4        0.0%
BITBANK0            50      0       0       5        0.0%
BITSFR4              0      0       0       5        0.0%
SFR4                 0      0       0       5        0.0%
BANK0               50     44      49       6       91.2%
BITSFR5              0      0       0       6        0.0%
SFR5                 0      0       0       6        0.0%
BITBANK1            50      0       0       7        0.0%
BITSFR6              0      0       0       7        0.0%
SFR6                 0      0       0       7        0.0%
BANK1               50      F      4F       8       98.8%
BITSFR7              0      0       0       8        0.0%
SFR7                 0      0       0       8        0.0%
BITBANK2            50      0       0       9        0.0%
BITSFR8              0      0       0       9        0.0%
SFR8                 0      0       0       9        0.0%
BANK2               50      0      44      10       85.0%
BITSFR9              0      0       0      10        0.0%
SFR9                 0      0       0      10        0.0%
BITBANK3            50      0       0      11        0.0%
BITSFR10             0      0       0      11        0.0%
SFR10                0      0       0      11        0.0%
BANK3               50      0       0      12        0.0%
BITSFR11             0      0       0      12        0.0%
SFR11                0      0       0      12        0.0%
BITBANK4            50      0       0      13        0.0%
BITSFR12             0      0       0      13        0.0%
SFR12                0      0       0      13        0.0%
BANK4               30      0       0      14        0.0%
BITSFR13             0      0       0      14        0.0%
SFR13                0      0       0      14        0.0%
BITBANK5            50      0       0      15        0.0%
BITSFR14             0      0       0      15        0.0%
SFR14                0      0       0      15        0.0%
BITSFR15             0      0       0      16        0.0%
SFR15                0      0       0      16        0.0%
BANK5                0      0       0      16        0.0%
BITBANK6            10      0       0      17        0.0%
BITSFR16             0      0       0      17        0.0%
SFR16                0      0       0      17        0.0%
BITSFR17             0      0       0      18        0.0%
SFR17                0      0       0      18        0.0%
BANK6                0      0       0      18        0.0%
BITSFR18             0      0       0      19        0.0%
SFR18                0      0       0      19        0.0%
DATA                 0      0      EA      19        0.0%
BITSFR19             0      0       0      20        0.0%
SFR19                0      0       0      20        0.0%
BITSFR20             0      0       0      21        0.0%
SFR20                0      0       0      21        0.0%
BITSFR21             0      0       0      22        0.0%
SFR21                0      0       0      22        0.0%
BITSFR22             0      0       0      23        0.0%
SFR22                0      0       0      23        0.0%
BITSFR23             0      0       0      24        0.0%
SFR23                0      0       0      24        0.0%
BITSFR24             0      0       0      25        0.0%
SFR24                0      0       0      25        0.0%
BITSFR25             0      0       0      26        0.0%
SFR25                0      0       0      26        0.0%
BITSFR26             0      0       0      27        0.0%
SFR26                0      0       0      27        0.0%
BITSFR27             0      0       0      28        0.0%
SFR27                0      0       0      28        0.0%
BITSFR28             0      0       0      29        0.0%
SFR28                0      0       0      29        0.0%
BITSFR29             0      0       0      30        0.0%
SFR29                0      0       0      30        0.0%
BITSFR30             0      0       0      31        0.0%
SFR30                0      0       0      31        0.0%
BITSFR31             0      0       0      32        0.0%
SFR31                0      0       0      32        0.0%


Microchip Technology PIC Macro Assembler V2.31 build 20201012212115 
Symbol Table                                                                                   Thu Apr 22 00:16:49 2021

                      _NWM_Unlock 171E                      ___fldiv@aexp 004C                      ___fldiv@bexp 004B  
                    ___fldiv@sign 0044                ??_NRF_SetAddrWidth 0032                    ___bmul@product 0027  
         NRF_Write_Register@Bytes 0029                                l70 1732                                l62 1758  
                              l82 0CA6                                l67 0B37                                l59 170B  
                              l77 09B3                                l88 0C55             NRF_SetTxAddr@PipeAddr 0034  
             __end_of_Get_PWM1Cmd 1700               __end_of_Get_PWM2Cmd 1703               __Umul8_16@word_mpld 002B  
        NRF_Write_Register@Length 002B                               l101 07DF                               l110 088C  
                             l120 0D5A                               l220 09E5                               l205 07FD  
                             l213 0A81                               l214 0A85                               l208 173E  
                             l219 09E3                               l180 1702                               l252 0823  
                             l172 0ABD                               l165 0EBB                               l422 17DE  
                             l246 0F52                               l174 0ABF                               l183 1705  
                             l431 1766                               l440 1776                               l416 0DB8  
                             l177 16FF                               l425 07F7                               l409 0B76  
                             l273 0910                               l281 0AFA                               l249 17B0  
                             l169 0A9A                               l258 0846                               l290 09FF  
                             l274 0925                               l291 0A18                               l267 08D4  
                             l460 0C05                               l428 1761                               l284 0951  
                             l294 08FB                               l446 0869                               l449 1726  
                             l297 17FF                               l458 0BFD                               l731 0E2D  
                             l563 17C6                               l741 0E2D                               l910 0600  
                             l738 0E18                               l915 064C                               l827 0A4D  
                             l916 0666                               l940 0246                               l918 0675  
                             l934 02CA                               l953 08A0                               l946 02BE  
                             l955 08B0                               l980 0FFF                               l894 0522  
                             l991 0FCB                               l896 067E                               l992 0FD7  
                             l984 0FB1                 ?_NRF_PipeEnableAA 0070                               l978 0F76  
                             _PR2 001B                               _ISR 0004                  SPI_Exchange@Data 0025  
        NRF_Write_Register@Status 0030        __size_of_NRF_Read_Register 0032                      main@Task10ms 00E9  
                             wreg 0009                ??_NRF_PipeEnableAA 0032                      ___flmul@aexp 0041  
                    ___flmul@bexp 0046         i1NRF_Write_Register@Bytes 0071                      ___flmul@sign 0040  
                    ___flmul@temp 004B                      ___flmul@prod 0047                   ?_NetworkManager 0070  
                  _Click_Duration 00BA                     _NRF24L01_Init 1733                              ?_ISR 0070  
                    ___fltol@exp1 0057                              l2041 1765                              l3101 0A76  
                            l2127 1727                              l2039 175D                              l3111 09B7  
                            l3103 0A7B                              l3201 0DF8                              l2161 1772  
                            l2153 1767                              l3121 09DD                              l3113 09B9  
                            l3105 0A83                              l3211 0E1D                              l3203 0E08  
                            l3131 0A2C                              l3123 0A19                              l2163 1773  
                            l2155 1769                              l2171 1723                              l2139 07F8  
                            l3115 09C3                              l3301 05C7                              l3221 04D9  
                            l3213 0E22                              l3133 0A30                              l3125 0A20  
                            l3141 0A49                              l2165 1774                              l2157 176D  
                            l2173 1724                              l3117 09C6                              l3109 09B6  
                            l2181 17B8                              l3311 05DC                              l3303 05C9  
                            l3231 04ED                              l3223 04DA                              l3215 04CB  
                            l3151 089C                              l3135 0A3A                              l3127 0A23  
                            l2159 1771                              l2175 1725                              l3119 09D9  
                            l2183 17BC                              l3321 05FD                              l3305 05D0  
                            l3313 05E0                              l3241 0504                              l3225 04DF  
                            l3233 04EF                              l3217 04D1                              l3153 08A7  
                            l3145 088F                              l3401 00E9                              l3209 0E0F  
                            l3081 0B16                              l3137 0A3E                              l3129 0A28  
                            l3161 0C60                              l2169 171E                              l2185 17BE  
                            l2177 17B3                              l3331 0616                              l3315 05E4  
                            l3307 05D4                              l3251 0518                              l3243 0505  
                            l3235 04F7                              l3227 04E4                              l3219 04D5  
                            l3155 08AC                              l3147 0891                              l3411 0144  
                            l3403 00F6                              l3083 0B1D                              l3139 0A43  
                            l3163 0C75                              l3091 0A50                              l3171 0819  
                            l2187 17C5                              l2179 17B4                              l3341 065D  
                            l3333 062E                              l3325 0605                              l3317 05E5  
                            l3309 05D5                              l3245 050A                              l3253 051A  
                            l3237 04FC                              l3229 04EC                              l3149 0898  
                            l3421 0179                              l3413 0151                              l3405 0110  
                            l3181 0DC5                              l3501 0F6E                              l3085 0B34  
                            l3077 0AFB                              l3165 0C91                              l3093 0A51  
                            l3173 0826                              l3343 0665                              l3327 060A  
                            l3335 0632                              l3319 05E9                              l3271 0561  
                            l3255 052A                              l3263 0543                              l3247 050F  
                            l3239 0500                              l3431 01BC                              l3423 0180  
                            l3415 0158                              l3407 011D                              l3191 0DEA  
                            l3511 0F97                              l3503 0F7E                              l3087 0B36  
                            l3079 0AFE                              l3159 0C58                              l3095 0A53  
                            l3167 0803                              l3175 0830                              l2625 16FD  
                            l2633 1700                              l2561 0987                              l3345 066B  
                            l3337 063F                              l3329 0612                              l3281 0580  
                            l3273 0569                              l3265 0548                              l3257 0536  
                            l3249 0517                              l3441 020F                              l3433 01D0  
                            l3425 0194                              l3417 0165                              l3409 0137  
                            l3361 0082                              l3193 0DEC                              l3185 0DCE  
                            l3521 0FC1                              l3513 0F9E                              l2801 0B3B  
                            l3097 0A62                              l3169 080D                              l3177 083C  
                            l3601 08C4                              l2641 0847                              l2563 099A  
                            l3347 066F                              l3339 065A                              l3291 05AC  
                            l3283 058E                              l3275 0571                              l3259 053A  
                            l3443 0216                              l3451 0226                              l3435 01E5  
                            l3427 019B                              l3419 016C                              l3371 0097  
                            l3363 0083                              l3355 0074                              l3195 0DF0  
                            l3187 0DE1                              l3179 0DB9                              l3531 0FF2  
                            l3523 0FC5                              l3515 0FA2                              l3507 0F87  
                            l2811 0B45                              l2803 0B3D                              l2651 173B  
                            l3099 0A64                              l3611 0A08                              l3603 09E8  
                            l2643 084B                              l2629 1703                              l2565 09A4  
                            l3349 0671                              l3293 05AD                              l3285 0592  
                            l3277 0579                              l3269 0551                              l3453 022A  
                            l3445 021A                              l3437 01FC                              l3429 01AF  
                            l3381 00AD                              l3373 009F                              l3365 0088  
                            l3357 007A                              l3189 0DE2                              l3533 0FF6  
                            l3525 0FCF                              l3517 0FAA                              l3509 0F8C  
                            l2637 17C7                              l2557 174B                              l2821 0B51  
                            l2813 0B47                              l2805 0B3F                              l2653 173D  
                            l3605 09F2                              l3613 0928                              l3621 0ACC  
                            l2645 085F                              l2901 0870                              l2567 09AF  
                            l2559 0985                              l3295 05B5                              l3287 0593  
                            l3279 057B                              l3471 0274                              l3463 024B  
                            l3455 022B                              l3447 021B                              l3439 0203  
                            l3391 00C9                              l3383 00B2                              l3375 00A4  
                            l3367 008D                              l3359 007E                              l3535 0FF7  
                            l3527 0FD9                              l3519 0FB8                              l2639 07E0  
                            l3551 0C23                              l2831 0B5F                              l2823 0B54  
                            l2815 0B49                              l2807 0B40                              l2751 0BBA  
                            l3607 09F8                              l3631 08FE                              l3615 0932  
                            l3623 0AD3                              l2647 0863                              l3711 0E62  
                            l2911 088B                              l2903 0871                              l2569 09B1  
                            l3289 059A                              l3297 05B9                              l3481 02A6  
                            l3465 0250                              l3473 0278                              l3457 022F  
                            l3449 0222                              l3393 00CE                              l3385 00B7  
                            l3377 00A8                              l3369 0095                              l3529 0FED  
                            l3561 0681                              l3553 0C2E                              l3545 0C06  
                            l2841 0B6F                              l2833 0B66                              l2825 0B55  
                            l2817 0B4C                              l2809 0B42                              l2761 0BD4  
                            l2753 0BC0                              l2649 1733                              l3641 0EC5  
                            l3609 09FB                              l3633 0904                              l3617 0941  
                            l3625 0ADB                              l3721 0E7A                              l3713 0E6A  
                            l3705 0E2E                              l2921 0AA5                              l2913 0A86  
                            l2905 0873                              l3801 0CF5                              l3299 05BF  
                            l3491 02C2                              l3483 02A8                              l3475 0285  
                            l3467 0258                              l3459 0243                              l3395 00D3  
                            l3387 00BF                              l3379 00AC                              l3571 06DF  
                            l3563 0688                              l3555 0C37                              l3547 0C08  
                            l2843 0B72                              l2835 0B69                              l2827 0B57  
                            l2819 0B4E                              l2771 0BE2                              l2763 0BD5  
                            l2755 0BCC                              l2851 0D5B                              l3651 0EFC  
                            l3643 0ED6                              l3635 090C                              l3627 0ADF  
                            l3619 0AC2                              l3731 0EAC                              l3723 0E7E  
                            l3715 0E6E                              l3707 0E43                              l2915 0A8B  
                            l2907 087B                              l3485 02B5                              l3477 028F  
                            l3469 025C                              l3389 00C1                              l3573 0720  
                            l3565 0690                              l3581 0737                              l3549 0C10  
                            l3557 0C53                              l3741 0D1F                              l2845 0B73  
                            l2837 0B6B                              l2829 0B59                              l2781 0C02  
                            l2773 0BE5                              l2765 0BD6                              l2757 0BCD  
                            l2749 0BB8                              l2861 0DA9                              l2853 0D63  
                            l3661 0F16                              l3653 0F01                              l3645 0ED8  
                            l3637 0915                              l3629 0AEA                              l3733 0EAF  
                            l3725 0E8F                              l3717 0E72                              l3709 0E52  
                            l2917 0A98                              l2909 0886                              l3487 02B9  
                            l3479 029D                              l3399 00DC                              l3495 0F55  
                            l3591 07CD                              l3583 0740                              l3575 0724  
                            l3567 0697                              l3743 0D24                              l2847 0B74  
                            l2839 0B6E                              l2783 0C04                              l2775 0BEA  
                            l2767 0BD8                              l2759 0BD0                              l2855 0D6E  
                            l3663 0F1E                              l3655 0F05                              l3647 0EF2  
                            l3639 0EBE                              l3671 08D7                              l3735 0EB5  
                            l3727 0E9F                              l3719 0E76                              l2919 0A9E  
                            l3489 02BA                              l3497 0F5A                              l3593 07D3  
                            l3585 0785                              l3577 072A                              l3569 06DC  
                            l3745 0D2D                              l3737 0CFE                              l2849 0B75  
                            l2769 0BE1                              l2777 0BF6                              l2857 0D7A  
                            l3665 0F22                              l3657 0F0B                              l3649 0EF6  
                            l3673 08EB                              l3681 17FD                              l3729 0EA3  
                            l3499 0F5E                              l3595 07DB                              l3587 0788  
                            l3579 0732                              l3747 0D32                              l3739 0D13  
                            l2779 0BFF                              l2859 0DA3                              l3667 0F38  
                            l3659 0F0F                              l3675 17DF                              l3589 07C9  
                            l3749 0D47                              l3597 08B3                              l3669 179F  
                            l3677 17EA                              l3781 0CB7                              l2895 1706  
                            l2799 0B38                              l3599 08BD                              l3679 17EC  
                            l3791 0CD1                              l3783 0CBA                              l2897 1708  
                            l3793 0CD7                              l3785 0CBD                              l3777 0CA7  
                            l2899 086A                              l3795 0CDA                              l3787 0CC0  
                            l3779 0CB4                              l3797 0CE5                              l3789 0CC3  
                            l3799 0CEB                              u3100 0A20                              u3101 0A1F  
                            u4000 0FE3                              u3120 0A30                              u3200 0C6A  
                            u1520 1765                              u3121 0A2F                              u3201 0C68  
                            u1521 1764                              u4010 0FF2                              u3050 0B16  
                            u3130 0A3A                              u3210 0C6B                              u4011 0FF1  
                            u3051 0B15                              u3131 0A39                              u3115 0A24  
                            u3300 0E0E                              u4020 0FF6                              u3060 0B1D  
                            u4100 09EE                              u3301 0E0D                              u4021 0FF5  
                            u4005 0FDF                              u3061 0B1C                              u4101 09EC  
                            u3070 0B34                              u3150 0A49                              u4110 09EF  
                            u3071 0B33                              u3055 0B12                              u3151 0A48  
                            u3135 0A36                              u3400 052A                              u3160 089C  
                            u3320 0E1D                              u3240 0DC5                              u4040 0C10  
                            u3080 0A81                              u3224 0813                              u4120 09F8  
                            u4200 0E36                              u3401 0529                              u3161 089B  
                            u3321 0E1C                              u3241 0DC4                              u3145 0A3F  
                            u4041 0C0F                              u3081 0A80                              u3225 0812  
                            u4121 09F7                              u3410 0548                              u3330 0E22  
                            u3250 0DDB                              u4050 0C2E                              u3090 09E3  
                            u3234 0836                              u4130 0AD3                              u4210 0E40  
                            u3411 0547                              u3331 0E21                              u3315 0E10  
                            u3075 0B30                              u4051 0C2D                              u3091 09E2  
                            u3235 0835                              u4131 0AD2                              u3420 0580  
                            u3340 04D9                              u3180 08AC                              u3260 0DF0  
                            u4060 0688                              u4220 0D2D                              u1740 17B8  
                            u4140 0904                              u3421 057F                              u3341 04D8  
                            u3181 08AB                              u3261 0DEF                              u4061 0687  
                            u4221 0D2C                              u1741 17B7                              u4141 0903  
                            u3510 05D4                              u3350 04DF                              u3270 0DF7  
                            u3190 0C60                              u4070 0690                              u1670 1731  
                            u1750 17C5                              u4150 0EFC                              u3511 05D3  
                            u3351 04DE                              u3175 08A1                              u3271 0DF6  
                            u3255 0DD7                              u3191 0C5F                              u4071 068F  
                            u1671 172F                              u4055 0C2A                              u1751 17C4  
                            u4151 0EFB                              u2560 099A                              u3600 063F  
                            u3360 04E4                              u4080 0732                              u1680 1732  
                            u2800 0BFD                              u4160 0F01                              u2561 0999  
                            u3601 063E                              u3505 05CA                              u3361 04E3  
                            u4081 0731                              u2801 0BFC                              u4161 0F00  
                            u2570 09AF                              u3610 065A                              u3530 05E4  
                            u3450 0592                              u3370 0504                              u3290 0E07  
                            u4090 07DB                              u4170 0F0B                              u4250 0CD1  
                            u2571 09AE                              u3611 0659                              u3531 05E3  
                            u3451 0591                              u3435 0581                              u3371 0503  
                            u3291 0E06                              u4091 07DA                              u4171 0F0A  
                            u4251 0CD0                              u3620 066F                              u3540 05E9  
                            u3380 050A                              u3700 00D3                              u2820 0D6B  
                            u4180 0F16                              u2660 0869                              u2900 0A9E  
                            u4260 0CE5                              u2565 0996                              u3621 066E  
                            u3605 063B                              u3541 05E8                              u3525 05D6  
                            u3445 0588                              u3381 0509                              u3701 00D2  
                            u3285 0DF9                              u2645 17CB                              u4181 0F15  
                            u2661 0868                              u2901 0A9D                              u4261 0CE4  
                            u3550 05FD                              u3470 05AC                              u3390 050F  
                            u3630 0082                              u2830 0D7A                              u2910 0AA5  
                            u4270 0CF5                              u2575 09AB                              u3615 0656  
                            u3551 05FC                              u3471 05AB                              u3391 050E  
                            u3631 0081                              u2655 07E4                              u2831 0D79  
                            u2911 0AA4                              u4271 0CF4                              u4255 0CCD  
                            u3560 0604                              u3480 05BF                              u3800 022F  
                            u3640 0088                              u2760 0BC0                              u3561 0603  
                            u3481 05BE                              u3465 0594                              u3801 022E  
                            u3641 0087                              u2761 0BBF                              u4265 0CE1  
                            u3570 060A                              u3490 05C7                              u3810 0243  
                            u3730 01DB                              u3650 008D                              u2770 0BCC  
                            u3571 0609                              u3491 05C6                              u3475 05A8  
                            u3811 0242                              u3715 0152                              u3651 008C  
                            u2771 0BCB                              u4275 0CF1                              u3580 0616  
                            u3820 024A                              u3740 01F2                              u3660 00AC  
                            u3900 0F5E                              u2780 0BF1                              u2860 0870  
                            u3581 0615                              u3821 0249                              u3725 0181  
                            u3661 00AB                              u3901 0F5D                              u2781 0BEF  
                            u2861 086F                              u3590 0624                              u3830 0250  
                            u3670 00B2                              u3910 0F7E                              u2790 0BF2  
                            u2870 0886                              u3831 024F                              u3735 01D7  
                            u3671 00B1                              u3911 0F7D                              u2871 0885  
                            u3840 025C                              u3680 00B7                              u2880 088B  
                            u3841 025B                              u3745 01EE                              u3681 00B6  
                            u2881 088A                              u3850 026A                              u3770 021A  
                            u3690 00CE                              u3930 0F9D                              u2890 0A8B  
                            u3595 0620                              u3771 0219                              u3755 01FD  
                            u3691 00CD                              u3931 0F9C                              u2891 0A8A  
                            u2875 0882                              u3860 0285                              u3861 0284  
                            u3765 0210                              u3925 0F91                              u3870 029D  
                            u3790 022A                              u3950 0FB7                              u3871 029C  
                            u3855 0266                              u3791 0229                              u3951 0FB6  
                            u3880 02B9                              u3881 02B8                              u3865 0281  
                            u3785 021C                              u3945 0FAB                              u3970 0FC5  
                            u3890 0F5A                              u3875 0299                              u3971 0FC4  
                            u3891 0F59                              u3980 0FCB                              u3981 0FCA  
                            u3965 0FBB                              u3990 0FCF                              u3991 0FCE  
                            _TMR0 0015                              _main 0CA7                              fsr0h 0005  
                            fsr1h 0007                              indf0 0000                              fsr0l 0004  
                            indf1 0001                              fsr1l 0006                              btemp 007E  
                   main@Task100ms 00EB                              start 0047                   ___fldiv@new_exp 0045  
                  ?_NVM_Write_Row 0025                 ___bmul@multiplier 0028                   __end_of_IsEmpty 1733  
      i1NRF_Write_Register@Length 0073                    i1_SPI_Exchange 1715                             ??_ISR 0022  
                 __end_of_SetPWM1 17DF                   __end_of_SetPWM2 07F8                        _IsFull$130 0027  
                      _Get_Slope1 1703                     ___fltol@sign1 0056                             ?_main 0070  
                ?_Task_LedManager 0070                   __end_of___fldiv 067F                   __end_of___flmul 02CB  
                 __end_of___fltol 0E2E                             _T2CON 001C                             _IOCAF 0393  
                           _IOCAN 0392                             _IOCIF 0058                             i1l113 1714  
                __end_of_MCU_Init 0B77                             i1l213 0980                             i1l214 0982  
                           i1l304 179C                             i1l225 0BA9                             i1l226 0BB7  
                           i1l307 1789                             i1l431 171D                   __end_of___lwmod 0A4E  
                           i1l428 1718                             i1l465 0014                             i1l469 0045  
           i1NRF_Write_Register@i 0079                   __end_of_deQueue 0C56                       ?_NRF_SetART 0032  
                           _TRISA 008C                             _TRISB 008D                             _TRISC 008E  
                 __end_of_gamma10 04CB                             _Click 0068                     NVM_Init@F3693 0120  
                 __end_of_enQueue 0CA7                    ?_NRF24L01_Init 0027     __size_ofi1_NRF_Write_Register 0031  
    __size_of_NRF_Set_SPI_Handler 0006                    main@Task1000ms 00ED                  __end_of_NVM_Init 0DB9  
                __end_of_NVM_Read 1777                             pclath 000A                   ??_NVM_Read_Buff 002B  
                           status 0003    NRF_Set_SPI_Handler@SPI_Handler 0025                             wtemp0 007E  
                __end_of_ClickLed 1715        __size_of_NRF_SetRFDataRate 002C            __end_ofi1_SPI_Exchange 171E  
              NVM_Read_Buff@RBuff 0029                       _Get_PWM1Cmd 16FD                       _Get_PWM2Cmd 1700  
                 __initialization 0049                       ?_NWM_Unlock 0070               NVM_Write_Row@Length 0028  
                    __end_of_main 0CFE              __end_of_KeepDistance 09B4                            ??_main 0064  
        __size_of_LinearTransiant 0161                __size_of_Appl_Init 0006                     ??_NetworkInit 0043  
           NetworkInit@ModuleAddr 004A            NVM_Write_Row@WriteBuff 0027              NRF_PipeEnable@PipeNo 0034  
                          _ADCON0 009D                            _ADCON1 009E                            _ADRESH 009C  
                          _ADRESL 009B           __size_of_NRF_SetRFPower 003B                            _ANSELA 018C  
                          _ANSELB 018D                            _ANSELC 018E             __end_of_NRF_Available 179D  
                  enQueue@element 002F            NRF_ReadPayload@Payload 0020                            i1l3541 171C  
                          i1l3701 0976                            i1l3703 097A                            i1l3539 1715  
           __end_of_NRF_GetStatus 178A                            i1l3751 0B79                            i1l2937 170C  
                          i1l3761 0BA3                            i1l3753 0B7B                            i1l2939 170F  
                          i1l3683 1777                            i1l3771 1796                            i1l3691 0953  
                          i1l3763 0BAD                            i1l3755 0B89                            i1l3851 0006  
                          i1l3685 1779                            i1l3773 179B                            i1l3765 178A  
                          i1l3693 0954                            i1l3757 0B8C                            i1l3861 0026  
                          i1l3853 0006                            i1l3687 1787                            i1l3767 178E  
                          i1l3695 0956                            i1l3759 0B9F                            i1l3863 0036  
                          i1l3855 000A                            i1l3769 1791                            i1l3697 0961  
                          i1l3865 0042                            i1l3857 0012                            i1l3699 0963  
                          i1l3867 0044                            i1l3859 0018                            u403_20 171C  
                          u403_21 171B                            u423_20 0BA9                            u431_20 000A  
                          u423_21 0BA8                            u431_21 0009                            u424_20 1796  
                          u432_20 0018                            u424_21 1795                            u432_21 0017  
                          _PMADRH 0192                            _PMADRL 0191                            u433_25 002D  
                          u434_24 003C                            _PMDATH 0194                            u434_25 003B  
                          u419_20 0980                            _PMDATL 0193                            u419_21 097F  
                          _PMCON2 0196           __size_of_NRF_PipeEnable 0023                            _OSCCON 0099  
                          _TMR0IF 005A                         ??_IsEmpty 0025                   ??_NVM_Write_Row 0029  
                __end_of___xxtofl 1000                            _DataTx 00A0                            _IsFull 0AFB  
                       ??_SetPWM1 0031                         ??_SetPWM2 0027                   ?i1_SPI_Exchange 0070  
                NRF_PipeEnable@EN 0035               __size_of_NRF_SetART 0027                            _Slope1 00BF  
                          _Slope2 00BE                            ___bmul 17B1             __end_of_NRF_SetCRCLen 08D5  
                       ??___fldiv 003B                         ??___flmul 003B                         ??___fltol 0051  
              _p_NRF_SPI_Exchange 0064                i1SPI_Exchange@Data 0070                         ??___lwmod 0029  
                       ??_deQueue 002B           __size_of_APPL_TASK_10MS 005D                       ?_Get_Slope1 0070  
                       ??_enQueue 002B              NRF_SetRFPower@RF_Pow 0036       __size_of_NRF_Write_Register 0038  
                 ??_NRF24L01_Init 0029             __end_of_NRF_SetTxAddr 17B1                __size_of__Umul8_16 0024  
       NRF_SetRFDataRate@Datarate 0033                __size_of_QueueInit 000E       NRF_OpenReadingPipe@PipeAddr 0036  
              _NRF_StartListening 17DF               __size_of_NWM_Unlock 0009               __end_of_NetworkInit 0EBC  
                    ___xxtofl@arg 002F                      ___xxtofl@exp 002E                      ___xxtofl@val 0025  
         __end_of__initialization 0070               ?_NRF_StartListening 0070                    NVM_Read_Buff@i 002D  
                      ___fltol@f1 004D                 __end_of_Appl_Init 170C                         ?_MCU_Init 0070  
             ___bmul@multiplicand 0025        NRF_Write_Register@Register 002F                    __pcstackCOMMON 0070  
       __size_of_NRF_SetRFChannel 002A                         ?_NVM_Init 0070                         ?_NVM_Read 0025  
             NVM_Read_Buff@length 002A              ??_NRF_StartListening 0032                  ??_NetworkManager 0025  
            NVM_Write_Row@address 0025         __size_of_NRF_SetAddrWidth 0033                         ?_ClickLed 0070  
    NRF_SetAddrWidth@AddressWidth 0035                         ISR@PipeNo 0024                 ??_LinearTransiant 005A  
                      __pbssBANK0 0064                        __pbssBANK1 00A0                        __pbssBANK2 0120  
        __size_of_NRF_ReadPayload 0041      __size_of_NRF_OpenReadingPipe 0097                    _CircularBuffer 2170  
       __size_of_NRF_PipeEnableAA 0023               __size_of_Get_Slope1 0003                           ?_IsFull 0070  
                      ??_MCU_Init 0033                 __end_of__Umul8_16 08B1               NRF_Available@PipiNo 0074  
                      __pmaintext 0CA7             __size_of_KeepDistance 0031                 __end_of_QueueInit 1759  
                         ?___bmul 0025               _NRF_Set_SPI_Handler 07F8                        __pintentry 0004  
                      ??_NVM_Init 002C                        ??_NVM_Read 0027                      ??_NRF_SetART 0033  
                       ?___xxtofl 0025                       _NetworkInit 0E2E                        ??_ClickLed 0072  
         LinearTransiant@OldValue 0058           LinearTransiant@NewValue 00E8                           _PWM1DCH 0612  
                         _PWM1DCL 0611                           _NRFChip 00D2                           _PWM2DCH 0615  
                         _PWM2DCL 0614                           _PWM1CON 0613                           _PWM2CON 0616  
            ?_NRF_Set_SPI_Handler 0025                  LinearTransiant@a 00E6                           _SSP1BUF 0211  
                LinearTransiant@i 00E7                    _NRF_SetRFPower 0AC0        NRF_SetRFChannel@RF_Channel 0036  
                         _CmdPWM1 00C1                           _CmdPWM2 00C0                    _NRF_PipeEnable 0801  
                    _KeepDistance 0983                           _IsEmpty 1727                           _SetPWM1 17C7  
                         _SetPWM2 07E0                   __size_of_IsFull 003D      __end_ofi1_NRF_Write_Register 0983  
                         _MyQueue 00A8                      ?_Get_PWM1Cmd 0070                      ?_Get_PWM2Cmd 0070  
                    ??_NWM_Unlock 0025                __end_of_NRF_SetART 08FC                   __size_of___bmul 0016  
                         ___fldiv 04CB                           ___flmul 0074                           ___fltol 0DB9  
                  _APPL_TASK_10MS 0CFE                           ___lwmod 0A19                           _deQueue 0C06  
                         _gamma10 02CB                           _enQueue 0C56                  KeepDistance@diff 0026  
                         __ptext1 086A                           __ptext2 0A86                           __ptext3 0E2E  
                         __ptext4 0847                           __ptext5 17DF                           __ptext6 179D  
                         __ptext7 0AC0                           __ptext8 0926                           __ptext9 08FC  
                    __size_of_ISR 0043                  NetworkInit@F3697 00B3                  NetworkInit@F3699 00AE  
             APPL_TASK_10MS@D_lay 0061                        ??___xxtofl 0029            __end_of_NRF_SetRFPower 0AFB  
           ??_NRF_Set_SPI_Handler 0027            __end_of_NRF_PipeEnable 0824          __size_of_Task_LedManager 0023  
                         clrloop0 1740                __end_of_NWM_Unlock 1727              end_of_initialization 0070  
                ??i1_SPI_Exchange 0071            APPL_TASK_10MS@OldValue 0067             __end_of_NVM_Read_Buff 086A  
    i1NRF_Write_Register@Register 0078                 ??_NRF_ReadPayload 007B            __end_of_APPL_TASK_10MS 0D5B  
                _NRF_SetRFChannel 08FC                   NVM_Read@address 0025                      ??_Get_Slope1 0025  
            _NRF_SetRFChannel$535 0034                  _NRF_SetAddrWidth 09E6                     ___xxtofl@sign 002D  
                 ?_NRF_SetRFPower 0070                   NRF_SetART@delay 0032                   NRF_SetART@count 0034  
                     ___fldiv@grs 0047                       ___fldiv@rem 0040                   ?_NRF_PipeEnable 0070  
           NRF_OpenReadingPipe@AW 0040                       ___flmul@grs 0042                  _NRF_PipeEnableAA 0824  
                SetPWM1@DutyCycle 002F                __end_of_Get_Slope1 1706                     ?_SPI_Exchange 0025  
           __end_of_NVM_Write_Row 0C06                    __end_of_IsFull 0B38                   ?_APPL_TASK_10MS 0070  
                SetPWM2@DutyCycle 0025                    NVM_Write_Row@i 002B                NVM_Init@InitBuffer 002E  
               __size_of_MCU_Init 003F                         _Appl_Init 1706        __end_of_NRF_Write_Register 0A86  
                  __end_of___bmul 17C7               _NRF_OpenReadingPipe 0EBC            __size_of_NRF_Available 0013  
          __size_of_NRF_GetStatus 0013                   _LinearTransiant 067F                 __size_of_NVM_Init 005E  
               __size_of_NVM_Read 0010              NVM_Read_Buff@address 0027               start_initialization 0049  
                     __end_of_ISR 0047             __end_of_NRF24L01_Init 173F              i1_NRF_Write_Register 0952  
       NRF24L01_Init@SPI_Exchange 0027                 __size_of_ClickLed 0009            __size_of_NRF_SetCRCLen 0024  
            ?_NRF_OpenReadingPipe 0036                 ??_Task_LedManager 0025                    ??_SPI_Exchange 0026  
                        ??_IsFull 0025            NRF_PipeEnableAA@PipeNo 0034            __size_of_NRF_SetTxAddr 0014  
                        ??___bmul 0026                        ?_Appl_Init 0070              __size_of_Get_PWM1Cmd 0003  
            __size_of_Get_PWM2Cmd 0003                         __Umul8_16 088D        NRF_OpenReadingPipe@AutoAck 0038  
                       _QueueInit 174B       __size_of_NRF_StartListening 0021                         ___fldiv@a 0033  
                       ___fldiv@b 0037               NRF_Write_Register@i 0031                       __pbssBIGRAM 2170  
                       ___flmul@a 0037                         ___flmul@b 0033                      ?_NetworkInit 0070  
                       ___latbits 0002             ?i1_NRF_Write_Register 0071                     __pcstackBANK0 0020  
                   __pcstackBANK1 00E0                 __size_of___xxtofl 00AD             ??_NRF_OpenReadingPipe 003A  
          _SPI_Exchange$intlevel0 175D                     _NRF_Available 178A                     _NRF_GetStatus 1777  
                        ?_IsEmpty 0070                          ?_SetPWM1 002F                          ?_SetPWM2 0025  
         __end_of_LinearTransiant 07E0                KeepDistance@amount 0028                          ?___fldiv 0033  
                        ?___flmul 0033                          ?___fltol 004D                KeepDistance@retVal 0029  
                      ?__Umul8_16 0025                          ?___lwmod 0025                     _NRF_SetCRCLen 08B1  
                        ?_deQueue 0070                        ?_QueueInit 0070                          ?_enQueue 0070  
                  deQueue@element 002E                     _NRF_SetTxAddr 179D          __end_of_NRF_SetRFChannel 0926  
                 _NRF_ReadPayload 0B77                APPL_TASK_10MS@LED1 0063                APPL_TASK_10MS@LED2 0062  
                  ?_NRF_Available 0070           __size_of_NetworkManager 003A                    ?_NRF_GetStatus 0070  
                        _LATCbits 010E         NRF_Read_Register@Register 002C                         clear_ram0 173F  
                        _MCU_Init 0B38          __end_of_NRF_SetAddrWidth 0A19           _NRF_OpenReadingPipe$506 003E  
                        _SSP1CON1 0215                    ?_NRF_SetCRCLen 0070                       ??_Appl_Init 0025  
                        _SSP1STAT 0214                          _NVM_Init 0D5B                          _NVM_Read 1767  
                ??_NRF_SetRFPower 0032          __end_of_NRF_PipeEnableAA 0847       __end_of_NRF_Set_SPI_Handler 07FE  
            NRF_OpenReadingPipe@i 0041                  ??_NRF_PipeEnable 0032            ??i1_NRF_Write_Register 0074  
                        _DataPipe 00C2                    ?_NRF_SetTxAddr 0070              __end_of_SPI_Exchange 1767  
                        _ClickLed 170C            Task_LedManager@Timeout 00B8           NRF_Read_Register@Length 0027  
    NRF_ReadPayload@PayloadLength 007A                NRF_PipeEnableAA@AA 0035                  ??_APPL_TASK_10MS 005F  
     LinearTransiant@Duration10ms 0059                  __size_of_IsEmpty 000C                          _Tick_1ms 00BC  
                __size_of_SetPWM1 0018                  __size_of_SetPWM2 0018                          _NwtFlags 0066  
       NRF_OpenReadingPipe@Enable 0039                  ?_LinearTransiant 0058                       ??__Umul8_16 0027  
       NRF_OpenReadingPipe@PipeNo 0042                  __size_of___fldiv 01B4                  __size_of___flmul 0257  
                __size_of___fltol 0075                       ??_QueueInit 0025                  __size_of___lwmod 0035  
                __size_of_deQueue 0050                  __size_of_enQueue 0051           __end_of_NRF_ReadPayload 0BB8  
                        ___xxtofl 0F53            __size_of_NVM_Read_Buff 0023                   _Task_LedManager 086A  
              _NRF_Write_Register 0A4E                          __ptext10 08B1                          __ptext11 09E6  
                        __ptext20 1733                          __ptext12 08D5                          __ptext21 07F8  
                        __ptext13 0EBC                          __ptext30 0C06                          __ptext22 0D5B  
                        __ptext14 17B1                          __ptext31 1727                          __ptext23 0BB8  
                        __ptext15 0824                          __ptext40 0074                          __ptext32 07E0  
                        __ptext24 171E                          __ptext16 0801                          __ptext41 088D  
                        __ptext33 17C7                          __ptext25 1767                          __ptext17 0A4E  
                        __ptext50 178A                          __ptext42 04CB                          __ptext34 067F  
                        __ptext26 0B38                          __ptext18 09B4                          __ptext51 1777  
                        __ptext43 0983                          __ptext35 0C56                          __ptext27 1706  
                        __ptext19 1759                          __ptext52 1715                          __ptext44 1703  
                        __ptext36 0A19                          __ptext28 174B                          __ptext53 170C  
                        __ptext45 1700                          __ptext37 0AFB                          __ptext29 0CFE  
                        __ptext46 16FD                          __ptext38 0F53                          __ptext39 0DB9  
                        __ptext48 0B77                          __ptext49 0952                 _NRF_Read_Register 09B4  
                 ??_NRF_Available 0073              __size_of_NetworkInit 008E                ClickLed@DurationMs 0070  
                 ??_NRF_GetStatus 0071                ?_NRF_Read_Register 0026               ?_NRF_Write_Register 0029  
                   __size_of_main 0057               ??_NRF_Read_Register 0028                   ??_NRF_SetCRCLen 0032  
         __size_ofi1_SPI_Exchange 0009                          int$flags 007E                       _NFR_RxPipes 0140  
                    _SSP1STATbits 0214              ??_NRF_Write_Register 002C                   ??_NRF_SetTxAddr 0032  
          NRF_Read_Register@Bytes 0026                        _INTCONbits 000B         __end_of_NRF_Read_Register 09E6  
          __size_of_NVM_Write_Row 004E                    _NetworkManager 0A86                          intlevel1 0000  
                   ?_KeepDistance 0070                        _PMCON1bits 0195                  ___lwmod@dividend 0027  
            LinearTransiant@Slope 00E0                     _NVM_Read_Buff 0847                     ??_Get_PWM1Cmd 0025  
                   ??_Get_PWM2Cmd 0025              _NRF_SetAddrWidth$547 0033                 _NRF_SetRFDataRate 0926  
          __size_of_NRF24L01_Init 000C                ?_NRF_SetRFDataRate 0070        __end_of_NRF_StartListening 1800  
           __size_of_SPI_Exchange 000E                _NRF_SetRFPower$542 0034           __end_of_Task_LedManager 088D  
                   __pstringtext1 02CB            __Umul8_16@multiplicand 0025                        _OPTION_REG 0095  
             ??_NRF_SetRFDataRate 0032                  ?_NRF_ReadPayload 007A                        _NRF_SetART 08D5  
                 ___lwmod@divisor 0025       __end_of_NRF_OpenReadingPipe 0F53                   ___lwmod@counter 002A  
             LinearTransiant@diff 00E4            __end_of_NetworkManager 0AC0                 ?_NRF_SetRFChannel 0070  
NRF_OpenReadingPipe@PayloadLength 0037                    ??_KeepDistance 0025                ??_NRF_SetRFChannel 0032  
                NRF_SetCRCLen@Len 0033                  NRF_ReadPayload@i 0021              __Umul8_16@multiplier 002D  
                  ?_NVM_Read_Buff 0027         __end_of_NRF_SetRFDataRate 0952                NRF_Read_Register@i 002D  
                    _SPI_Exchange 1759                     _NVM_Write_Row 0BB8                 __Umul8_16@product 0029  
               ?_NRF_SetAddrWidth 0070              NetworkInit@AddrPipe1 0045  
